
C:/Users/Asus/Downloads/bomber/Bombero/build/access.elf:     file format elf32-littlearm

Sections:
Idx Name          Size      VMA       LMA       File off  Algn
  0 .boot2        00000100  10000000  10000000  00001000  2**0
                  CONTENTS, ALLOC, LOAD, READONLY, CODE
  1 .text         00006ac8  10000100  10000100  00001100  2**3
                  CONTENTS, ALLOC, LOAD, READONLY, CODE
  2 .rodata       0000174c  10006bc8  10006bc8  00007bc8  2**3
                  CONTENTS, ALLOC, LOAD, READONLY, DATA
  3 .binary_info  00000020  10008314  10008314  00009314  2**2
                  CONTENTS, ALLOC, LOAD, READONLY, DATA
  4 .ram_vector_table 000000c0  20000000  20000000  0000b000  2**2
                  ALLOC
  5 .data         00000bf0  200000c0  10008334  0000a0c0  2**4
                  CONTENTS, ALLOC, LOAD, READONLY, CODE
  6 .uninitialized_data 00000000  20000cb0  20000cb0  0000acb0  2**0
                  CONTENTS
  7 .scratch_x    00000000  20040000  20040000  0000acb0  2**0
                  CONTENTS
  8 .scratch_y    00000000  20041000  20041000  0000acb0  2**0
                  CONTENTS
  9 .bss          00000da8  20000cb0  20000cb0  0000b000  2**3
                  ALLOC
 10 .heap         00000800  20001a58  20001a58  0000acb0  2**2
                  CONTENTS, READONLY
 11 .stack_dummy  00000800  20041000  20041000  0000b4c0  2**5
                  CONTENTS, READONLY
 12 .ARM.attributes 00000028  00000000  00000000  0000bcc0  2**0
                  CONTENTS, READONLY
 13 .comment      00000049  00000000  00000000  0000bce8  2**0
                  CONTENTS, READONLY
 14 .debug_info   00026530  00000000  00000000  0000bd31  2**0
                  CONTENTS, READONLY, DEBUGGING, OCTETS
 15 .debug_abbrev 00006e44  00000000  00000000  00032261  2**0
                  CONTENTS, READONLY, DEBUGGING, OCTETS
 16 .debug_loc    00018fa1  00000000  00000000  000390a5  2**0
                  CONTENTS, READONLY, DEBUGGING, OCTETS
 17 .debug_aranges 000013f8  00000000  00000000  00052048  2**3
                  CONTENTS, READONLY, DEBUGGING, OCTETS
 18 .debug_ranges 000048c0  00000000  00000000  00053440  2**3
                  CONTENTS, READONLY, DEBUGGING, OCTETS
 19 .debug_line   000181b5  00000000  00000000  00057d00  2**0
                  CONTENTS, READONLY, DEBUGGING, OCTETS
 20 .debug_str    0000740a  00000000  00000000  0006feb5  2**0
                  CONTENTS, READONLY, DEBUGGING, OCTETS
 21 .debug_frame  00002a58  00000000  00000000  000772c0  2**2
                  CONTENTS, READONLY, DEBUGGING, OCTETS

C:/Users/Asus/Downloads/bomber/Bombero/build/access.elf:     file format elf32-littlearm


Disassembly of section .boot2:

10000000 <__boot2_start__>:
10000000:	4b32b500 	.word	0x4b32b500
10000004:	60582021 	.word	0x60582021
10000008:	21026898 	.word	0x21026898
1000000c:	60984388 	.word	0x60984388
10000010:	611860d8 	.word	0x611860d8
10000014:	4b2e6158 	.word	0x4b2e6158
10000018:	60992100 	.word	0x60992100
1000001c:	61592102 	.word	0x61592102
10000020:	22f02101 	.word	0x22f02101
10000024:	492b5099 	.word	0x492b5099
10000028:	21016019 	.word	0x21016019
1000002c:	20356099 	.word	0x20356099
10000030:	f844f000 	.word	0xf844f000
10000034:	42902202 	.word	0x42902202
10000038:	2106d014 	.word	0x2106d014
1000003c:	f0006619 	.word	0xf0006619
10000040:	6e19f834 	.word	0x6e19f834
10000044:	66192101 	.word	0x66192101
10000048:	66182000 	.word	0x66182000
1000004c:	f000661a 	.word	0xf000661a
10000050:	6e19f82c 	.word	0x6e19f82c
10000054:	6e196e19 	.word	0x6e196e19
10000058:	f0002005 	.word	0xf0002005
1000005c:	2101f82f 	.word	0x2101f82f
10000060:	d1f94208 	.word	0xd1f94208
10000064:	60992100 	.word	0x60992100
10000068:	6019491b 	.word	0x6019491b
1000006c:	60592100 	.word	0x60592100
10000070:	481b491a 	.word	0x481b491a
10000074:	21016001 	.word	0x21016001
10000078:	21eb6099 	.word	0x21eb6099
1000007c:	21a06619 	.word	0x21a06619
10000080:	f0006619 	.word	0xf0006619
10000084:	2100f812 	.word	0x2100f812
10000088:	49166099 	.word	0x49166099
1000008c:	60014814 	.word	0x60014814
10000090:	60992101 	.word	0x60992101
10000094:	2800bc01 	.word	0x2800bc01
10000098:	4700d000 	.word	0x4700d000
1000009c:	49134812 	.word	0x49134812
100000a0:	c8036008 	.word	0xc8036008
100000a4:	8808f380 	.word	0x8808f380
100000a8:	b5034708 	.word	0xb5034708
100000ac:	20046a99 	.word	0x20046a99
100000b0:	d0fb4201 	.word	0xd0fb4201
100000b4:	42012001 	.word	0x42012001
100000b8:	bd03d1f8 	.word	0xbd03d1f8
100000bc:	6618b502 	.word	0x6618b502
100000c0:	f7ff6618 	.word	0xf7ff6618
100000c4:	6e18fff2 	.word	0x6e18fff2
100000c8:	bd026e18 	.word	0xbd026e18
100000cc:	40020000 	.word	0x40020000
100000d0:	18000000 	.word	0x18000000
100000d4:	00070000 	.word	0x00070000
100000d8:	005f0300 	.word	0x005f0300
100000dc:	00002221 	.word	0x00002221
100000e0:	180000f4 	.word	0x180000f4
100000e4:	a0002022 	.word	0xa0002022
100000e8:	10000100 	.word	0x10000100
100000ec:	e000ed08 	.word	0xe000ed08
	...
100000fc:	7a4eb274 	.word	0x7a4eb274

Disassembly of section .text:

10000100 <__VECTOR_TABLE>:
10000100:	20042000 	.word	0x20042000
10000104:	100001f7 	.word	0x100001f7
10000108:	100001c3 	.word	0x100001c3
1000010c:	100001c5 	.word	0x100001c5
10000110:	100001c1 	.word	0x100001c1
10000114:	100001c1 	.word	0x100001c1
10000118:	100001c1 	.word	0x100001c1
1000011c:	100001c1 	.word	0x100001c1
10000120:	100001c1 	.word	0x100001c1
10000124:	100001c1 	.word	0x100001c1
10000128:	100001c1 	.word	0x100001c1
1000012c:	100001c7 	.word	0x100001c7
10000130:	100001c1 	.word	0x100001c1
10000134:	100001c1 	.word	0x100001c1
10000138:	100001c9 	.word	0x100001c9
1000013c:	100001cb 	.word	0x100001cb
10000140:	100001cd 	.word	0x100001cd
10000144:	100001cd 	.word	0x100001cd
10000148:	100001cd 	.word	0x100001cd
1000014c:	100001cd 	.word	0x100001cd
10000150:	100001cd 	.word	0x100001cd
10000154:	100001cd 	.word	0x100001cd
10000158:	100001cd 	.word	0x100001cd
1000015c:	100001cd 	.word	0x100001cd
10000160:	100001cd 	.word	0x100001cd
10000164:	100001cd 	.word	0x100001cd
10000168:	100001cd 	.word	0x100001cd
1000016c:	100001cd 	.word	0x100001cd
10000170:	100001cd 	.word	0x100001cd
10000174:	100001cd 	.word	0x100001cd
10000178:	100001cd 	.word	0x100001cd
1000017c:	100001cd 	.word	0x100001cd
10000180:	100001cd 	.word	0x100001cd
10000184:	100001cd 	.word	0x100001cd
10000188:	100001cd 	.word	0x100001cd
1000018c:	100001cd 	.word	0x100001cd
10000190:	100001cd 	.word	0x100001cd
10000194:	100001cd 	.word	0x100001cd
10000198:	100001cd 	.word	0x100001cd
1000019c:	100001cd 	.word	0x100001cd
100001a0:	100001cd 	.word	0x100001cd
100001a4:	100001cd 	.word	0x100001cd
100001a8:	100001cd 	.word	0x100001cd
100001ac:	100001cd 	.word	0x100001cd
100001b0:	100001cd 	.word	0x100001cd
100001b4:	100001cd 	.word	0x100001cd
100001b8:	100001cd 	.word	0x100001cd
100001bc:	100001cd 	.word	0x100001cd

100001c0 <isr_invalid>:
100001c0:	be00      	bkpt	0x0000

100001c2 <isr_nmi>:
100001c2:	be00      	bkpt	0x0000

100001c4 <isr_hardfault>:
100001c4:	be00      	bkpt	0x0000

100001c6 <isr_svcall>:
100001c6:	be00      	bkpt	0x0000

100001c8 <isr_pendsv>:
100001c8:	be00      	bkpt	0x0000

100001ca <isr_systick>:
100001ca:	be00      	bkpt	0x0000

100001cc <__unhandled_user_irq>:
100001cc:	f3ef 8005 	mrs	r0, IPSR
100001d0:	3810      	subs	r0, #16

100001d2 <unhandled_user_irq_num_in_r0>:
100001d2:	be00      	bkpt	0x0000

100001d4 <binary_info_header>:
100001d4:	7188ebf2 	.word	0x7188ebf2
100001d8:	10008314 	.word	0x10008314
100001dc:	10008334 	.word	0x10008334
100001e0:	10000234 	.word	0x10000234
100001e4:	e71aa390 	.word	0xe71aa390

100001e8 <_entry_point>:
100001e8:	2000      	movs	r0, #0
100001ea:	491f      	ldr	r1, [pc, #124]	; (10000268 <hold_non_core0_in_bootrom+0xa>)
100001ec:	6008      	str	r0, [r1, #0]
100001ee:	c806      	ldmia	r0!, {r1, r2}
100001f0:	f381 8808 	msr	MSP, r1
100001f4:	4710      	bx	r2

100001f6 <_reset_handler>:
100001f6:	481d      	ldr	r0, [pc, #116]	; (1000026c <hold_non_core0_in_bootrom+0xe>)
100001f8:	6800      	ldr	r0, [r0, #0]
100001fa:	2800      	cmp	r0, #0
100001fc:	d12f      	bne.n	1000025e <hold_non_core0_in_bootrom>
100001fe:	a40d      	add	r4, pc, #52	; (adr r4, 10000234 <data_cpy_table>)
10000200:	cc0e      	ldmia	r4!, {r1, r2, r3}
10000202:	2900      	cmp	r1, #0
10000204:	d002      	beq.n	1000020c <_reset_handler+0x16>
10000206:	f000 f812 	bl	1000022e <data_cpy>
1000020a:	e7f9      	b.n	10000200 <_reset_handler+0xa>
1000020c:	4918      	ldr	r1, [pc, #96]	; (10000270 <hold_non_core0_in_bootrom+0x12>)
1000020e:	4a19      	ldr	r2, [pc, #100]	; (10000274 <hold_non_core0_in_bootrom+0x16>)
10000210:	2000      	movs	r0, #0
10000212:	e000      	b.n	10000216 <bss_fill_test>

10000214 <bss_fill_loop>:
10000214:	c101      	stmia	r1!, {r0}

10000216 <bss_fill_test>:
10000216:	4291      	cmp	r1, r2
10000218:	d1fc      	bne.n	10000214 <bss_fill_loop>

1000021a <platform_entry>:
1000021a:	4917      	ldr	r1, [pc, #92]	; (10000278 <hold_non_core0_in_bootrom+0x1a>)
1000021c:	4788      	blx	r1
1000021e:	4917      	ldr	r1, [pc, #92]	; (1000027c <hold_non_core0_in_bootrom+0x1e>)
10000220:	4788      	blx	r1
10000222:	4917      	ldr	r1, [pc, #92]	; (10000280 <hold_non_core0_in_bootrom+0x22>)
10000224:	4788      	blx	r1
10000226:	be00      	bkpt	0x0000
10000228:	e7fd      	b.n	10000226 <platform_entry+0xc>

1000022a <data_cpy_loop>:
1000022a:	c901      	ldmia	r1!, {r0}
1000022c:	c201      	stmia	r2!, {r0}

1000022e <data_cpy>:
1000022e:	429a      	cmp	r2, r3
10000230:	d3fb      	bcc.n	1000022a <data_cpy_loop>
10000232:	4770      	bx	lr

10000234 <data_cpy_table>:
10000234:	10008334 	.word	0x10008334
10000238:	200000c0 	.word	0x200000c0
1000023c:	20000cb0 	.word	0x20000cb0
10000240:	10008f24 	.word	0x10008f24
10000244:	20040000 	.word	0x20040000
10000248:	20040000 	.word	0x20040000
1000024c:	10008f24 	.word	0x10008f24
10000250:	20041000 	.word	0x20041000
10000254:	20041000 	.word	0x20041000
10000258:	00000000 	.word	0x00000000
1000025c:	4770      	bx	lr

1000025e <hold_non_core0_in_bootrom>:
1000025e:	4809      	ldr	r0, [pc, #36]	; (10000284 <hold_non_core0_in_bootrom+0x26>)
10000260:	f003 faf0 	bl	10003844 <rom_func_lookup>
10000264:	4700      	bx	r0
10000266:	0000      	.short	0x0000
10000268:	e000ed08 	.word	0xe000ed08
1000026c:	d0000000 	.word	0xd0000000
10000270:	20000cb0 	.word	0x20000cb0
10000274:	20001a58 	.word	0x20001a58
10000278:	100025cd 	.word	0x100025cd
1000027c:	10000499 	.word	0x10000499
10000280:	10002589 	.word	0x10002589
10000284:	00005657 	.word	0x00005657

10000288 <__bi_50>:
10000288:	50520006 5360b3ab 10007c20              ..RP..`S |..

10000294 <__bi_38>:
10000294:	50520006 02031c86 10007c30              ..RP....0|..

100002a0 <__bi_30>:
100002a0:	50520006 9da22254 10007c38              ..RPT"..8|..

100002ac <__bi_22>:
100002ac:	50520005 68f465de 10008f24              ..RP.e.h$...

100002b8 <_init>:
100002b8:	b5f8      	push	{r3, r4, r5, r6, r7, lr}
100002ba:	46c0      	nop			; (mov r8, r8)

100002bc <__do_global_dtors_aux>:
100002bc:	b510      	push	{r4, lr}
100002be:	4c06      	ldr	r4, [pc, #24]	; (100002d8 <__do_global_dtors_aux+0x1c>)
100002c0:	7823      	ldrb	r3, [r4, #0]
100002c2:	2b00      	cmp	r3, #0
100002c4:	d107      	bne.n	100002d6 <__do_global_dtors_aux+0x1a>
100002c6:	4b05      	ldr	r3, [pc, #20]	; (100002dc <__do_global_dtors_aux+0x20>)
100002c8:	2b00      	cmp	r3, #0
100002ca:	d002      	beq.n	100002d2 <__do_global_dtors_aux+0x16>
100002cc:	4804      	ldr	r0, [pc, #16]	; (100002e0 <__do_global_dtors_aux+0x24>)
100002ce:	e000      	b.n	100002d2 <__do_global_dtors_aux+0x16>
100002d0:	bf00      	nop
100002d2:	2301      	movs	r3, #1
100002d4:	7023      	strb	r3, [r4, #0]
100002d6:	bd10      	pop	{r4, pc}
100002d8:	20000db8 	.word	0x20000db8
100002dc:	00000000 	.word	0x00000000
100002e0:	10006bc8 	.word	0x10006bc8

100002e4 <frame_dummy>:
100002e4:	4b04      	ldr	r3, [pc, #16]	; (100002f8 <frame_dummy+0x14>)
100002e6:	b510      	push	{r4, lr}
100002e8:	2b00      	cmp	r3, #0
100002ea:	d003      	beq.n	100002f4 <frame_dummy+0x10>
100002ec:	4903      	ldr	r1, [pc, #12]	; (100002fc <frame_dummy+0x18>)
100002ee:	4804      	ldr	r0, [pc, #16]	; (10000300 <frame_dummy+0x1c>)
100002f0:	e000      	b.n	100002f4 <frame_dummy+0x10>
100002f2:	bf00      	nop
100002f4:	bd10      	pop	{r4, pc}
100002f6:	46c0      	nop			; (mov r8, r8)
100002f8:	00000000 	.word	0x00000000
100002fc:	20000dbc 	.word	0x20000dbc
10000300:	10006bc8 	.word	0x10006bc8

10000304 <gpio_callback>:
10000304:	b510      	push	{r4, lr}
10000306:	b082      	sub	sp, #8
10000308:	f000 f8fc 	bl	10000504 <Temp>
1000030c:	2800      	cmp	r0, #0
1000030e:	d00a      	beq.n	10000326 <gpio_callback+0x22>
10000310:	4b15      	ldr	r3, [pc, #84]	; (10000368 <gpio_callback+0x64>)
10000312:	781a      	ldrb	r2, [r3, #0]
10000314:	2101      	movs	r1, #1
10000316:	438a      	bics	r2, r1
10000318:	701a      	strb	r2, [r3, #0]
1000031a:	781a      	ldrb	r2, [r3, #0]
1000031c:	2102      	movs	r1, #2
1000031e:	430a      	orrs	r2, r1
10000320:	701a      	strb	r2, [r3, #0]
10000322:	b002      	add	sp, #8
10000324:	bd10      	pop	{r4, pc}
10000326:	4a10      	ldr	r2, [pc, #64]	; (10000368 <gpio_callback+0x64>)
10000328:	7813      	ldrb	r3, [r2, #0]
1000032a:	2102      	movs	r1, #2
1000032c:	438b      	bics	r3, r1
1000032e:	7013      	strb	r3, [r2, #0]
10000330:	4b0e      	ldr	r3, [pc, #56]	; (1000036c <gpio_callback+0x68>)
10000332:	681b      	ldr	r3, [r3, #0]
10000334:	4a0e      	ldr	r2, [pc, #56]	; (10000370 <gpio_callback+0x6c>)
10000336:	6812      	ldr	r2, [r2, #0]
10000338:	490e      	ldr	r1, [pc, #56]	; (10000374 <gpio_callback+0x70>)
1000033a:	6809      	ldr	r1, [r1, #0]
1000033c:	480e      	ldr	r0, [pc, #56]	; (10000378 <gpio_callback+0x74>)
1000033e:	6800      	ldr	r0, [r0, #0]
10000340:	240f      	movs	r4, #15
10000342:	9401      	str	r4, [sp, #4]
10000344:	3c01      	subs	r4, #1
10000346:	9400      	str	r4, [sp, #0]
10000348:	f000 f93c 	bl	100005c4 <Distancia>
1000034c:	2800      	cmp	r0, #0
1000034e:	d005      	beq.n	1000035c <gpio_callback+0x58>
10000350:	4a05      	ldr	r2, [pc, #20]	; (10000368 <gpio_callback+0x64>)
10000352:	7813      	ldrb	r3, [r2, #0]
10000354:	2101      	movs	r1, #1
10000356:	430b      	orrs	r3, r1
10000358:	7013      	strb	r3, [r2, #0]
1000035a:	e7e2      	b.n	10000322 <gpio_callback+0x1e>
1000035c:	4a02      	ldr	r2, [pc, #8]	; (10000368 <gpio_callback+0x64>)
1000035e:	7813      	ldrb	r3, [r2, #0]
10000360:	2101      	movs	r1, #1
10000362:	438b      	bics	r3, r1
10000364:	7013      	strb	r3, [r2, #0]
10000366:	e7dc      	b.n	10000322 <gpio_callback+0x1e>
10000368:	200013e8 	.word	0x200013e8
1000036c:	200013d0 	.word	0x200013d0
10000370:	200013d8 	.word	0x200013d8
10000374:	200013e4 	.word	0x200013e4
10000378:	2000133c 	.word	0x2000133c

1000037c <setup>:
1000037c:	b570      	push	{r4, r5, r6, lr}
1000037e:	f004 f867 	bl	10004450 <stdio_init_all>
10000382:	2105      	movs	r1, #5
10000384:	200a      	movs	r0, #10
10000386:	f000 f963 	bl	10000650 <gpio_set_function>
1000038a:	2105      	movs	r1, #5
1000038c:	200e      	movs	r0, #14
1000038e:	f000 f95f 	bl	10000650 <gpio_set_function>
10000392:	2005      	movs	r0, #5
10000394:	f000 fa5c 	bl	10000850 <gpio_init>
10000398:	24d0      	movs	r4, #208	; 0xd0
1000039a:	0624      	lsls	r4, r4, #24
1000039c:	2320      	movs	r3, #32
1000039e:	6263      	str	r3, [r4, #36]	; 0x24
100003a0:	2006      	movs	r0, #6
100003a2:	f000 fa55 	bl	10000850 <gpio_init>
100003a6:	2340      	movs	r3, #64	; 0x40
100003a8:	6263      	str	r3, [r4, #36]	; 0x24
100003aa:	2004      	movs	r0, #4
100003ac:	f000 fa50 	bl	10000850 <gpio_init>
100003b0:	2510      	movs	r5, #16
100003b2:	6265      	str	r5, [r4, #36]	; 0x24
100003b4:	200a      	movs	r0, #10
100003b6:	f000 fa4b 	bl	10000850 <gpio_init>
100003ba:	2380      	movs	r3, #128	; 0x80
100003bc:	00db      	lsls	r3, r3, #3
100003be:	6263      	str	r3, [r4, #36]	; 0x24
100003c0:	61a3      	str	r3, [r4, #24]
100003c2:	6165      	str	r5, [r4, #20]
100003c4:	481e      	ldr	r0, [pc, #120]	; (10000440 <setup+0xc4>)
100003c6:	f004 f837 	bl	10004438 <__wrap_printf>
100003ca:	2007      	movs	r0, #7
100003cc:	f000 fa40 	bl	10000850 <gpio_init>
100003d0:	2380      	movs	r3, #128	; 0x80
100003d2:	6263      	str	r3, [r4, #36]	; 0x24
100003d4:	2008      	movs	r0, #8
100003d6:	f000 fa3b 	bl	10000850 <gpio_init>
100003da:	2380      	movs	r3, #128	; 0x80
100003dc:	005b      	lsls	r3, r3, #1
100003de:	6263      	str	r3, [r4, #36]	; 0x24
100003e0:	2009      	movs	r0, #9
100003e2:	f000 fa35 	bl	10000850 <gpio_init>
100003e6:	2380      	movs	r3, #128	; 0x80
100003e8:	009b      	lsls	r3, r3, #2
100003ea:	6263      	str	r3, [r4, #36]	; 0x24
100003ec:	6163      	str	r3, [r4, #20]
100003ee:	210f      	movs	r1, #15
100003f0:	200e      	movs	r0, #14
100003f2:	f000 f8d3 	bl	1000059c <init_Distance>
100003f6:	4c13      	ldr	r4, [pc, #76]	; (10000444 <setup+0xc8>)
100003f8:	0023      	movs	r3, r4
100003fa:	2201      	movs	r2, #1
100003fc:	2104      	movs	r1, #4
100003fe:	200e      	movs	r0, #14
10000400:	f000 f9b2 	bl	10000768 <gpio_set_irq_enabled_with_callback>
10000404:	f006 fb26 	bl	10006a54 <adc_init>
10000408:	211f      	movs	r1, #31
1000040a:	201a      	movs	r0, #26
1000040c:	f000 f920 	bl	10000650 <gpio_set_function>
10000410:	2200      	movs	r2, #0
10000412:	2100      	movs	r1, #0
10000414:	201a      	movs	r0, #26
10000416:	f000 f933 	bl	10000680 <gpio_set_pulls>
1000041a:	2100      	movs	r1, #0
1000041c:	201a      	movs	r0, #26
1000041e:	f000 f9ff 	bl	10000820 <gpio_set_input_enabled>
10000422:	4b09      	ldr	r3, [pc, #36]	; (10000448 <setup+0xcc>)
10000424:	681b      	ldr	r3, [r3, #0]
10000426:	22e0      	movs	r2, #224	; 0xe0
10000428:	01d2      	lsls	r2, r2, #7
1000042a:	4013      	ands	r3, r2
1000042c:	4a07      	ldr	r2, [pc, #28]	; (1000044c <setup+0xd0>)
1000042e:	6013      	str	r3, [r2, #0]
10000430:	0023      	movs	r3, r4
10000432:	2201      	movs	r2, #1
10000434:	2108      	movs	r1, #8
10000436:	201a      	movs	r0, #26
10000438:	f000 f996 	bl	10000768 <gpio_set_irq_enabled_with_callback>
1000043c:	bd70      	pop	{r4, r5, r6, pc}
1000043e:	46c0      	nop			; (mov r8, r8)
10000440:	10006bc8 	.word	0x10006bc8
10000444:	10000305 	.word	0x10000305
10000448:	4004c000 	.word	0x4004c000
1000044c:	4004d000 	.word	0x4004d000

10000450 <change_direction>:
10000450:	2800      	cmp	r0, #0
10000452:	d010      	beq.n	10000476 <change_direction+0x26>
10000454:	23d0      	movs	r3, #208	; 0xd0
10000456:	061b      	lsls	r3, r3, #24
10000458:	2210      	movs	r2, #16
1000045a:	615a      	str	r2, [r3, #20]
1000045c:	3210      	adds	r2, #16
1000045e:	615a      	str	r2, [r3, #20]
10000460:	3220      	adds	r2, #32
10000462:	619a      	str	r2, [r3, #24]
10000464:	32c1      	adds	r2, #193	; 0xc1
10000466:	32ff      	adds	r2, #255	; 0xff
10000468:	615a      	str	r2, [r3, #20]
1000046a:	3a81      	subs	r2, #129	; 0x81
1000046c:	3aff      	subs	r2, #255	; 0xff
1000046e:	615a      	str	r2, [r3, #20]
10000470:	3280      	adds	r2, #128	; 0x80
10000472:	619a      	str	r2, [r3, #24]
10000474:	4770      	bx	lr
10000476:	23d0      	movs	r3, #208	; 0xd0
10000478:	061b      	lsls	r3, r3, #24
1000047a:	2210      	movs	r2, #16
1000047c:	615a      	str	r2, [r3, #20]
1000047e:	3210      	adds	r2, #16
10000480:	619a      	str	r2, [r3, #24]
10000482:	3220      	adds	r2, #32
10000484:	615a      	str	r2, [r3, #20]
10000486:	32c1      	adds	r2, #193	; 0xc1
10000488:	32ff      	adds	r2, #255	; 0xff
1000048a:	615a      	str	r2, [r3, #20]
1000048c:	3a81      	subs	r2, #129	; 0x81
1000048e:	3aff      	subs	r2, #255	; 0xff
10000490:	615a      	str	r2, [r3, #20]
10000492:	3280      	adds	r2, #128	; 0x80
10000494:	619a      	str	r2, [r3, #24]
10000496:	e7ed      	b.n	10000474 <change_direction+0x24>

10000498 <main>:
10000498:	b510      	push	{r4, lr}
1000049a:	f7ff ff6f 	bl	1000037c <setup>
1000049e:	e011      	b.n	100004c4 <main+0x2c>
100004a0:	4b16      	ldr	r3, [pc, #88]	; (100004fc <main+0x64>)
100004a2:	781b      	ldrb	r3, [r3, #0]
100004a4:	07db      	lsls	r3, r3, #31
100004a6:	d41b      	bmi.n	100004e0 <main+0x48>
100004a8:	4b14      	ldr	r3, [pc, #80]	; (100004fc <main+0x64>)
100004aa:	781b      	ldrb	r3, [r3, #0]
100004ac:	079b      	lsls	r3, r3, #30
100004ae:	d41b      	bmi.n	100004e8 <main+0x50>
100004b0:	23d0      	movs	r3, #208	; 0xd0
100004b2:	061b      	lsls	r3, r3, #24
100004b4:	2280      	movs	r2, #128	; 0x80
100004b6:	00d2      	lsls	r2, r2, #3
100004b8:	619a      	str	r2, [r3, #24]
100004ba:	4b10      	ldr	r3, [pc, #64]	; (100004fc <main+0x64>)
100004bc:	781b      	ldrb	r3, [r3, #0]
100004be:	2b00      	cmp	r3, #0
100004c0:	d1ee      	bne.n	100004a0 <main+0x8>
100004c2:	bf30      	wfi
100004c4:	f000 f81e 	bl	10000504 <Temp>
100004c8:	210f      	movs	r1, #15
100004ca:	200e      	movs	r0, #14
100004cc:	f000 f866 	bl	1000059c <init_Distance>
100004d0:	4b0a      	ldr	r3, [pc, #40]	; (100004fc <main+0x64>)
100004d2:	781b      	ldrb	r3, [r3, #0]
100004d4:	2b00      	cmp	r3, #0
100004d6:	d1f0      	bne.n	100004ba <main+0x22>
100004d8:	2001      	movs	r0, #1
100004da:	f7ff ffb9 	bl	10000450 <change_direction>
100004de:	e7ec      	b.n	100004ba <main+0x22>
100004e0:	2000      	movs	r0, #0
100004e2:	f7ff ffb5 	bl	10000450 <change_direction>
100004e6:	e7df      	b.n	100004a8 <main+0x10>
100004e8:	4805      	ldr	r0, [pc, #20]	; (10000500 <main+0x68>)
100004ea:	f003 ffa5 	bl	10004438 <__wrap_printf>
100004ee:	23d0      	movs	r3, #208	; 0xd0
100004f0:	061b      	lsls	r3, r3, #24
100004f2:	2280      	movs	r2, #128	; 0x80
100004f4:	00d2      	lsls	r2, r2, #3
100004f6:	615a      	str	r2, [r3, #20]
100004f8:	e7df      	b.n	100004ba <main+0x22>
100004fa:	46c0      	nop			; (mov r8, r8)
100004fc:	200013e8 	.word	0x200013e8
10000500:	10006bd8 	.word	0x10006bd8

10000504 <Temp>:
10000504:	b510      	push	{r4, lr}
10000506:	4b17      	ldr	r3, [pc, #92]	; (10000564 <Temp+0x60>)
10000508:	2204      	movs	r2, #4
1000050a:	601a      	str	r2, [r3, #0]
1000050c:	4b16      	ldr	r3, [pc, #88]	; (10000568 <Temp+0x64>)
1000050e:	681b      	ldr	r3, [r3, #0]
10000510:	05db      	lsls	r3, r3, #23
10000512:	d5fb      	bpl.n	1000050c <Temp+0x8>
10000514:	4b14      	ldr	r3, [pc, #80]	; (10000568 <Temp+0x64>)
10000516:	6858      	ldr	r0, [r3, #4]
10000518:	0400      	lsls	r0, r0, #16
1000051a:	0c00      	lsrs	r0, r0, #16
1000051c:	f003 fcb2 	bl	10003e84 <__wrap___aeabi_i2d>
10000520:	4a12      	ldr	r2, [pc, #72]	; (1000056c <Temp+0x68>)
10000522:	4b13      	ldr	r3, [pc, #76]	; (10000570 <Temp+0x6c>)
10000524:	f003 fc41 	bl	10003daa <__wrap___aeabi_dmul>
10000528:	2200      	movs	r2, #0
1000052a:	4b12      	ldr	r3, [pc, #72]	; (10000574 <Temp+0x70>)
1000052c:	f003 fc3d 	bl	10003daa <__wrap___aeabi_dmul>
10000530:	f003 fcec 	bl	10003f0c <__wrap___aeabi_d2f>
10000534:	f003 fdca 	bl	100040cc <__wrap___aeabi_f2d>
10000538:	4a0f      	ldr	r2, [pc, #60]	; (10000578 <Temp+0x74>)
1000053a:	4b10      	ldr	r3, [pc, #64]	; (1000057c <Temp+0x78>)
1000053c:	f003 fc1b 	bl	10003d76 <__wrap___aeabi_ddiv>
10000540:	f003 fce4 	bl	10003f0c <__wrap___aeabi_d2f>
10000544:	1c04      	adds	r4, r0, #0
10000546:	f003 fdc1 	bl	100040cc <__wrap___aeabi_f2d>
1000054a:	0002      	movs	r2, r0
1000054c:	000b      	movs	r3, r1
1000054e:	480c      	ldr	r0, [pc, #48]	; (10000580 <Temp+0x7c>)
10000550:	f003 ff72 	bl	10004438 <__wrap_printf>
10000554:	490b      	ldr	r1, [pc, #44]	; (10000584 <Temp+0x80>)
10000556:	1c20      	adds	r0, r4, #0
10000558:	f003 fdb0 	bl	100040bc <__wrap___aeabi_fcmpge>
1000055c:	2800      	cmp	r0, #0
1000055e:	d000      	beq.n	10000562 <Temp+0x5e>
10000560:	2001      	movs	r0, #1
10000562:	bd10      	pop	{r4, pc}
10000564:	4004e000 	.word	0x4004e000
10000568:	4004c000 	.word	0x4004c000
1000056c:	66666666 	.word	0x66666666
10000570:	400a6666 	.word	0x400a6666
10000574:	3f300000 	.word	0x3f300000
10000578:	47ae147b 	.word	0x47ae147b
1000057c:	3f847ae1 	.word	0x3f847ae1
10000580:	10006bec 	.word	0x10006bec
10000584:	42700000 	.word	0x42700000

10000588 <busy_wait_us_accurate>:
10000588:	4b03      	ldr	r3, [pc, #12]	; (10000598 <busy_wait_us_accurate+0x10>)
1000058a:	6a9a      	ldr	r2, [r3, #40]	; 0x28
1000058c:	4b02      	ldr	r3, [pc, #8]	; (10000598 <busy_wait_us_accurate+0x10>)
1000058e:	6a9b      	ldr	r3, [r3, #40]	; 0x28
10000590:	1a9b      	subs	r3, r3, r2
10000592:	4283      	cmp	r3, r0
10000594:	d3fa      	bcc.n	1000058c <busy_wait_us_accurate+0x4>
10000596:	4770      	bx	lr
10000598:	40054000 	.word	0x40054000

1000059c <init_Distance>:
1000059c:	b570      	push	{r4, r5, r6, lr}
1000059e:	0006      	movs	r6, r0
100005a0:	000d      	movs	r5, r1
100005a2:	f003 ff55 	bl	10004450 <stdio_init_all>
100005a6:	0030      	movs	r0, r6
100005a8:	f000 f952 	bl	10000850 <gpio_init>
100005ac:	2401      	movs	r4, #1
100005ae:	0023      	movs	r3, r4
100005b0:	40b3      	lsls	r3, r6
100005b2:	26d0      	movs	r6, #208	; 0xd0
100005b4:	0636      	lsls	r6, r6, #24
100005b6:	6273      	str	r3, [r6, #36]	; 0x24
100005b8:	0028      	movs	r0, r5
100005ba:	f000 f949 	bl	10000850 <gpio_init>
100005be:	40ac      	lsls	r4, r5
100005c0:	62b4      	str	r4, [r6, #40]	; 0x28
100005c2:	bd70      	pop	{r4, r5, r6, pc}

100005c4 <Distancia>:
100005c4:	b570      	push	{r4, r5, r6, lr}
100005c6:	9c05      	ldr	r4, [sp, #20]
100005c8:	2501      	movs	r5, #1
100005ca:	9b04      	ldr	r3, [sp, #16]
100005cc:	409d      	lsls	r5, r3
100005ce:	26d0      	movs	r6, #208	; 0xd0
100005d0:	0636      	lsls	r6, r6, #24
100005d2:	6175      	str	r5, [r6, #20]
100005d4:	200a      	movs	r0, #10
100005d6:	f7ff ffd7 	bl	10000588 <busy_wait_us_accurate>
100005da:	61b5      	str	r5, [r6, #24]
100005dc:	23d0      	movs	r3, #208	; 0xd0
100005de:	061b      	lsls	r3, r3, #24
100005e0:	685b      	ldr	r3, [r3, #4]
100005e2:	40e3      	lsrs	r3, r4
100005e4:	07db      	lsls	r3, r3, #31
100005e6:	d5f9      	bpl.n	100005dc <Distancia+0x18>
100005e8:	4b13      	ldr	r3, [pc, #76]	; (10000638 <Distancia+0x74>)
100005ea:	6a9a      	ldr	r2, [r3, #40]	; 0x28
100005ec:	23d0      	movs	r3, #208	; 0xd0
100005ee:	061b      	lsls	r3, r3, #24
100005f0:	685b      	ldr	r3, [r3, #4]
100005f2:	40e3      	lsrs	r3, r4
100005f4:	07db      	lsls	r3, r3, #31
100005f6:	d4f9      	bmi.n	100005ec <Distancia+0x28>
100005f8:	4b0f      	ldr	r3, [pc, #60]	; (10000638 <Distancia+0x74>)
100005fa:	6a98      	ldr	r0, [r3, #40]	; 0x28
100005fc:	1a80      	subs	r0, r0, r2
100005fe:	f003 fc3d 	bl	10003e7c <__wrap___aeabi_ui2d>
10000602:	4a0e      	ldr	r2, [pc, #56]	; (1000063c <Distancia+0x78>)
10000604:	4b0e      	ldr	r3, [pc, #56]	; (10000640 <Distancia+0x7c>)
10000606:	f003 fbd0 	bl	10003daa <__wrap___aeabi_dmul>
1000060a:	2200      	movs	r2, #0
1000060c:	4b0d      	ldr	r3, [pc, #52]	; (10000644 <Distancia+0x80>)
1000060e:	f003 fbcc 	bl	10003daa <__wrap___aeabi_dmul>
10000612:	f003 fc7b 	bl	10003f0c <__wrap___aeabi_d2f>
10000616:	1c04      	adds	r4, r0, #0
10000618:	f003 fd58 	bl	100040cc <__wrap___aeabi_f2d>
1000061c:	0002      	movs	r2, r0
1000061e:	000b      	movs	r3, r1
10000620:	4809      	ldr	r0, [pc, #36]	; (10000648 <Distancia+0x84>)
10000622:	f003 ff09 	bl	10004438 <__wrap_printf>
10000626:	4909      	ldr	r1, [pc, #36]	; (1000064c <Distancia+0x88>)
10000628:	1c20      	adds	r0, r4, #0
1000062a:	f003 fd3f 	bl	100040ac <__wrap___aeabi_fcmple>
1000062e:	2800      	cmp	r0, #0
10000630:	d000      	beq.n	10000634 <Distancia+0x70>
10000632:	2001      	movs	r0, #1
10000634:	bd70      	pop	{r4, r5, r6, pc}
10000636:	46c0      	nop			; (mov r8, r8)
10000638:	40054000 	.word	0x40054000
1000063c:	04816f00 	.word	0x04816f00
10000640:	3fa18fc5 	.word	0x3fa18fc5
10000644:	3fe00000 	.word	0x3fe00000
10000648:	10006c04 	.word	0x10006c04
1000064c:	42700000 	.word	0x42700000

10000650 <gpio_set_function>:
10000650:	b510      	push	{r4, lr}
10000652:	0083      	lsls	r3, r0, #2
10000654:	4a08      	ldr	r2, [pc, #32]	; (10000678 <gpio_set_function+0x28>)
10000656:	4694      	mov	ip, r2
10000658:	4463      	add	r3, ip
1000065a:	681c      	ldr	r4, [r3, #0]
1000065c:	2240      	movs	r2, #64	; 0x40
1000065e:	4062      	eors	r2, r4
10000660:	24c0      	movs	r4, #192	; 0xc0
10000662:	4014      	ands	r4, r2
10000664:	2280      	movs	r2, #128	; 0x80
10000666:	0152      	lsls	r2, r2, #5
10000668:	4313      	orrs	r3, r2
1000066a:	601c      	str	r4, [r3, #0]
1000066c:	00c0      	lsls	r0, r0, #3
1000066e:	4b03      	ldr	r3, [pc, #12]	; (1000067c <gpio_set_function+0x2c>)
10000670:	469c      	mov	ip, r3
10000672:	4460      	add	r0, ip
10000674:	6041      	str	r1, [r0, #4]
10000676:	bd10      	pop	{r4, pc}
10000678:	4001c004 	.word	0x4001c004
1000067c:	40014000 	.word	0x40014000

10000680 <gpio_set_pulls>:
10000680:	0080      	lsls	r0, r0, #2
10000682:	4b0b      	ldr	r3, [pc, #44]	; (100006b0 <gpio_set_pulls+0x30>)
10000684:	469c      	mov	ip, r3
10000686:	4460      	add	r0, ip
10000688:	2900      	cmp	r1, #0
1000068a:	d00d      	beq.n	100006a8 <gpio_set_pulls+0x28>
1000068c:	2308      	movs	r3, #8
1000068e:	2a00      	cmp	r2, #0
10000690:	d00c      	beq.n	100006ac <gpio_set_pulls+0x2c>
10000692:	2204      	movs	r2, #4
10000694:	4313      	orrs	r3, r2
10000696:	6802      	ldr	r2, [r0, #0]
10000698:	4053      	eors	r3, r2
1000069a:	220c      	movs	r2, #12
1000069c:	4013      	ands	r3, r2
1000069e:	2280      	movs	r2, #128	; 0x80
100006a0:	0152      	lsls	r2, r2, #5
100006a2:	4310      	orrs	r0, r2
100006a4:	6003      	str	r3, [r0, #0]
100006a6:	4770      	bx	lr
100006a8:	2300      	movs	r3, #0
100006aa:	e7f0      	b.n	1000068e <gpio_set_pulls+0xe>
100006ac:	2200      	movs	r2, #0
100006ae:	e7f1      	b.n	10000694 <gpio_set_pulls+0x14>
100006b0:	4001c004 	.word	0x4001c004

100006b4 <gpio_set_irq_callback>:
100006b4:	b570      	push	{r4, r5, r6, lr}
100006b6:	0004      	movs	r4, r0
100006b8:	23d0      	movs	r3, #208	; 0xd0
100006ba:	061b      	lsls	r3, r3, #24
100006bc:	681d      	ldr	r5, [r3, #0]
100006be:	00aa      	lsls	r2, r5, #2
100006c0:	4b0c      	ldr	r3, [pc, #48]	; (100006f4 <gpio_set_irq_callback+0x40>)
100006c2:	58d3      	ldr	r3, [r2, r3]
100006c4:	2b00      	cmp	r3, #0
100006c6:	d00a      	beq.n	100006de <gpio_set_irq_callback+0x2a>
100006c8:	2800      	cmp	r0, #0
100006ca:	d003      	beq.n	100006d4 <gpio_set_irq_callback+0x20>
100006cc:	00ad      	lsls	r5, r5, #2
100006ce:	4b09      	ldr	r3, [pc, #36]	; (100006f4 <gpio_set_irq_callback+0x40>)
100006d0:	50ec      	str	r4, [r5, r3]
100006d2:	bd70      	pop	{r4, r5, r6, pc}
100006d4:	4908      	ldr	r1, [pc, #32]	; (100006f8 <gpio_set_irq_callback+0x44>)
100006d6:	200d      	movs	r0, #13
100006d8:	f000 fb38 	bl	10000d4c <irq_remove_handler>
100006dc:	e7f6      	b.n	100006cc <gpio_set_irq_callback+0x18>
100006de:	2800      	cmp	r0, #0
100006e0:	d0f7      	beq.n	100006d2 <gpio_set_irq_callback+0x1e>
100006e2:	00ad      	lsls	r5, r5, #2
100006e4:	4b03      	ldr	r3, [pc, #12]	; (100006f4 <gpio_set_irq_callback+0x40>)
100006e6:	50e8      	str	r0, [r5, r3]
100006e8:	2200      	movs	r2, #0
100006ea:	4903      	ldr	r1, [pc, #12]	; (100006f8 <gpio_set_irq_callback+0x44>)
100006ec:	200d      	movs	r0, #13
100006ee:	f000 fa13 	bl	10000b18 <irq_add_shared_handler>
100006f2:	e7ee      	b.n	100006d2 <gpio_set_irq_callback+0x1e>
100006f4:	20001328 	.word	0x20001328
100006f8:	10000789 	.word	0x10000789

100006fc <gpio_acknowledge_irq>:
100006fc:	2307      	movs	r3, #7
100006fe:	4003      	ands	r3, r0
10000700:	009b      	lsls	r3, r3, #2
10000702:	08c0      	lsrs	r0, r0, #3
10000704:	4099      	lsls	r1, r3
10000706:	303c      	adds	r0, #60	; 0x3c
10000708:	0080      	lsls	r0, r0, #2
1000070a:	4b01      	ldr	r3, [pc, #4]	; (10000710 <gpio_acknowledge_irq+0x14>)
1000070c:	50c1      	str	r1, [r0, r3]
1000070e:	4770      	bx	lr
10000710:	40014000 	.word	0x40014000

10000714 <_gpio_set_irq_enabled>:
10000714:	b5f8      	push	{r3, r4, r5, r6, r7, lr}
10000716:	0007      	movs	r7, r0
10000718:	000c      	movs	r4, r1
1000071a:	0016      	movs	r6, r2
1000071c:	001d      	movs	r5, r3
1000071e:	f7ff ffed 	bl	100006fc <gpio_acknowledge_irq>
10000722:	08fb      	lsrs	r3, r7, #3
10000724:	009b      	lsls	r3, r3, #2
10000726:	18ed      	adds	r5, r5, r3
10000728:	2007      	movs	r0, #7
1000072a:	4038      	ands	r0, r7
1000072c:	0080      	lsls	r0, r0, #2
1000072e:	4084      	lsls	r4, r0
10000730:	2e00      	cmp	r6, #0
10000732:	d004      	beq.n	1000073e <_gpio_set_irq_enabled+0x2a>
10000734:	2380      	movs	r3, #128	; 0x80
10000736:	019b      	lsls	r3, r3, #6
10000738:	431d      	orrs	r5, r3
1000073a:	602c      	str	r4, [r5, #0]
1000073c:	bdf8      	pop	{r3, r4, r5, r6, r7, pc}
1000073e:	23c0      	movs	r3, #192	; 0xc0
10000740:	019b      	lsls	r3, r3, #6
10000742:	431d      	orrs	r5, r3
10000744:	602c      	str	r4, [r5, #0]
10000746:	e7f9      	b.n	1000073c <_gpio_set_irq_enabled+0x28>

10000748 <gpio_set_irq_enabled>:
10000748:	b510      	push	{r4, lr}
1000074a:	23d0      	movs	r3, #208	; 0xd0
1000074c:	061b      	lsls	r3, r3, #24
1000074e:	681b      	ldr	r3, [r3, #0]
10000750:	2b00      	cmp	r3, #0
10000752:	d003      	beq.n	1000075c <gpio_set_irq_enabled+0x14>
10000754:	4b02      	ldr	r3, [pc, #8]	; (10000760 <gpio_set_irq_enabled+0x18>)
10000756:	f7ff ffdd 	bl	10000714 <_gpio_set_irq_enabled>
1000075a:	bd10      	pop	{r4, pc}
1000075c:	4b01      	ldr	r3, [pc, #4]	; (10000764 <gpio_set_irq_enabled+0x1c>)
1000075e:	e7fa      	b.n	10000756 <gpio_set_irq_enabled+0xe>
10000760:	40014130 	.word	0x40014130
10000764:	40014100 	.word	0x40014100

10000768 <gpio_set_irq_enabled_with_callback>:
10000768:	b570      	push	{r4, r5, r6, lr}
1000076a:	0014      	movs	r4, r2
1000076c:	001d      	movs	r5, r3
1000076e:	f7ff ffeb 	bl	10000748 <gpio_set_irq_enabled>
10000772:	0028      	movs	r0, r5
10000774:	f7ff ff9e 	bl	100006b4 <gpio_set_irq_callback>
10000778:	2c00      	cmp	r4, #0
1000077a:	d100      	bne.n	1000077e <gpio_set_irq_enabled_with_callback+0x16>
1000077c:	bd70      	pop	{r4, r5, r6, pc}
1000077e:	2101      	movs	r1, #1
10000780:	200d      	movs	r0, #13
10000782:	f000 f975 	bl	10000a70 <irq_set_enabled>
10000786:	e7f9      	b.n	1000077c <gpio_set_irq_enabled_with_callback+0x14>

10000788 <gpio_default_irq_handler>:
10000788:	b5f0      	push	{r4, r5, r6, r7, lr}
1000078a:	46d6      	mov	lr, sl
1000078c:	464f      	mov	r7, r9
1000078e:	4646      	mov	r6, r8
10000790:	b5c0      	push	{r6, r7, lr}
10000792:	23d0      	movs	r3, #208	; 0xd0
10000794:	061b      	lsls	r3, r3, #24
10000796:	681f      	ldr	r7, [r3, #0]
10000798:	00ba      	lsls	r2, r7, #2
1000079a:	4b1d      	ldr	r3, [pc, #116]	; (10000810 <gpio_default_irq_handler+0x88>)
1000079c:	58d3      	ldr	r3, [r2, r3]
1000079e:	4698      	mov	r8, r3
100007a0:	2f00      	cmp	r7, #0
100007a2:	d003      	beq.n	100007ac <gpio_default_irq_handler+0x24>
100007a4:	4b1b      	ldr	r3, [pc, #108]	; (10000814 <gpio_default_irq_handler+0x8c>)
100007a6:	4699      	mov	r9, r3
100007a8:	2600      	movs	r6, #0
100007aa:	e023      	b.n	100007f4 <gpio_default_irq_handler+0x6c>
100007ac:	4b1a      	ldr	r3, [pc, #104]	; (10000818 <gpio_default_irq_handler+0x90>)
100007ae:	4699      	mov	r9, r3
100007b0:	e7fa      	b.n	100007a8 <gpio_default_irq_handler+0x20>
100007b2:	0924      	lsrs	r4, r4, #4
100007b4:	3501      	adds	r5, #1
100007b6:	2c00      	cmp	r4, #0
100007b8:	d01b      	beq.n	100007f2 <gpio_default_irq_handler+0x6a>
100007ba:	0033      	movs	r3, r6
100007bc:	3308      	adds	r3, #8
100007be:	42ab      	cmp	r3, r5
100007c0:	d917      	bls.n	100007f2 <gpio_default_irq_handler+0x6a>
100007c2:	230f      	movs	r3, #15
100007c4:	001a      	movs	r2, r3
100007c6:	4022      	ands	r2, r4
100007c8:	4692      	mov	sl, r2
100007ca:	4223      	tst	r3, r4
100007cc:	d0f1      	beq.n	100007b2 <gpio_default_irq_handler+0x2a>
100007ce:	00bb      	lsls	r3, r7, #2
100007d0:	4a12      	ldr	r2, [pc, #72]	; (1000081c <gpio_default_irq_handler+0x94>)
100007d2:	589a      	ldr	r2, [r3, r2]
100007d4:	2301      	movs	r3, #1
100007d6:	40ab      	lsls	r3, r5
100007d8:	4213      	tst	r3, r2
100007da:	d1ea      	bne.n	100007b2 <gpio_default_irq_handler+0x2a>
100007dc:	4651      	mov	r1, sl
100007de:	0028      	movs	r0, r5
100007e0:	f7ff ff8c 	bl	100006fc <gpio_acknowledge_irq>
100007e4:	4643      	mov	r3, r8
100007e6:	2b00      	cmp	r3, #0
100007e8:	d0e3      	beq.n	100007b2 <gpio_default_irq_handler+0x2a>
100007ea:	4651      	mov	r1, sl
100007ec:	0028      	movs	r0, r5
100007ee:	47c0      	blx	r8
100007f0:	e7df      	b.n	100007b2 <gpio_default_irq_handler+0x2a>
100007f2:	3608      	adds	r6, #8
100007f4:	2e1d      	cmp	r6, #29
100007f6:	d806      	bhi.n	10000806 <gpio_default_irq_handler+0x7e>
100007f8:	08f3      	lsrs	r3, r6, #3
100007fa:	3308      	adds	r3, #8
100007fc:	009b      	lsls	r3, r3, #2
100007fe:	464a      	mov	r2, r9
10000800:	589c      	ldr	r4, [r3, r2]
10000802:	0035      	movs	r5, r6
10000804:	e7d7      	b.n	100007b6 <gpio_default_irq_handler+0x2e>
10000806:	bce0      	pop	{r5, r6, r7}
10000808:	46ba      	mov	sl, r7
1000080a:	46b1      	mov	r9, r6
1000080c:	46a8      	mov	r8, r5
1000080e:	bdf0      	pop	{r4, r5, r6, r7, pc}
10000810:	20001328 	.word	0x20001328
10000814:	40014130 	.word	0x40014130
10000818:	40014100 	.word	0x40014100
1000081c:	2000180c 	.word	0x2000180c

10000820 <gpio_set_input_enabled>:
10000820:	2900      	cmp	r1, #0
10000822:	d009      	beq.n	10000838 <gpio_set_input_enabled+0x18>
10000824:	0080      	lsls	r0, r0, #2
10000826:	4b09      	ldr	r3, [pc, #36]	; (1000084c <gpio_set_input_enabled+0x2c>)
10000828:	469c      	mov	ip, r3
1000082a:	4460      	add	r0, ip
1000082c:	2380      	movs	r3, #128	; 0x80
1000082e:	019b      	lsls	r3, r3, #6
10000830:	4318      	orrs	r0, r3
10000832:	2340      	movs	r3, #64	; 0x40
10000834:	6003      	str	r3, [r0, #0]
10000836:	4770      	bx	lr
10000838:	0080      	lsls	r0, r0, #2
1000083a:	4b04      	ldr	r3, [pc, #16]	; (1000084c <gpio_set_input_enabled+0x2c>)
1000083c:	469c      	mov	ip, r3
1000083e:	4460      	add	r0, ip
10000840:	23c0      	movs	r3, #192	; 0xc0
10000842:	019b      	lsls	r3, r3, #6
10000844:	4318      	orrs	r0, r3
10000846:	2340      	movs	r3, #64	; 0x40
10000848:	6003      	str	r3, [r0, #0]
1000084a:	e7f4      	b.n	10000836 <gpio_set_input_enabled+0x16>
1000084c:	4001c004 	.word	0x4001c004

10000850 <gpio_init>:
10000850:	b510      	push	{r4, lr}
10000852:	2301      	movs	r3, #1
10000854:	4083      	lsls	r3, r0
10000856:	22d0      	movs	r2, #208	; 0xd0
10000858:	0612      	lsls	r2, r2, #24
1000085a:	6293      	str	r3, [r2, #40]	; 0x28
1000085c:	6193      	str	r3, [r2, #24]
1000085e:	2105      	movs	r1, #5
10000860:	f7ff fef6 	bl	10000650 <gpio_set_function>
10000864:	bd10      	pop	{r4, pc}
	...

10000868 <running_on_fpga>:
10000868:	4b03      	ldr	r3, [pc, #12]	; (10000878 <running_on_fpga+0x10>)
1000086a:	681b      	ldr	r3, [r3, #0]
1000086c:	2002      	movs	r0, #2
1000086e:	4018      	ands	r0, r3
10000870:	1e43      	subs	r3, r0, #1
10000872:	4198      	sbcs	r0, r3
10000874:	b2c0      	uxtb	r0, r0
10000876:	4770      	bx	lr
10000878:	4006c000 	.word	0x4006c000

1000087c <hw_claim_lock>:
1000087c:	f3ef 8010 	mrs	r0, PRIMASK
10000880:	b672      	cpsid	i
10000882:	4b03      	ldr	r3, [pc, #12]	; (10000890 <hw_claim_lock+0x14>)
10000884:	681b      	ldr	r3, [r3, #0]
10000886:	2b00      	cmp	r3, #0
10000888:	d0fb      	beq.n	10000882 <hw_claim_lock+0x6>
1000088a:	f3bf 8f5f 	dmb	sy
1000088e:	4770      	bx	lr
10000890:	d000012c 	.word	0xd000012c

10000894 <hw_claim_unlock>:
10000894:	f3bf 8f5f 	dmb	sy
10000898:	4b02      	ldr	r3, [pc, #8]	; (100008a4 <hw_claim_unlock+0x10>)
1000089a:	2200      	movs	r2, #0
1000089c:	601a      	str	r2, [r3, #0]
1000089e:	f380 8810 	msr	PRIMASK, r0
100008a2:	4770      	bx	lr
100008a4:	d000012c 	.word	0xd000012c

100008a8 <hw_claim_or_assert>:
100008a8:	b5f8      	push	{r3, r4, r5, r6, r7, lr}
100008aa:	0006      	movs	r6, r0
100008ac:	000c      	movs	r4, r1
100008ae:	0015      	movs	r5, r2
100008b0:	f7ff ffe4 	bl	1000087c <hw_claim_lock>
100008b4:	08e3      	lsrs	r3, r4, #3
100008b6:	18f7      	adds	r7, r6, r3
100008b8:	5cf1      	ldrb	r1, [r6, r3]
100008ba:	2207      	movs	r2, #7
100008bc:	4022      	ands	r2, r4
100008be:	2301      	movs	r3, #1
100008c0:	4093      	lsls	r3, r2
100008c2:	420b      	tst	r3, r1
100008c4:	d105      	bne.n	100008d2 <hw_claim_or_assert+0x2a>
100008c6:	b2db      	uxtb	r3, r3
100008c8:	430b      	orrs	r3, r1
100008ca:	703b      	strb	r3, [r7, #0]
100008cc:	f7ff ffe2 	bl	10000894 <hw_claim_unlock>
100008d0:	bdf8      	pop	{r3, r4, r5, r6, r7, pc}
100008d2:	0021      	movs	r1, r4
100008d4:	0028      	movs	r0, r5
100008d6:	f001 fef5 	bl	100026c4 <panic>

100008da <hw_claim_unused_from_range>:
100008da:	b5f0      	push	{r4, r5, r6, r7, lr}
100008dc:	b083      	sub	sp, #12
100008de:	0006      	movs	r6, r0
100008e0:	9101      	str	r1, [sp, #4]
100008e2:	0014      	movs	r4, r2
100008e4:	001f      	movs	r7, r3
100008e6:	f7ff ffc9 	bl	1000087c <hw_claim_lock>
100008ea:	e000      	b.n	100008ee <hw_claim_unused_from_range+0x14>
100008ec:	3401      	adds	r4, #1
100008ee:	42bc      	cmp	r4, r7
100008f0:	d80c      	bhi.n	1000090c <hw_claim_unused_from_range+0x32>
100008f2:	08e3      	lsrs	r3, r4, #3
100008f4:	18f5      	adds	r5, r6, r3
100008f6:	5cf3      	ldrb	r3, [r6, r3]
100008f8:	2107      	movs	r1, #7
100008fa:	4021      	ands	r1, r4
100008fc:	2201      	movs	r2, #1
100008fe:	408a      	lsls	r2, r1
10000900:	421a      	tst	r2, r3
10000902:	d1f3      	bne.n	100008ec <hw_claim_unused_from_range+0x12>
10000904:	b2d2      	uxtb	r2, r2
10000906:	431a      	orrs	r2, r3
10000908:	702a      	strb	r2, [r5, #0]
1000090a:	e001      	b.n	10000910 <hw_claim_unused_from_range+0x36>
1000090c:	2401      	movs	r4, #1
1000090e:	4264      	negs	r4, r4
10000910:	f7ff ffc0 	bl	10000894 <hw_claim_unlock>
10000914:	2c00      	cmp	r4, #0
10000916:	db02      	blt.n	1000091e <hw_claim_unused_from_range+0x44>
10000918:	0020      	movs	r0, r4
1000091a:	b003      	add	sp, #12
1000091c:	bdf0      	pop	{r4, r5, r6, r7, pc}
1000091e:	9b01      	ldr	r3, [sp, #4]
10000920:	2b00      	cmp	r3, #0
10000922:	d0f9      	beq.n	10000918 <hw_claim_unused_from_range+0x3e>
10000924:	9808      	ldr	r0, [sp, #32]
10000926:	f001 fecd 	bl	100026c4 <panic>
	...

1000092c <spin_locks_reset>:
1000092c:	2300      	movs	r3, #0
1000092e:	e007      	b.n	10000940 <spin_locks_reset+0x14>
10000930:	4a05      	ldr	r2, [pc, #20]	; (10000948 <spin_locks_reset+0x1c>)
10000932:	189a      	adds	r2, r3, r2
10000934:	0092      	lsls	r2, r2, #2
10000936:	f3bf 8f5f 	dmb	sy
1000093a:	2100      	movs	r1, #0
1000093c:	6011      	str	r1, [r2, #0]
1000093e:	3301      	adds	r3, #1
10000940:	2b1f      	cmp	r3, #31
10000942:	d9f5      	bls.n	10000930 <spin_locks_reset+0x4>
10000944:	4770      	bx	lr
10000946:	46c0      	nop			; (mov r8, r8)
10000948:	34000040 	.word	0x34000040

1000094c <next_striped_spin_lock_num>:
1000094c:	4a05      	ldr	r2, [pc, #20]	; (10000964 <next_striped_spin_lock_num+0x18>)
1000094e:	7810      	ldrb	r0, [r2, #0]
10000950:	1c43      	adds	r3, r0, #1
10000952:	b2db      	uxtb	r3, r3
10000954:	7013      	strb	r3, [r2, #0]
10000956:	2b17      	cmp	r3, #23
10000958:	d902      	bls.n	10000960 <next_striped_spin_lock_num+0x14>
1000095a:	0013      	movs	r3, r2
1000095c:	2210      	movs	r2, #16
1000095e:	701a      	strb	r2, [r3, #0]
10000960:	4770      	bx	lr
10000962:	46c0      	nop			; (mov r8, r8)
10000964:	20000bb0 	.word	0x20000bb0

10000968 <spin_lock_claim_unused>:
10000968:	b500      	push	{lr}
1000096a:	b083      	sub	sp, #12
1000096c:	0001      	movs	r1, r0
1000096e:	4b04      	ldr	r3, [pc, #16]	; (10000980 <spin_lock_claim_unused+0x18>)
10000970:	9300      	str	r3, [sp, #0]
10000972:	231f      	movs	r3, #31
10000974:	2218      	movs	r2, #24
10000976:	4803      	ldr	r0, [pc, #12]	; (10000984 <spin_lock_claim_unused+0x1c>)
10000978:	f7ff ffaf 	bl	100008da <hw_claim_unused_from_range>
1000097c:	b003      	add	sp, #12
1000097e:	bd00      	pop	{pc}
10000980:	10006c20 	.word	0x10006c20
10000984:	20001338 	.word	0x20001338

10000988 <set_raw_irq_handler_and_unlock>:
10000988:	4b07      	ldr	r3, [pc, #28]	; (100009a8 <set_raw_irq_handler_and_unlock+0x20>)
1000098a:	689b      	ldr	r3, [r3, #8]
1000098c:	3010      	adds	r0, #16
1000098e:	0080      	lsls	r0, r0, #2
10000990:	5019      	str	r1, [r3, r0]
10000992:	f3bf 8f5f 	dmb	sy
10000996:	f3bf 8f5f 	dmb	sy
1000099a:	4b04      	ldr	r3, [pc, #16]	; (100009ac <set_raw_irq_handler_and_unlock+0x24>)
1000099c:	2100      	movs	r1, #0
1000099e:	6019      	str	r1, [r3, #0]
100009a0:	f382 8810 	msr	PRIMASK, r2
100009a4:	4770      	bx	lr
100009a6:	46c0      	nop			; (mov r8, r8)
100009a8:	e000ed00 	.word	0xe000ed00
100009ac:	d0000124 	.word	0xd0000124

100009b0 <make_branch>:
100009b0:	b510      	push	{r4, lr}
100009b2:	1a09      	subs	r1, r1, r0
100009b4:	1f08      	subs	r0, r1, #4
100009b6:	4b0a      	ldr	r3, [pc, #40]	; (100009e0 <make_branch+0x30>)
100009b8:	469c      	mov	ip, r3
100009ba:	4461      	add	r1, ip
100009bc:	4a09      	ldr	r2, [pc, #36]	; (100009e4 <make_branch+0x34>)
100009be:	4291      	cmp	r1, r2
100009c0:	d808      	bhi.n	100009d4 <make_branch+0x24>
100009c2:	07c3      	lsls	r3, r0, #31
100009c4:	d406      	bmi.n	100009d4 <make_branch+0x24>
100009c6:	1040      	asrs	r0, r0, #1
100009c8:	0540      	lsls	r0, r0, #21
100009ca:	0d40      	lsrs	r0, r0, #21
100009cc:	4b06      	ldr	r3, [pc, #24]	; (100009e8 <make_branch+0x38>)
100009ce:	4318      	orrs	r0, r3
100009d0:	b280      	uxth	r0, r0
100009d2:	bd10      	pop	{r4, pc}
100009d4:	4b05      	ldr	r3, [pc, #20]	; (100009ec <make_branch+0x3c>)
100009d6:	4a06      	ldr	r2, [pc, #24]	; (100009f0 <make_branch+0x40>)
100009d8:	21a3      	movs	r1, #163	; 0xa3
100009da:	4806      	ldr	r0, [pc, #24]	; (100009f4 <make_branch+0x44>)
100009dc:	f001 fdd8 	bl	10002590 <__assert_func>
100009e0:	000007fc 	.word	0x000007fc
100009e4:	00000ffe 	.word	0x00000ffe
100009e8:	ffffe000 	.word	0xffffe000
100009ec:	10006c3c 	.word	0x10006c3c
100009f0:	10006ec8 	.word	0x10006ec8
100009f4:	10006c6c 	.word	0x10006c6c

100009f8 <insert_branch_and_link>:
100009f8:	b510      	push	{r4, lr}
100009fa:	1a09      	subs	r1, r1, r0
100009fc:	3904      	subs	r1, #4
100009fe:	084c      	lsrs	r4, r1, #1
10000a00:	0b09      	lsrs	r1, r1, #12
10000a02:	d108      	bne.n	10000a16 <insert_branch_and_link+0x1e>
10000a04:	0549      	lsls	r1, r1, #21
10000a06:	0d49      	lsrs	r1, r1, #21
10000a08:	4a06      	ldr	r2, [pc, #24]	; (10000a24 <insert_branch_and_link+0x2c>)
10000a0a:	4311      	orrs	r1, r2
10000a0c:	8001      	strh	r1, [r0, #0]
10000a0e:	4b06      	ldr	r3, [pc, #24]	; (10000a28 <insert_branch_and_link+0x30>)
10000a10:	4323      	orrs	r3, r4
10000a12:	8043      	strh	r3, [r0, #2]
10000a14:	bd10      	pop	{r4, pc}
10000a16:	4b05      	ldr	r3, [pc, #20]	; (10000a2c <insert_branch_and_link+0x34>)
10000a18:	4a05      	ldr	r2, [pc, #20]	; (10000a30 <insert_branch_and_link+0x38>)
10000a1a:	21ab      	movs	r1, #171	; 0xab
10000a1c:	4805      	ldr	r0, [pc, #20]	; (10000a34 <insert_branch_and_link+0x3c>)
10000a1e:	f001 fdb7 	bl	10002590 <__assert_func>
10000a22:	46c0      	nop			; (mov r8, r8)
10000a24:	fffff000 	.word	0xfffff000
10000a28:	fffff800 	.word	0xfffff800
10000a2c:	10006cc8 	.word	0x10006cc8
10000a30:	10006e9c 	.word	0x10006e9c
10000a34:	10006c6c 	.word	0x10006c6c

10000a38 <irq_is_enabled>:
10000a38:	2301      	movs	r3, #1
10000a3a:	4083      	lsls	r3, r0
10000a3c:	4a03      	ldr	r2, [pc, #12]	; (10000a4c <irq_is_enabled+0x14>)
10000a3e:	6810      	ldr	r0, [r2, #0]
10000a40:	4018      	ands	r0, r3
10000a42:	1e43      	subs	r3, r0, #1
10000a44:	4198      	sbcs	r0, r3
10000a46:	b2c0      	uxtb	r0, r0
10000a48:	4770      	bx	lr
10000a4a:	46c0      	nop			; (mov r8, r8)
10000a4c:	e000e100 	.word	0xe000e100

10000a50 <irq_set_mask_enabled>:
10000a50:	2900      	cmp	r1, #0
10000a52:	d004      	beq.n	10000a5e <irq_set_mask_enabled+0xe>
10000a54:	4b03      	ldr	r3, [pc, #12]	; (10000a64 <irq_set_mask_enabled+0x14>)
10000a56:	6018      	str	r0, [r3, #0]
10000a58:	4b03      	ldr	r3, [pc, #12]	; (10000a68 <irq_set_mask_enabled+0x18>)
10000a5a:	6018      	str	r0, [r3, #0]
10000a5c:	4770      	bx	lr
10000a5e:	4b03      	ldr	r3, [pc, #12]	; (10000a6c <irq_set_mask_enabled+0x1c>)
10000a60:	6018      	str	r0, [r3, #0]
10000a62:	e7fb      	b.n	10000a5c <irq_set_mask_enabled+0xc>
10000a64:	e000e280 	.word	0xe000e280
10000a68:	e000e100 	.word	0xe000e100
10000a6c:	e000e180 	.word	0xe000e180

10000a70 <irq_set_enabled>:
10000a70:	b510      	push	{r4, lr}
10000a72:	2301      	movs	r3, #1
10000a74:	4083      	lsls	r3, r0
10000a76:	0018      	movs	r0, r3
10000a78:	f7ff ffea 	bl	10000a50 <irq_set_mask_enabled>
10000a7c:	bd10      	pop	{r4, pc}
	...

10000a80 <irq_set_pending>:
10000a80:	2301      	movs	r3, #1
10000a82:	4083      	lsls	r3, r0
10000a84:	4a01      	ldr	r2, [pc, #4]	; (10000a8c <irq_set_pending+0xc>)
10000a86:	6013      	str	r3, [r2, #0]
10000a88:	4770      	bx	lr
10000a8a:	46c0      	nop			; (mov r8, r8)
10000a8c:	e000e200 	.word	0xe000e200

10000a90 <irq_get_vtable_handler>:
10000a90:	4b02      	ldr	r3, [pc, #8]	; (10000a9c <irq_get_vtable_handler+0xc>)
10000a92:	689b      	ldr	r3, [r3, #8]
10000a94:	3010      	adds	r0, #16
10000a96:	0080      	lsls	r0, r0, #2
10000a98:	58c0      	ldr	r0, [r0, r3]
10000a9a:	4770      	bx	lr
10000a9c:	e000ed00 	.word	0xe000ed00

10000aa0 <irq_has_shared_handler>:
10000aa0:	b510      	push	{r4, lr}
10000aa2:	f7ff fff5 	bl	10000a90 <irq_get_vtable_handler>
10000aa6:	2800      	cmp	r0, #0
10000aa8:	d005      	beq.n	10000ab6 <irq_has_shared_handler+0x16>
10000aaa:	4b05      	ldr	r3, [pc, #20]	; (10000ac0 <irq_has_shared_handler+0x20>)
10000aac:	1ac0      	subs	r0, r0, r3
10000aae:	282f      	cmp	r0, #47	; 0x2f
10000ab0:	d803      	bhi.n	10000aba <irq_has_shared_handler+0x1a>
10000ab2:	2001      	movs	r0, #1
10000ab4:	bd10      	pop	{r4, pc}
10000ab6:	2000      	movs	r0, #0
10000ab8:	e7fc      	b.n	10000ab4 <irq_has_shared_handler+0x14>
10000aba:	2000      	movs	r0, #0
10000abc:	e7fa      	b.n	10000ab4 <irq_has_shared_handler+0x14>
10000abe:	46c0      	nop			; (mov r8, r8)
10000ac0:	20000bb4 	.word	0x20000bb4

10000ac4 <irq_set_exclusive_handler>:
10000ac4:	b570      	push	{r4, r5, r6, lr}
10000ac6:	0004      	movs	r4, r0
10000ac8:	000d      	movs	r5, r1
10000aca:	f3ef 8610 	mrs	r6, PRIMASK
10000ace:	b672      	cpsid	i
10000ad0:	4b0c      	ldr	r3, [pc, #48]	; (10000b04 <irq_set_exclusive_handler+0x40>)
10000ad2:	681b      	ldr	r3, [r3, #0]
10000ad4:	2b00      	cmp	r3, #0
10000ad6:	d0fb      	beq.n	10000ad0 <irq_set_exclusive_handler+0xc>
10000ad8:	f3bf 8f5f 	dmb	sy
10000adc:	0020      	movs	r0, r4
10000ade:	f7ff ffd7 	bl	10000a90 <irq_get_vtable_handler>
10000ae2:	4b09      	ldr	r3, [pc, #36]	; (10000b08 <irq_set_exclusive_handler+0x44>)
10000ae4:	4298      	cmp	r0, r3
10000ae6:	d001      	beq.n	10000aec <irq_set_exclusive_handler+0x28>
10000ae8:	42a8      	cmp	r0, r5
10000aea:	d105      	bne.n	10000af8 <irq_set_exclusive_handler+0x34>
10000aec:	0032      	movs	r2, r6
10000aee:	0029      	movs	r1, r5
10000af0:	0020      	movs	r0, r4
10000af2:	f7ff ff49 	bl	10000988 <set_raw_irq_handler_and_unlock>
10000af6:	bd70      	pop	{r4, r5, r6, pc}
10000af8:	4b04      	ldr	r3, [pc, #16]	; (10000b0c <irq_set_exclusive_handler+0x48>)
10000afa:	4a05      	ldr	r2, [pc, #20]	; (10000b10 <irq_set_exclusive_handler+0x4c>)
10000afc:	2186      	movs	r1, #134	; 0x86
10000afe:	4805      	ldr	r0, [pc, #20]	; (10000b14 <irq_set_exclusive_handler+0x50>)
10000b00:	f001 fd46 	bl	10002590 <__assert_func>
10000b04:	d0000124 	.word	0xd0000124
10000b08:	100001cd 	.word	0x100001cd
10000b0c:	10006cd8 	.word	0x10006cd8
10000b10:	10006efc 	.word	0x10006efc
10000b14:	10006c6c 	.word	0x10006c6c

10000b18 <irq_add_shared_handler>:
10000b18:	b5f0      	push	{r4, r5, r6, r7, lr}
10000b1a:	46de      	mov	lr, fp
10000b1c:	4657      	mov	r7, sl
10000b1e:	464e      	mov	r6, r9
10000b20:	4645      	mov	r5, r8
10000b22:	b5e0      	push	{r5, r6, r7, lr}
10000b24:	b089      	sub	sp, #36	; 0x24
10000b26:	4681      	mov	r9, r0
10000b28:	9101      	str	r1, [sp, #4]
10000b2a:	0015      	movs	r5, r2
10000b2c:	f3ef 8a10 	mrs	sl, PRIMASK
10000b30:	b672      	cpsid	i
10000b32:	4b74      	ldr	r3, [pc, #464]	; (10000d04 <irq_add_shared_handler+0x1ec>)
10000b34:	681b      	ldr	r3, [r3, #0]
10000b36:	2b00      	cmp	r3, #0
10000b38:	d0fb      	beq.n	10000b32 <irq_add_shared_handler+0x1a>
10000b3a:	f3bf 8f5f 	dmb	sy
10000b3e:	4b72      	ldr	r3, [pc, #456]	; (10000d08 <irq_add_shared_handler+0x1f0>)
10000b40:	2700      	movs	r7, #0
10000b42:	57df      	ldrsb	r7, [r3, r7]
10000b44:	2f00      	cmp	r7, #0
10000b46:	db40      	blt.n	10000bca <irq_add_shared_handler+0xb2>
10000b48:	007c      	lsls	r4, r7, #1
10000b4a:	19e4      	adds	r4, r4, r7
10000b4c:	00a4      	lsls	r4, r4, #2
10000b4e:	486f      	ldr	r0, [pc, #444]	; (10000d0c <irq_add_shared_handler+0x1f4>)
10000b50:	1824      	adds	r4, r4, r0
10000b52:	2206      	movs	r2, #6
10000b54:	56a2      	ldrsb	r2, [r4, r2]
10000b56:	4b6c      	ldr	r3, [pc, #432]	; (10000d08 <irq_add_shared_handler+0x1f0>)
10000b58:	701a      	strb	r2, [r3, #0]
10000b5a:	4b6d      	ldr	r3, [pc, #436]	; (10000d10 <irq_add_shared_handler+0x1f8>)
10000b5c:	689a      	ldr	r2, [r3, #8]
10000b5e:	464b      	mov	r3, r9
10000b60:	3310      	adds	r3, #16
10000b62:	009b      	lsls	r3, r3, #2
10000b64:	58d3      	ldr	r3, [r2, r3]
10000b66:	4698      	mov	r8, r3
10000b68:	001e      	movs	r6, r3
10000b6a:	1a1b      	subs	r3, r3, r0
10000b6c:	2b2f      	cmp	r3, #47	; 0x2f
10000b6e:	d938      	bls.n	10000be2 <irq_add_shared_handler+0xca>
10000b70:	4b68      	ldr	r3, [pc, #416]	; (10000d14 <irq_add_shared_handler+0x1fc>)
10000b72:	4598      	cmp	r8, r3
10000b74:	d12f      	bne.n	10000bd6 <irq_add_shared_handler+0xbe>
10000b76:	ae05      	add	r6, sp, #20
10000b78:	4b67      	ldr	r3, [pc, #412]	; (10000d18 <irq_add_shared_handler+0x200>)
10000b7a:	8033      	strh	r3, [r6, #0]
10000b7c:	007b      	lsls	r3, r7, #1
10000b7e:	469b      	mov	fp, r3
10000b80:	19d8      	adds	r0, r3, r7
10000b82:	0080      	lsls	r0, r0, #2
10000b84:	4b61      	ldr	r3, [pc, #388]	; (10000d0c <irq_add_shared_handler+0x1f4>)
10000b86:	4698      	mov	r8, r3
10000b88:	4440      	add	r0, r8
10000b8a:	3002      	adds	r0, #2
10000b8c:	4963      	ldr	r1, [pc, #396]	; (10000d1c <irq_add_shared_handler+0x204>)
10000b8e:	f7ff ff0f 	bl	100009b0 <make_branch>
10000b92:	8070      	strh	r0, [r6, #2]
10000b94:	4b62      	ldr	r3, [pc, #392]	; (10000d20 <irq_add_shared_handler+0x208>)
10000b96:	80b3      	strh	r3, [r6, #4]
10000b98:	23ff      	movs	r3, #255	; 0xff
10000b9a:	71b3      	strb	r3, [r6, #6]
10000b9c:	71f5      	strb	r5, [r6, #7]
10000b9e:	9b01      	ldr	r3, [sp, #4]
10000ba0:	9307      	str	r3, [sp, #28]
10000ba2:	445f      	add	r7, fp
10000ba4:	00bf      	lsls	r7, r7, #2
10000ba6:	4447      	add	r7, r8
10000ba8:	ce0e      	ldmia	r6!, {r1, r2, r3}
10000baa:	c70e      	stmia	r7!, {r1, r2, r3}
10000bac:	2301      	movs	r3, #1
10000bae:	431c      	orrs	r4, r3
10000bb0:	46a0      	mov	r8, r4
10000bb2:	4652      	mov	r2, sl
10000bb4:	4641      	mov	r1, r8
10000bb6:	4648      	mov	r0, r9
10000bb8:	f7ff fee6 	bl	10000988 <set_raw_irq_handler_and_unlock>
10000bbc:	b009      	add	sp, #36	; 0x24
10000bbe:	bcf0      	pop	{r4, r5, r6, r7}
10000bc0:	46bb      	mov	fp, r7
10000bc2:	46b2      	mov	sl, r6
10000bc4:	46a9      	mov	r9, r5
10000bc6:	46a0      	mov	r8, r4
10000bc8:	bdf0      	pop	{r4, r5, r6, r7, pc}
10000bca:	4b56      	ldr	r3, [pc, #344]	; (10000d24 <irq_add_shared_handler+0x20c>)
10000bcc:	4a56      	ldr	r2, [pc, #344]	; (10000d28 <irq_add_shared_handler+0x210>)
10000bce:	21d7      	movs	r1, #215	; 0xd7
10000bd0:	4856      	ldr	r0, [pc, #344]	; (10000d2c <irq_add_shared_handler+0x214>)
10000bd2:	f001 fcdd 	bl	10002590 <__assert_func>
10000bd6:	4b56      	ldr	r3, [pc, #344]	; (10000d30 <irq_add_shared_handler+0x218>)
10000bd8:	4a53      	ldr	r2, [pc, #332]	; (10000d28 <irq_add_shared_handler+0x210>)
10000bda:	21de      	movs	r1, #222	; 0xde
10000bdc:	4853      	ldr	r0, [pc, #332]	; (10000d2c <irq_add_shared_handler+0x214>)
10000bde:	f001 fcd7 	bl	10002590 <__assert_func>
10000be2:	43c0      	mvns	r0, r0
10000be4:	4440      	add	r0, r8
10000be6:	210c      	movs	r1, #12
10000be8:	f002 fe80 	bl	100038ec <__wrap___aeabi_uidiv>
10000bec:	2900      	cmp	r1, #0
10000bee:	d112      	bne.n	10000c16 <irq_add_shared_handler+0xfe>
10000bf0:	2301      	movs	r3, #1
10000bf2:	439e      	bics	r6, r3
10000bf4:	46b3      	mov	fp, r6
10000bf6:	0033      	movs	r3, r6
10000bf8:	2600      	movs	r6, #0
10000bfa:	79da      	ldrb	r2, [r3, #7]
10000bfc:	42aa      	cmp	r2, r5
10000bfe:	d911      	bls.n	10000c24 <irq_add_shared_handler+0x10c>
10000c00:	2106      	movs	r1, #6
10000c02:	5659      	ldrsb	r1, [r3, r1]
10000c04:	2900      	cmp	r1, #0
10000c06:	db0c      	blt.n	10000c22 <irq_add_shared_handler+0x10a>
10000c08:	004a      	lsls	r2, r1, #1
10000c0a:	1852      	adds	r2, r2, r1
10000c0c:	0092      	lsls	r2, r2, #2
10000c0e:	001e      	movs	r6, r3
10000c10:	4b3e      	ldr	r3, [pc, #248]	; (10000d0c <irq_add_shared_handler+0x1f4>)
10000c12:	189b      	adds	r3, r3, r2
10000c14:	e7f1      	b.n	10000bfa <irq_add_shared_handler+0xe2>
10000c16:	4b47      	ldr	r3, [pc, #284]	; (10000d34 <irq_add_shared_handler+0x21c>)
10000c18:	4a43      	ldr	r2, [pc, #268]	; (10000d28 <irq_add_shared_handler+0x210>)
10000c1a:	21ea      	movs	r1, #234	; 0xea
10000c1c:	4843      	ldr	r0, [pc, #268]	; (10000d2c <irq_add_shared_handler+0x214>)
10000c1e:	f001 fcb7 	bl	10002590 <__assert_func>
10000c22:	001e      	movs	r6, r3
10000c24:	2e00      	cmp	r6, #0
10000c26:	d03a      	beq.n	10000c9e <irq_add_shared_handler+0x186>
10000c28:	ab05      	add	r3, sp, #20
10000c2a:	4a43      	ldr	r2, [pc, #268]	; (10000d38 <irq_add_shared_handler+0x220>)
10000c2c:	801a      	strh	r2, [r3, #0]
10000c2e:	3a81      	subs	r2, #129	; 0x81
10000c30:	805a      	strh	r2, [r3, #2]
10000c32:	2306      	movs	r3, #6
10000c34:	56f3      	ldrsb	r3, [r6, r3]
10000c36:	9302      	str	r3, [sp, #8]
10000c38:	2b00      	cmp	r3, #0
10000c3a:	da17      	bge.n	10000c6c <irq_add_shared_handler+0x154>
10000c3c:	483f      	ldr	r0, [pc, #252]	; (10000d3c <irq_add_shared_handler+0x224>)
10000c3e:	ab05      	add	r3, sp, #20
10000c40:	469b      	mov	fp, r3
10000c42:	8098      	strh	r0, [r3, #4]
10000c44:	9a02      	ldr	r2, [sp, #8]
10000c46:	719a      	strb	r2, [r3, #6]
10000c48:	71dd      	strb	r5, [r3, #7]
10000c4a:	9a01      	ldr	r2, [sp, #4]
10000c4c:	9207      	str	r2, [sp, #28]
10000c4e:	1d30      	adds	r0, r6, #4
10000c50:	0021      	movs	r1, r4
10000c52:	f7ff fead 	bl	100009b0 <make_branch>
10000c56:	80b0      	strh	r0, [r6, #4]
10000c58:	71b7      	strb	r7, [r6, #6]
10000c5a:	007b      	lsls	r3, r7, #1
10000c5c:	19db      	adds	r3, r3, r7
10000c5e:	009b      	lsls	r3, r3, #2
10000c60:	4f2a      	ldr	r7, [pc, #168]	; (10000d0c <irq_add_shared_handler+0x1f4>)
10000c62:	18ff      	adds	r7, r7, r3
10000c64:	465b      	mov	r3, fp
10000c66:	cb07      	ldmia	r3!, {r0, r1, r2}
10000c68:	c707      	stmia	r7!, {r0, r1, r2}
10000c6a:	e7a2      	b.n	10000bb2 <irq_add_shared_handler+0x9a>
10000c6c:	0078      	lsls	r0, r7, #1
10000c6e:	19c0      	adds	r0, r0, r7
10000c70:	0080      	lsls	r0, r0, #2
10000c72:	4b26      	ldr	r3, [pc, #152]	; (10000d0c <irq_add_shared_handler+0x1f4>)
10000c74:	18c0      	adds	r0, r0, r3
10000c76:	3004      	adds	r0, #4
10000c78:	1d32      	adds	r2, r6, #4
10000c7a:	88b3      	ldrh	r3, [r6, #4]
10000c7c:	0ad9      	lsrs	r1, r3, #11
10000c7e:	291c      	cmp	r1, #28
10000c80:	d107      	bne.n	10000c92 <irq_add_shared_handler+0x17a>
10000c82:	055b      	lsls	r3, r3, #21
10000c84:	1559      	asrs	r1, r3, #21
10000c86:	3102      	adds	r1, #2
10000c88:	0049      	lsls	r1, r1, #1
10000c8a:	1851      	adds	r1, r2, r1
10000c8c:	f7ff fe90 	bl	100009b0 <make_branch>
10000c90:	e7d5      	b.n	10000c3e <irq_add_shared_handler+0x126>
10000c92:	4b2b      	ldr	r3, [pc, #172]	; (10000d40 <irq_add_shared_handler+0x228>)
10000c94:	4a2b      	ldr	r2, [pc, #172]	; (10000d44 <irq_add_shared_handler+0x22c>)
10000c96:	21b1      	movs	r1, #177	; 0xb1
10000c98:	4824      	ldr	r0, [pc, #144]	; (10000d2c <irq_add_shared_handler+0x214>)
10000c9a:	f001 fc79 	bl	10002590 <__assert_func>
10000c9e:	ae05      	add	r6, sp, #20
10000ca0:	4b1d      	ldr	r3, [pc, #116]	; (10000d18 <irq_add_shared_handler+0x200>)
10000ca2:	8033      	strh	r3, [r6, #0]
10000ca4:	007b      	lsls	r3, r7, #1
10000ca6:	9302      	str	r3, [sp, #8]
10000ca8:	19d8      	adds	r0, r3, r7
10000caa:	0080      	lsls	r0, r0, #2
10000cac:	4a17      	ldr	r2, [pc, #92]	; (10000d0c <irq_add_shared_handler+0x1f4>)
10000cae:	4690      	mov	r8, r2
10000cb0:	0002      	movs	r2, r0
10000cb2:	4442      	add	r2, r8
10000cb4:	9203      	str	r2, [sp, #12]
10000cb6:	1c90      	adds	r0, r2, #2
10000cb8:	4918      	ldr	r1, [pc, #96]	; (10000d1c <irq_add_shared_handler+0x204>)
10000cba:	f7ff fe79 	bl	100009b0 <make_branch>
10000cbe:	8070      	strh	r0, [r6, #2]
10000cc0:	9a03      	ldr	r2, [sp, #12]
10000cc2:	1d10      	adds	r0, r2, #4
10000cc4:	4659      	mov	r1, fp
10000cc6:	f7ff fe73 	bl	100009b0 <make_branch>
10000cca:	80b0      	strh	r0, [r6, #4]
10000ccc:	4b1e      	ldr	r3, [pc, #120]	; (10000d48 <irq_add_shared_handler+0x230>)
10000cce:	465a      	mov	r2, fp
10000cd0:	4641      	mov	r1, r8
10000cd2:	1a52      	subs	r2, r2, r1
10000cd4:	4152      	adcs	r2, r2
10000cd6:	4353      	muls	r3, r2
10000cd8:	0d1b      	lsrs	r3, r3, #20
10000cda:	71b3      	strb	r3, [r6, #6]
10000cdc:	71f5      	strb	r5, [r6, #7]
10000cde:	9a01      	ldr	r2, [sp, #4]
10000ce0:	9207      	str	r2, [sp, #28]
10000ce2:	9b02      	ldr	r3, [sp, #8]
10000ce4:	469c      	mov	ip, r3
10000ce6:	4467      	add	r7, ip
10000ce8:	00bf      	lsls	r7, r7, #2
10000cea:	4447      	add	r7, r8
10000cec:	ce0e      	ldmia	r6!, {r1, r2, r3}
10000cee:	c70e      	stmia	r7!, {r1, r2, r3}
10000cf0:	4b11      	ldr	r3, [pc, #68]	; (10000d38 <irq_add_shared_handler+0x220>)
10000cf2:	465a      	mov	r2, fp
10000cf4:	8013      	strh	r3, [r2, #0]
10000cf6:	3b81      	subs	r3, #129	; 0x81
10000cf8:	8053      	strh	r3, [r2, #2]
10000cfa:	2301      	movs	r3, #1
10000cfc:	431c      	orrs	r4, r3
10000cfe:	46a0      	mov	r8, r4
10000d00:	e757      	b.n	10000bb2 <irq_add_shared_handler+0x9a>
10000d02:	46c0      	nop			; (mov r8, r8)
10000d04:	d0000124 	.word	0xd0000124
10000d08:	20001a51 	.word	0x20001a51
10000d0c:	20000bb4 	.word	0x20000bb4
10000d10:	e000ed00 	.word	0xe000ed00
10000d14:	100001cd 	.word	0x100001cd
10000d18:	ffffa100 	.word	0xffffa100
10000d1c:	20000be4 	.word	0x20000be4
10000d20:	ffffbd01 	.word	0xffffbd01
10000d24:	10006d10 	.word	0x10006d10
10000d28:	10006ee4 	.word	0x10006ee4
10000d2c:	10006c6c 	.word	0x10006c6c
10000d30:	10006d38 	.word	0x10006d38
10000d34:	10006d60 	.word	0x10006d60
10000d38:	00004801 	.word	0x00004801
10000d3c:	0000bd01 	.word	0x0000bd01
10000d40:	10006dd4 	.word	0x10006dd4
10000d44:	10006ed4 	.word	0x10006ed4
10000d48:	0000aaaa 	.word	0x0000aaaa

10000d4c <irq_remove_handler>:
10000d4c:	b5f0      	push	{r4, r5, r6, r7, lr}
10000d4e:	46ce      	mov	lr, r9
10000d50:	4647      	mov	r7, r8
10000d52:	b580      	push	{r7, lr}
10000d54:	b083      	sub	sp, #12
10000d56:	0006      	movs	r6, r0
10000d58:	000d      	movs	r5, r1
10000d5a:	f3ef 8810 	mrs	r8, PRIMASK
10000d5e:	b672      	cpsid	i
10000d60:	4b56      	ldr	r3, [pc, #344]	; (10000ebc <irq_remove_handler+0x170>)
10000d62:	681b      	ldr	r3, [r3, #0]
10000d64:	2b00      	cmp	r3, #0
10000d66:	d0fb      	beq.n	10000d60 <irq_remove_handler+0x14>
10000d68:	f3bf 8f5f 	dmb	sy
10000d6c:	4b54      	ldr	r3, [pc, #336]	; (10000ec0 <irq_remove_handler+0x174>)
10000d6e:	689a      	ldr	r2, [r3, #8]
10000d70:	0034      	movs	r4, r6
10000d72:	3410      	adds	r4, #16
10000d74:	00a3      	lsls	r3, r4, #2
10000d76:	58d7      	ldr	r7, [r2, r3]
10000d78:	4b52      	ldr	r3, [pc, #328]	; (10000ec4 <irq_remove_handler+0x178>)
10000d7a:	429f      	cmp	r7, r3
10000d7c:	d007      	beq.n	10000d8e <irq_remove_handler+0x42>
10000d7e:	42af      	cmp	r7, r5
10000d80:	d100      	bne.n	10000d84 <irq_remove_handler+0x38>
10000d82:	e098      	b.n	10000eb6 <irq_remove_handler+0x16a>
10000d84:	9701      	str	r7, [sp, #4]
10000d86:	4b50      	ldr	r3, [pc, #320]	; (10000ec8 <irq_remove_handler+0x17c>)
10000d88:	1afb      	subs	r3, r7, r3
10000d8a:	2b2f      	cmp	r3, #47	; 0x2f
10000d8c:	d909      	bls.n	10000da2 <irq_remove_handler+0x56>
10000d8e:	4642      	mov	r2, r8
10000d90:	0039      	movs	r1, r7
10000d92:	0030      	movs	r0, r6
10000d94:	f7ff fdf8 	bl	10000988 <set_raw_irq_handler_and_unlock>
10000d98:	b003      	add	sp, #12
10000d9a:	bcc0      	pop	{r6, r7}
10000d9c:	46b9      	mov	r9, r7
10000d9e:	46b0      	mov	r8, r6
10000da0:	bdf0      	pop	{r4, r5, r6, r7, pc}
10000da2:	0030      	movs	r0, r6
10000da4:	f7ff fe48 	bl	10000a38 <irq_is_enabled>
10000da8:	4681      	mov	r9, r0
10000daa:	2100      	movs	r1, #0
10000dac:	0030      	movs	r0, r6
10000dae:	f7ff fe5f 	bl	10000a70 <irq_set_enabled>
10000db2:	f3bf 8f5f 	dmb	sy
10000db6:	f3ef 8105 	mrs	r1, IPSR
10000dba:	2900      	cmp	r1, #0
10000dbc:	d001      	beq.n	10000dc2 <irq_remove_handler+0x76>
10000dbe:	428c      	cmp	r4, r1
10000dc0:	d111      	bne.n	10000de6 <irq_remove_handler+0x9a>
10000dc2:	2301      	movs	r3, #1
10000dc4:	9c01      	ldr	r4, [sp, #4]
10000dc6:	439c      	bics	r4, r3
10000dc8:	2200      	movs	r2, #0
10000dca:	68a3      	ldr	r3, [r4, #8]
10000dcc:	42ab      	cmp	r3, r5
10000dce:	d012      	beq.n	10000df6 <irq_remove_handler+0xaa>
10000dd0:	2206      	movs	r2, #6
10000dd2:	56a2      	ldrsb	r2, [r4, r2]
10000dd4:	2a00      	cmp	r2, #0
10000dd6:	db0d      	blt.n	10000df4 <irq_remove_handler+0xa8>
10000dd8:	0053      	lsls	r3, r2, #1
10000dda:	189b      	adds	r3, r3, r2
10000ddc:	009b      	lsls	r3, r3, #2
10000dde:	0022      	movs	r2, r4
10000de0:	4c39      	ldr	r4, [pc, #228]	; (10000ec8 <irq_remove_handler+0x17c>)
10000de2:	18e4      	adds	r4, r4, r3
10000de4:	e7f1      	b.n	10000dca <irq_remove_handler+0x7e>
10000de6:	2136      	movs	r1, #54	; 0x36
10000de8:	4b38      	ldr	r3, [pc, #224]	; (10000ecc <irq_remove_handler+0x180>)
10000dea:	4a39      	ldr	r2, [pc, #228]	; (10000ed0 <irq_remove_handler+0x184>)
10000dec:	31ff      	adds	r1, #255	; 0xff
10000dee:	4839      	ldr	r0, [pc, #228]	; (10000ed4 <irq_remove_handler+0x188>)
10000df0:	f001 fbce 	bl	10002590 <__assert_func>
10000df4:	0022      	movs	r2, r4
10000df6:	42ab      	cmp	r3, r5
10000df8:	d156      	bne.n	10000ea8 <irq_remove_handler+0x15c>
10000dfa:	2506      	movs	r5, #6
10000dfc:	5765      	ldrsb	r5, [r4, r5]
10000dfe:	2d00      	cmp	r5, #0
10000e00:	db38      	blt.n	10000e74 <irq_remove_handler+0x128>
10000e02:	006b      	lsls	r3, r5, #1
10000e04:	195b      	adds	r3, r3, r5
10000e06:	009a      	lsls	r2, r3, #2
10000e08:	4b2f      	ldr	r3, [pc, #188]	; (10000ec8 <irq_remove_handler+0x17c>)
10000e0a:	189b      	adds	r3, r3, r2
10000e0c:	689a      	ldr	r2, [r3, #8]
10000e0e:	60a2      	str	r2, [r4, #8]
10000e10:	79da      	ldrb	r2, [r3, #7]
10000e12:	71e2      	strb	r2, [r4, #7]
10000e14:	2206      	movs	r2, #6
10000e16:	569a      	ldrsb	r2, [r3, r2]
10000e18:	71a2      	strb	r2, [r4, #6]
10000e1a:	799b      	ldrb	r3, [r3, #6]
10000e1c:	b25b      	sxtb	r3, r3
10000e1e:	2b00      	cmp	r3, #0
10000e20:	da0f      	bge.n	10000e42 <irq_remove_handler+0xf6>
10000e22:	482d      	ldr	r0, [pc, #180]	; (10000ed8 <irq_remove_handler+0x18c>)
10000e24:	80a0      	strh	r0, [r4, #4]
10000e26:	006b      	lsls	r3, r5, #1
10000e28:	195b      	adds	r3, r3, r5
10000e2a:	009b      	lsls	r3, r3, #2
10000e2c:	4a26      	ldr	r2, [pc, #152]	; (10000ec8 <irq_remove_handler+0x17c>)
10000e2e:	18d3      	adds	r3, r2, r3
10000e30:	4a2a      	ldr	r2, [pc, #168]	; (10000edc <irq_remove_handler+0x190>)
10000e32:	7811      	ldrb	r1, [r2, #0]
10000e34:	7199      	strb	r1, [r3, #6]
10000e36:	7015      	strb	r5, [r2, #0]
10000e38:	4649      	mov	r1, r9
10000e3a:	0030      	movs	r0, r6
10000e3c:	f7ff fe18 	bl	10000a70 <irq_set_enabled>
10000e40:	e7a5      	b.n	10000d8e <irq_remove_handler+0x42>
10000e42:	1d20      	adds	r0, r4, #4
10000e44:	006b      	lsls	r3, r5, #1
10000e46:	195b      	adds	r3, r3, r5
10000e48:	009b      	lsls	r3, r3, #2
10000e4a:	4a1f      	ldr	r2, [pc, #124]	; (10000ec8 <irq_remove_handler+0x17c>)
10000e4c:	189b      	adds	r3, r3, r2
10000e4e:	1d1a      	adds	r2, r3, #4
10000e50:	889b      	ldrh	r3, [r3, #4]
10000e52:	0ad9      	lsrs	r1, r3, #11
10000e54:	291c      	cmp	r1, #28
10000e56:	d107      	bne.n	10000e68 <irq_remove_handler+0x11c>
10000e58:	055b      	lsls	r3, r3, #21
10000e5a:	155b      	asrs	r3, r3, #21
10000e5c:	3302      	adds	r3, #2
10000e5e:	0059      	lsls	r1, r3, #1
10000e60:	1851      	adds	r1, r2, r1
10000e62:	f7ff fda5 	bl	100009b0 <make_branch>
10000e66:	e7dd      	b.n	10000e24 <irq_remove_handler+0xd8>
10000e68:	4b1d      	ldr	r3, [pc, #116]	; (10000ee0 <irq_remove_handler+0x194>)
10000e6a:	4a1e      	ldr	r2, [pc, #120]	; (10000ee4 <irq_remove_handler+0x198>)
10000e6c:	21b1      	movs	r1, #177	; 0xb1
10000e6e:	4819      	ldr	r0, [pc, #100]	; (10000ed4 <irq_remove_handler+0x188>)
10000e70:	f001 fb8e 	bl	10002590 <__assert_func>
10000e74:	2900      	cmp	r1, #0
10000e76:	d112      	bne.n	10000e9e <irq_remove_handler+0x152>
10000e78:	2a00      	cmp	r2, #0
10000e7a:	d00e      	beq.n	10000e9a <irq_remove_handler+0x14e>
10000e7c:	23ff      	movs	r3, #255	; 0xff
10000e7e:	7193      	strb	r3, [r2, #6]
10000e80:	4b19      	ldr	r3, [pc, #100]	; (10000ee8 <irq_remove_handler+0x19c>)
10000e82:	8093      	strh	r3, [r2, #4]
10000e84:	4a15      	ldr	r2, [pc, #84]	; (10000edc <irq_remove_handler+0x190>)
10000e86:	7813      	ldrb	r3, [r2, #0]
10000e88:	71a3      	strb	r3, [r4, #6]
10000e8a:	4b18      	ldr	r3, [pc, #96]	; (10000eec <irq_remove_handler+0x1a0>)
10000e8c:	490e      	ldr	r1, [pc, #56]	; (10000ec8 <irq_remove_handler+0x17c>)
10000e8e:	1a64      	subs	r4, r4, r1
10000e90:	4164      	adcs	r4, r4
10000e92:	4363      	muls	r3, r4
10000e94:	0d1b      	lsrs	r3, r3, #20
10000e96:	7013      	strb	r3, [r2, #0]
10000e98:	e7ce      	b.n	10000e38 <irq_remove_handler+0xec>
10000e9a:	4f0a      	ldr	r7, [pc, #40]	; (10000ec4 <irq_remove_handler+0x178>)
10000e9c:	e7f2      	b.n	10000e84 <irq_remove_handler+0x138>
10000e9e:	1d20      	adds	r0, r4, #4
10000ea0:	4913      	ldr	r1, [pc, #76]	; (10000ef0 <irq_remove_handler+0x1a4>)
10000ea2:	f7ff fda9 	bl	100009f8 <insert_branch_and_link>
10000ea6:	e7c7      	b.n	10000e38 <irq_remove_handler+0xec>
10000ea8:	216a      	movs	r1, #106	; 0x6a
10000eaa:	4b12      	ldr	r3, [pc, #72]	; (10000ef4 <irq_remove_handler+0x1a8>)
10000eac:	4a08      	ldr	r2, [pc, #32]	; (10000ed0 <irq_remove_handler+0x184>)
10000eae:	31ff      	adds	r1, #255	; 0xff
10000eb0:	4808      	ldr	r0, [pc, #32]	; (10000ed4 <irq_remove_handler+0x188>)
10000eb2:	f001 fb6d 	bl	10002590 <__assert_func>
10000eb6:	4f03      	ldr	r7, [pc, #12]	; (10000ec4 <irq_remove_handler+0x178>)
10000eb8:	e769      	b.n	10000d8e <irq_remove_handler+0x42>
10000eba:	46c0      	nop			; (mov r8, r8)
10000ebc:	d0000124 	.word	0xd0000124
10000ec0:	e000ed00 	.word	0xe000ed00
10000ec4:	100001cd 	.word	0x100001cd
10000ec8:	20000bb4 	.word	0x20000bb4
10000ecc:	10006dec 	.word	0x10006dec
10000ed0:	10006eb4 	.word	0x10006eb4
10000ed4:	10006c6c 	.word	0x10006c6c
10000ed8:	0000bd01 	.word	0x0000bd01
10000edc:	20001a51 	.word	0x20001a51
10000ee0:	10006dd4 	.word	0x10006dd4
10000ee4:	10006ed4 	.word	0x10006ed4
10000ee8:	ffffbd01 	.word	0xffffbd01
10000eec:	0000aaaa 	.word	0x0000aaaa
10000ef0:	20000bee 	.word	0x20000bee
10000ef4:	10006e20 	.word	0x10006e20

10000ef8 <irq_add_tail_to_free_list>:
10000ef8:	b570      	push	{r4, r5, r6, lr}
10000efa:	2101      	movs	r1, #1
10000efc:	4301      	orrs	r1, r0
10000efe:	4b2e      	ldr	r3, [pc, #184]	; (10000fb8 <irq_add_tail_to_free_list+0xc0>)
10000f00:	1acb      	subs	r3, r1, r3
10000f02:	2b2f      	cmp	r3, #47	; 0x2f
10000f04:	d828      	bhi.n	10000f58 <irq_add_tail_to_free_list+0x60>
10000f06:	f3ef 8305 	mrs	r3, IPSR
10000f0a:	2b00      	cmp	r3, #0
10000f0c:	d02b      	beq.n	10000f66 <irq_add_tail_to_free_list+0x6e>
10000f0e:	f3ef 8c10 	mrs	ip, PRIMASK
10000f12:	b672      	cpsid	i
10000f14:	4a29      	ldr	r2, [pc, #164]	; (10000fbc <irq_add_tail_to_free_list+0xc4>)
10000f16:	6812      	ldr	r2, [r2, #0]
10000f18:	2a00      	cmp	r2, #0
10000f1a:	d0fb      	beq.n	10000f14 <irq_add_tail_to_free_list+0x1c>
10000f1c:	f3bf 8f5f 	dmb	sy
10000f20:	4a27      	ldr	r2, [pc, #156]	; (10000fc0 <irq_add_tail_to_free_list+0xc8>)
10000f22:	0004      	movs	r4, r0
10000f24:	4d24      	ldr	r5, [pc, #144]	; (10000fb8 <irq_add_tail_to_free_list+0xc0>)
10000f26:	1b64      	subs	r4, r4, r5
10000f28:	4164      	adcs	r4, r4
10000f2a:	4362      	muls	r2, r4
10000f2c:	0d12      	lsrs	r2, r2, #20
10000f2e:	b254      	sxtb	r4, r2
10000f30:	4a24      	ldr	r2, [pc, #144]	; (10000fc4 <irq_add_tail_to_free_list+0xcc>)
10000f32:	6892      	ldr	r2, [r2, #8]
10000f34:	009b      	lsls	r3, r3, #2
10000f36:	58d2      	ldr	r2, [r2, r3]
10000f38:	428a      	cmp	r2, r1
10000f3a:	d01b      	beq.n	10000f74 <irq_add_tail_to_free_list+0x7c>
10000f3c:	2200      	movs	r2, #0
10000f3e:	2a03      	cmp	r2, #3
10000f40:	d832      	bhi.n	10000fa8 <irq_add_tail_to_free_list+0xb0>
10000f42:	0053      	lsls	r3, r2, #1
10000f44:	189b      	adds	r3, r3, r2
10000f46:	009b      	lsls	r3, r3, #2
10000f48:	491b      	ldr	r1, [pc, #108]	; (10000fb8 <irq_add_tail_to_free_list+0xc0>)
10000f4a:	18cb      	adds	r3, r1, r3
10000f4c:	799b      	ldrb	r3, [r3, #6]
10000f4e:	b25b      	sxtb	r3, r3
10000f50:	42a3      	cmp	r3, r4
10000f52:	d01f      	beq.n	10000f94 <irq_add_tail_to_free_list+0x9c>
10000f54:	3201      	adds	r2, #1
10000f56:	e7f2      	b.n	10000f3e <irq_add_tail_to_free_list+0x46>
10000f58:	21c7      	movs	r1, #199	; 0xc7
10000f5a:	4b1b      	ldr	r3, [pc, #108]	; (10000fc8 <irq_add_tail_to_free_list+0xd0>)
10000f5c:	4a1b      	ldr	r2, [pc, #108]	; (10000fcc <irq_add_tail_to_free_list+0xd4>)
10000f5e:	0049      	lsls	r1, r1, #1
10000f60:	481b      	ldr	r0, [pc, #108]	; (10000fd0 <irq_add_tail_to_free_list+0xd8>)
10000f62:	f001 fb15 	bl	10002590 <__assert_func>
10000f66:	2192      	movs	r1, #146	; 0x92
10000f68:	4b1a      	ldr	r3, [pc, #104]	; (10000fd4 <irq_add_tail_to_free_list+0xdc>)
10000f6a:	4a18      	ldr	r2, [pc, #96]	; (10000fcc <irq_add_tail_to_free_list+0xd4>)
10000f6c:	31ff      	adds	r1, #255	; 0xff
10000f6e:	4818      	ldr	r0, [pc, #96]	; (10000fd0 <irq_add_tail_to_free_list+0xd8>)
10000f70:	f001 fb0e 	bl	10002590 <__assert_func>
10000f74:	4a13      	ldr	r2, [pc, #76]	; (10000fc4 <irq_add_tail_to_free_list+0xcc>)
10000f76:	6892      	ldr	r2, [r2, #8]
10000f78:	4917      	ldr	r1, [pc, #92]	; (10000fd8 <irq_add_tail_to_free_list+0xe0>)
10000f7a:	50d1      	str	r1, [r2, r3]
10000f7c:	4b17      	ldr	r3, [pc, #92]	; (10000fdc <irq_add_tail_to_free_list+0xe4>)
10000f7e:	781a      	ldrb	r2, [r3, #0]
10000f80:	7182      	strb	r2, [r0, #6]
10000f82:	701c      	strb	r4, [r3, #0]
10000f84:	f3bf 8f5f 	dmb	sy
10000f88:	4b0c      	ldr	r3, [pc, #48]	; (10000fbc <irq_add_tail_to_free_list+0xc4>)
10000f8a:	2200      	movs	r2, #0
10000f8c:	601a      	str	r2, [r3, #0]
10000f8e:	f38c 8810 	msr	PRIMASK, ip
10000f92:	bd70      	pop	{r4, r5, r6, pc}
10000f94:	000d      	movs	r5, r1
10000f96:	0053      	lsls	r3, r2, #1
10000f98:	1899      	adds	r1, r3, r2
10000f9a:	0089      	lsls	r1, r1, #2
10000f9c:	1869      	adds	r1, r5, r1
10000f9e:	26ff      	movs	r6, #255	; 0xff
10000fa0:	718e      	strb	r6, [r1, #6]
10000fa2:	4a0f      	ldr	r2, [pc, #60]	; (10000fe0 <irq_add_tail_to_free_list+0xe8>)
10000fa4:	808a      	strh	r2, [r1, #4]
10000fa6:	e7e9      	b.n	10000f7c <irq_add_tail_to_free_list+0x84>
10000fa8:	21d1      	movs	r1, #209	; 0xd1
10000faa:	4b0e      	ldr	r3, [pc, #56]	; (10000fe4 <irq_add_tail_to_free_list+0xec>)
10000fac:	4a07      	ldr	r2, [pc, #28]	; (10000fcc <irq_add_tail_to_free_list+0xd4>)
10000fae:	0049      	lsls	r1, r1, #1
10000fb0:	4807      	ldr	r0, [pc, #28]	; (10000fd0 <irq_add_tail_to_free_list+0xd8>)
10000fb2:	f001 faed 	bl	10002590 <__assert_func>
10000fb6:	46c0      	nop			; (mov r8, r8)
10000fb8:	20000bb4 	.word	0x20000bb4
10000fbc:	d0000124 	.word	0xd0000124
10000fc0:	0000aaaa 	.word	0x0000aaaa
10000fc4:	e000ed00 	.word	0xe000ed00
10000fc8:	10006e28 	.word	0x10006e28
10000fcc:	10006e80 	.word	0x10006e80
10000fd0:	10006c6c 	.word	0x10006c6c
10000fd4:	10006e50 	.word	0x10006e50
10000fd8:	100001cd 	.word	0x100001cd
10000fdc:	20001a51 	.word	0x20001a51
10000fe0:	ffffbd01 	.word	0xffffbd01
10000fe4:	10006e5c 	.word	0x10006e5c

10000fe8 <irq_init_priorities>:
10000fe8:	2200      	movs	r2, #0
10000fea:	4b04      	ldr	r3, [pc, #16]	; (10000ffc <irq_init_priorities+0x14>)
10000fec:	e002      	b.n	10000ff4 <irq_init_priorities+0xc>
10000fee:	4904      	ldr	r1, [pc, #16]	; (10001000 <irq_init_priorities+0x18>)
10000ff0:	c302      	stmia	r3!, {r1}
10000ff2:	3201      	adds	r2, #1
10000ff4:	2a07      	cmp	r2, #7
10000ff6:	d9fa      	bls.n	10000fee <irq_init_priorities+0x6>
10000ff8:	4770      	bx	lr
10000ffa:	46c0      	nop			; (mov r8, r8)
10000ffc:	e000e400 	.word	0xe000e400
10001000:	80808080 	.word	0x80808080

10001004 <user_irq_claim_unused>:
10001004:	b500      	push	{lr}
10001006:	b083      	sub	sp, #12
10001008:	0001      	movs	r1, r0
1000100a:	4b06      	ldr	r3, [pc, #24]	; (10001024 <user_irq_claim_unused+0x20>)
1000100c:	9300      	str	r3, [sp, #0]
1000100e:	2305      	movs	r3, #5
10001010:	2200      	movs	r2, #0
10001012:	4805      	ldr	r0, [pc, #20]	; (10001028 <user_irq_claim_unused+0x24>)
10001014:	f7ff fc61 	bl	100008da <hw_claim_unused_from_range>
10001018:	2800      	cmp	r0, #0
1000101a:	db01      	blt.n	10001020 <user_irq_claim_unused+0x1c>
1000101c:	231f      	movs	r3, #31
1000101e:	1a18      	subs	r0, r3, r0
10001020:	b003      	add	sp, #12
10001022:	bd00      	pop	{pc}
10001024:	10006e64 	.word	0x10006e64
10001028:	20001a56 	.word	0x20001a56

1000102c <lock_init>:
1000102c:	4b02      	ldr	r3, [pc, #8]	; (10001038 <lock_init+0xc>)
1000102e:	469c      	mov	ip, r3
10001030:	4461      	add	r1, ip
10001032:	0089      	lsls	r1, r1, #2
10001034:	6001      	str	r1, [r0, #0]
10001036:	4770      	bx	lr
10001038:	34000040 	.word	0x34000040

1000103c <mutex_init>:
1000103c:	b510      	push	{r4, lr}
1000103e:	0004      	movs	r4, r0
10001040:	f7ff fc84 	bl	1000094c <next_striped_spin_lock_num>
10001044:	0001      	movs	r1, r0
10001046:	0020      	movs	r0, r4
10001048:	f7ff fff0 	bl	1000102c <lock_init>
1000104c:	23ff      	movs	r3, #255	; 0xff
1000104e:	7123      	strb	r3, [r4, #4]
10001050:	f3bf 8f5f 	dmb	sy
10001054:	bd10      	pop	{r4, pc}

10001056 <recursive_mutex_init>:
10001056:	b510      	push	{r4, lr}
10001058:	0004      	movs	r4, r0
1000105a:	f7ff fc77 	bl	1000094c <next_striped_spin_lock_num>
1000105e:	0001      	movs	r1, r0
10001060:	0020      	movs	r0, r4
10001062:	f7ff ffe3 	bl	1000102c <lock_init>
10001066:	23ff      	movs	r3, #255	; 0xff
10001068:	7123      	strb	r3, [r4, #4]
1000106a:	2300      	movs	r3, #0
1000106c:	7163      	strb	r3, [r4, #5]
1000106e:	f3bf 8f5f 	dmb	sy
10001072:	bd10      	pop	{r4, pc}

10001074 <critical_section_init_with_lock_num>:
10001074:	4b03      	ldr	r3, [pc, #12]	; (10001084 <critical_section_init_with_lock_num+0x10>)
10001076:	469c      	mov	ip, r3
10001078:	4461      	add	r1, ip
1000107a:	0089      	lsls	r1, r1, #2
1000107c:	6001      	str	r1, [r0, #0]
1000107e:	f3bf 8f5f 	dmb	sy
10001082:	4770      	bx	lr
10001084:	34000040 	.word	0x34000040

10001088 <critical_section_init>:
10001088:	b510      	push	{r4, lr}
1000108a:	0004      	movs	r4, r0
1000108c:	2001      	movs	r0, #1
1000108e:	f7ff fc6b 	bl	10000968 <spin_lock_claim_unused>
10001092:	0001      	movs	r1, r0
10001094:	0020      	movs	r0, r4
10001096:	f7ff ffed 	bl	10001074 <critical_section_init_with_lock_num>
1000109a:	bd10      	pop	{r4, pc}

1000109c <alarm_pool_post_alloc_init>:
1000109c:	b570      	push	{r4, r5, r6, lr}
1000109e:	0005      	movs	r5, r0
100010a0:	000c      	movs	r4, r1
100010a2:	0008      	movs	r0, r1
100010a4:	f000 fe14 	bl	10001cd0 <hardware_alarm_cancel>
100010a8:	4909      	ldr	r1, [pc, #36]	; (100010d0 <alarm_pool_post_alloc_init+0x34>)
100010aa:	0020      	movs	r0, r4
100010ac:	f000 fd54 	bl	10001b58 <hardware_alarm_set_callback>
100010b0:	f7ff fc4c 	bl	1000094c <next_striped_spin_lock_num>
100010b4:	4b07      	ldr	r3, [pc, #28]	; (100010d4 <alarm_pool_post_alloc_init+0x38>)
100010b6:	469c      	mov	ip, r3
100010b8:	4460      	add	r0, ip
100010ba:	0080      	lsls	r0, r0, #2
100010bc:	6068      	str	r0, [r5, #4]
100010be:	752c      	strb	r4, [r5, #20]
100010c0:	23d0      	movs	r3, #208	; 0xd0
100010c2:	061b      	lsls	r3, r3, #24
100010c4:	781b      	ldrb	r3, [r3, #0]
100010c6:	756b      	strb	r3, [r5, #21]
100010c8:	00a4      	lsls	r4, r4, #2
100010ca:	4b03      	ldr	r3, [pc, #12]	; (100010d8 <alarm_pool_post_alloc_init+0x3c>)
100010cc:	50e5      	str	r5, [r4, r3]
100010ce:	bd70      	pop	{r4, r5, r6, pc}
100010d0:	100013e1 	.word	0x100013e1
100010d4:	34000040 	.word	0x34000040
100010d8:	200017fc 	.word	0x200017fc

100010dc <sleep_until_callback>:
100010dc:	4b0a      	ldr	r3, [pc, #40]	; (10001108 <sleep_until_callback+0x2c>)
100010de:	681a      	ldr	r2, [r3, #0]
100010e0:	f3ef 8110 	mrs	r1, PRIMASK
100010e4:	b672      	cpsid	i
100010e6:	6813      	ldr	r3, [r2, #0]
100010e8:	2b00      	cmp	r3, #0
100010ea:	d0fc      	beq.n	100010e6 <sleep_until_callback+0xa>
100010ec:	f3bf 8f5f 	dmb	sy
100010f0:	4b05      	ldr	r3, [pc, #20]	; (10001108 <sleep_until_callback+0x2c>)
100010f2:	681b      	ldr	r3, [r3, #0]
100010f4:	f3bf 8f5f 	dmb	sy
100010f8:	2200      	movs	r2, #0
100010fa:	601a      	str	r2, [r3, #0]
100010fc:	f381 8810 	msr	PRIMASK, r1
10001100:	bf40      	sev
10001102:	2000      	movs	r0, #0
10001104:	2100      	movs	r1, #0
10001106:	4770      	bx	lr
10001108:	20001a20 	.word	0x20001a20

1000110c <timer_pool_entry_comparator>:
1000110c:	b510      	push	{r4, lr}
1000110e:	2900      	cmp	r1, #0
10001110:	d022      	beq.n	10001158 <timer_pool_entry_comparator+0x4c>
10001112:	6803      	ldr	r3, [r0, #0]
10001114:	7b1b      	ldrb	r3, [r3, #12]
10001116:	4299      	cmp	r1, r3
10001118:	d81e      	bhi.n	10001158 <timer_pool_entry_comparator+0x4c>
1000111a:	4b17      	ldr	r3, [pc, #92]	; (10001178 <timer_pool_entry_comparator+0x6c>)
1000111c:	469c      	mov	ip, r3
1000111e:	4461      	add	r1, ip
10001120:	0109      	lsls	r1, r1, #4
10001122:	6883      	ldr	r3, [r0, #8]
10001124:	469c      	mov	ip, r3
10001126:	4461      	add	r1, ip
10001128:	680c      	ldr	r4, [r1, #0]
1000112a:	6849      	ldr	r1, [r1, #4]
1000112c:	2a00      	cmp	r2, #0
1000112e:	d019      	beq.n	10001164 <timer_pool_entry_comparator+0x58>
10001130:	6803      	ldr	r3, [r0, #0]
10001132:	7b1b      	ldrb	r3, [r3, #12]
10001134:	429a      	cmp	r2, r3
10001136:	d815      	bhi.n	10001164 <timer_pool_entry_comparator+0x58>
10001138:	6883      	ldr	r3, [r0, #8]
1000113a:	480f      	ldr	r0, [pc, #60]	; (10001178 <timer_pool_entry_comparator+0x6c>)
1000113c:	4684      	mov	ip, r0
1000113e:	4462      	add	r2, ip
10001140:	0112      	lsls	r2, r2, #4
10001142:	189a      	adds	r2, r3, r2
10001144:	6810      	ldr	r0, [r2, #0]
10001146:	6853      	ldr	r3, [r2, #4]
10001148:	0002      	movs	r2, r0
1000114a:	2001      	movs	r0, #1
1000114c:	428b      	cmp	r3, r1
1000114e:	d801      	bhi.n	10001154 <timer_pool_entry_comparator+0x48>
10001150:	d00e      	beq.n	10001170 <timer_pool_entry_comparator+0x64>
10001152:	2000      	movs	r0, #0
10001154:	b2c0      	uxtb	r0, r0
10001156:	bd10      	pop	{r4, pc}
10001158:	4b08      	ldr	r3, [pc, #32]	; (1000117c <timer_pool_entry_comparator+0x70>)
1000115a:	4a09      	ldr	r2, [pc, #36]	; (10001180 <timer_pool_entry_comparator+0x74>)
1000115c:	213c      	movs	r1, #60	; 0x3c
1000115e:	4809      	ldr	r0, [pc, #36]	; (10001184 <timer_pool_entry_comparator+0x78>)
10001160:	f001 fa16 	bl	10002590 <__assert_func>
10001164:	4b05      	ldr	r3, [pc, #20]	; (1000117c <timer_pool_entry_comparator+0x70>)
10001166:	4a06      	ldr	r2, [pc, #24]	; (10001180 <timer_pool_entry_comparator+0x74>)
10001168:	213c      	movs	r1, #60	; 0x3c
1000116a:	4806      	ldr	r0, [pc, #24]	; (10001184 <timer_pool_entry_comparator+0x78>)
1000116c:	f001 fa10 	bl	10002590 <__assert_func>
10001170:	42a2      	cmp	r2, r4
10001172:	d8ef      	bhi.n	10001154 <timer_pool_entry_comparator+0x48>
10001174:	e7ed      	b.n	10001152 <timer_pool_entry_comparator+0x46>
10001176:	46c0      	nop			; (mov r8, r8)
10001178:	0fffffff 	.word	0x0fffffff
1000117c:	100070e4 	.word	0x100070e4
10001180:	10007314 	.word	0x10007314
10001184:	10007090 	.word	0x10007090

10001188 <ph_add_child_node>:
10001188:	b510      	push	{r4, lr}
1000118a:	2900      	cmp	r1, #0
1000118c:	d01e      	beq.n	100011cc <ph_add_child_node+0x44>
1000118e:	7b03      	ldrb	r3, [r0, #12]
10001190:	4299      	cmp	r1, r3
10001192:	d81b      	bhi.n	100011cc <ph_add_child_node+0x44>
10001194:	004b      	lsls	r3, r1, #1
10001196:	185b      	adds	r3, r3, r1
10001198:	3b03      	subs	r3, #3
1000119a:	6804      	ldr	r4, [r0, #0]
1000119c:	46a4      	mov	ip, r4
1000119e:	4463      	add	r3, ip
100011a0:	2900      	cmp	r1, #0
100011a2:	d019      	beq.n	100011d8 <ph_add_child_node+0x50>
100011a4:	2a00      	cmp	r2, #0
100011a6:	d01d      	beq.n	100011e4 <ph_add_child_node+0x5c>
100011a8:	4291      	cmp	r1, r2
100011aa:	d021      	beq.n	100011f0 <ph_add_child_node+0x68>
100011ac:	2a00      	cmp	r2, #0
100011ae:	d025      	beq.n	100011fc <ph_add_child_node+0x74>
100011b0:	7b04      	ldrb	r4, [r0, #12]
100011b2:	42a2      	cmp	r2, r4
100011b4:	d822      	bhi.n	100011fc <ph_add_child_node+0x74>
100011b6:	6804      	ldr	r4, [r0, #0]
100011b8:	0050      	lsls	r0, r2, #1
100011ba:	1880      	adds	r0, r0, r2
100011bc:	3803      	subs	r0, #3
100011be:	1820      	adds	r0, r4, r0
100011c0:	7081      	strb	r1, [r0, #2]
100011c2:	7819      	ldrb	r1, [r3, #0]
100011c4:	2900      	cmp	r1, #0
100011c6:	d11f      	bne.n	10001208 <ph_add_child_node+0x80>
100011c8:	701a      	strb	r2, [r3, #0]
100011ca:	bd10      	pop	{r4, pc}
100011cc:	4b10      	ldr	r3, [pc, #64]	; (10001210 <ph_add_child_node+0x88>)
100011ce:	4a11      	ldr	r2, [pc, #68]	; (10001214 <ph_add_child_node+0x8c>)
100011d0:	2168      	movs	r1, #104	; 0x68
100011d2:	4811      	ldr	r0, [pc, #68]	; (10001218 <ph_add_child_node+0x90>)
100011d4:	f001 f9dc 	bl	10002590 <__assert_func>
100011d8:	4b10      	ldr	r3, [pc, #64]	; (1000121c <ph_add_child_node+0x94>)
100011da:	4a11      	ldr	r2, [pc, #68]	; (10001220 <ph_add_child_node+0x98>)
100011dc:	316f      	adds	r1, #111	; 0x6f
100011de:	480e      	ldr	r0, [pc, #56]	; (10001218 <ph_add_child_node+0x90>)
100011e0:	f001 f9d6 	bl	10002590 <__assert_func>
100011e4:	4b0f      	ldr	r3, [pc, #60]	; (10001224 <ph_add_child_node+0x9c>)
100011e6:	4a0e      	ldr	r2, [pc, #56]	; (10001220 <ph_add_child_node+0x98>)
100011e8:	2170      	movs	r1, #112	; 0x70
100011ea:	480b      	ldr	r0, [pc, #44]	; (10001218 <ph_add_child_node+0x90>)
100011ec:	f001 f9d0 	bl	10002590 <__assert_func>
100011f0:	4b0d      	ldr	r3, [pc, #52]	; (10001228 <ph_add_child_node+0xa0>)
100011f2:	4a0b      	ldr	r2, [pc, #44]	; (10001220 <ph_add_child_node+0x98>)
100011f4:	2171      	movs	r1, #113	; 0x71
100011f6:	4808      	ldr	r0, [pc, #32]	; (10001218 <ph_add_child_node+0x90>)
100011f8:	f001 f9ca 	bl	10002590 <__assert_func>
100011fc:	4b04      	ldr	r3, [pc, #16]	; (10001210 <ph_add_child_node+0x88>)
100011fe:	4a05      	ldr	r2, [pc, #20]	; (10001214 <ph_add_child_node+0x8c>)
10001200:	2168      	movs	r1, #104	; 0x68
10001202:	4805      	ldr	r0, [pc, #20]	; (10001218 <ph_add_child_node+0x90>)
10001204:	f001 f9c4 	bl	10002590 <__assert_func>
10001208:	7041      	strb	r1, [r0, #1]
1000120a:	701a      	strb	r2, [r3, #0]
1000120c:	e7dd      	b.n	100011ca <ph_add_child_node+0x42>
1000120e:	46c0      	nop			; (mov r8, r8)
10001210:	10007108 	.word	0x10007108
10001214:	10007380 	.word	0x10007380
10001218:	10007124 	.word	0x10007124
1000121c:	1000718c 	.word	0x1000718c
10001220:	1000735c 	.word	0x1000735c
10001224:	10007198 	.word	0x10007198
10001228:	100071a4 	.word	0x100071a4

1000122c <ph_merge_nodes>:
1000122c:	b570      	push	{r4, r5, r6, lr}
1000122e:	0006      	movs	r6, r0
10001230:	000d      	movs	r5, r1
10001232:	0014      	movs	r4, r2
10001234:	2900      	cmp	r1, #0
10001236:	d014      	beq.n	10001262 <ph_merge_nodes+0x36>
10001238:	2a00      	cmp	r2, #0
1000123a:	d014      	beq.n	10001266 <ph_merge_nodes+0x3a>
1000123c:	6880      	ldr	r0, [r0, #8]
1000123e:	6873      	ldr	r3, [r6, #4]
10001240:	4798      	blx	r3
10001242:	2800      	cmp	r0, #0
10001244:	d006      	beq.n	10001254 <ph_merge_nodes+0x28>
10001246:	0022      	movs	r2, r4
10001248:	0029      	movs	r1, r5
1000124a:	0030      	movs	r0, r6
1000124c:	f7ff ff9c 	bl	10001188 <ph_add_child_node>
10001250:	0028      	movs	r0, r5
10001252:	e007      	b.n	10001264 <ph_merge_nodes+0x38>
10001254:	002a      	movs	r2, r5
10001256:	0021      	movs	r1, r4
10001258:	0030      	movs	r0, r6
1000125a:	f7ff ff95 	bl	10001188 <ph_add_child_node>
1000125e:	0020      	movs	r0, r4
10001260:	e000      	b.n	10001264 <ph_merge_nodes+0x38>
10001262:	0010      	movs	r0, r2
10001264:	bd70      	pop	{r4, r5, r6, pc}
10001266:	0008      	movs	r0, r1
10001268:	e7fc      	b.n	10001264 <ph_merge_nodes+0x38>
	...

1000126c <add_alarm_under_lock>:
1000126c:	b5f0      	push	{r4, r5, r6, r7, lr}
1000126e:	b083      	sub	sp, #12
10001270:	0005      	movs	r5, r0
10001272:	9200      	str	r2, [sp, #0]
10001274:	9301      	str	r3, [sp, #4]
10001276:	ab0a      	add	r3, sp, #40	; 0x28
10001278:	781c      	ldrb	r4, [r3, #0]
1000127a:	ab0b      	add	r3, sp, #44	; 0x2c
1000127c:	781f      	ldrb	r7, [r3, #0]
1000127e:	2c00      	cmp	r4, #0
10001280:	d026      	beq.n	100012d0 <add_alarm_under_lock+0x64>
10001282:	6803      	ldr	r3, [r0, #0]
10001284:	7b5a      	ldrb	r2, [r3, #13]
10001286:	4294      	cmp	r4, r2
10001288:	d107      	bne.n	1000129a <add_alarm_under_lock+0x2e>
1000128a:	2301      	movs	r3, #1
1000128c:	2b00      	cmp	r3, #0
1000128e:	d119      	bne.n	100012c4 <add_alarm_under_lock+0x58>
10001290:	2c00      	cmp	r4, #0
10001292:	d13b      	bne.n	1000130c <add_alarm_under_lock+0xa0>
10001294:	0020      	movs	r0, r4
10001296:	b003      	add	sp, #12
10001298:	bdf0      	pop	{r4, r5, r6, r7, pc}
1000129a:	2c00      	cmp	r4, #0
1000129c:	d00c      	beq.n	100012b8 <add_alarm_under_lock+0x4c>
1000129e:	7b1a      	ldrb	r2, [r3, #12]
100012a0:	4294      	cmp	r4, r2
100012a2:	d809      	bhi.n	100012b8 <add_alarm_under_lock+0x4c>
100012a4:	681a      	ldr	r2, [r3, #0]
100012a6:	0063      	lsls	r3, r4, #1
100012a8:	191b      	adds	r3, r3, r4
100012aa:	3b03      	subs	r3, #3
100012ac:	18d3      	adds	r3, r2, r3
100012ae:	789b      	ldrb	r3, [r3, #2]
100012b0:	2b00      	cmp	r3, #0
100012b2:	d0eb      	beq.n	1000128c <add_alarm_under_lock+0x20>
100012b4:	2301      	movs	r3, #1
100012b6:	e7e9      	b.n	1000128c <add_alarm_under_lock+0x20>
100012b8:	4b3e      	ldr	r3, [pc, #248]	; (100013b4 <add_alarm_under_lock+0x148>)
100012ba:	4a3f      	ldr	r2, [pc, #252]	; (100013b8 <add_alarm_under_lock+0x14c>)
100012bc:	2168      	movs	r1, #104	; 0x68
100012be:	483f      	ldr	r0, [pc, #252]	; (100013bc <add_alarm_under_lock+0x150>)
100012c0:	f001 f966 	bl	10002590 <__assert_func>
100012c4:	4b3e      	ldr	r3, [pc, #248]	; (100013c0 <add_alarm_under_lock+0x154>)
100012c6:	4a3f      	ldr	r2, [pc, #252]	; (100013c4 <add_alarm_under_lock+0x158>)
100012c8:	2167      	movs	r1, #103	; 0x67
100012ca:	483f      	ldr	r0, [pc, #252]	; (100013c8 <add_alarm_under_lock+0x15c>)
100012cc:	f001 f960 	bl	10002590 <__assert_func>
100012d0:	6803      	ldr	r3, [r0, #0]
100012d2:	7b9c      	ldrb	r4, [r3, #14]
100012d4:	2c00      	cmp	r4, #0
100012d6:	d0db      	beq.n	10001290 <add_alarm_under_lock+0x24>
100012d8:	d012      	beq.n	10001300 <add_alarm_under_lock+0x94>
100012da:	7b1a      	ldrb	r2, [r3, #12]
100012dc:	4294      	cmp	r4, r2
100012de:	d80f      	bhi.n	10001300 <add_alarm_under_lock+0x94>
100012e0:	0062      	lsls	r2, r4, #1
100012e2:	1912      	adds	r2, r2, r4
100012e4:	3a03      	subs	r2, #3
100012e6:	6819      	ldr	r1, [r3, #0]
100012e8:	468c      	mov	ip, r1
100012ea:	4462      	add	r2, ip
100012ec:	7851      	ldrb	r1, [r2, #1]
100012ee:	7399      	strb	r1, [r3, #14]
100012f0:	2900      	cmp	r1, #0
100012f2:	d100      	bne.n	100012f6 <add_alarm_under_lock+0x8a>
100012f4:	73d9      	strb	r1, [r3, #15]
100012f6:	2300      	movs	r3, #0
100012f8:	7093      	strb	r3, [r2, #2]
100012fa:	7053      	strb	r3, [r2, #1]
100012fc:	7013      	strb	r3, [r2, #0]
100012fe:	e7c7      	b.n	10001290 <add_alarm_under_lock+0x24>
10001300:	4b2c      	ldr	r3, [pc, #176]	; (100013b4 <add_alarm_under_lock+0x148>)
10001302:	4a2d      	ldr	r2, [pc, #180]	; (100013b8 <add_alarm_under_lock+0x14c>)
10001304:	2168      	movs	r1, #104	; 0x68
10001306:	482d      	ldr	r0, [pc, #180]	; (100013bc <add_alarm_under_lock+0x150>)
10001308:	f001 f942 	bl	10002590 <__assert_func>
1000130c:	2c00      	cmp	r4, #0
1000130e:	d03a      	beq.n	10001386 <add_alarm_under_lock+0x11a>
10001310:	682b      	ldr	r3, [r5, #0]
10001312:	7b1b      	ldrb	r3, [r3, #12]
10001314:	429c      	cmp	r4, r3
10001316:	d836      	bhi.n	10001386 <add_alarm_under_lock+0x11a>
10001318:	4b2c      	ldr	r3, [pc, #176]	; (100013cc <add_alarm_under_lock+0x160>)
1000131a:	18e3      	adds	r3, r4, r3
1000131c:	011b      	lsls	r3, r3, #4
1000131e:	68aa      	ldr	r2, [r5, #8]
10001320:	4694      	mov	ip, r2
10001322:	4463      	add	r3, ip
10001324:	9a00      	ldr	r2, [sp, #0]
10001326:	601a      	str	r2, [r3, #0]
10001328:	9a01      	ldr	r2, [sp, #4]
1000132a:	605a      	str	r2, [r3, #4]
1000132c:	9a08      	ldr	r2, [sp, #32]
1000132e:	609a      	str	r2, [r3, #8]
10001330:	9a09      	ldr	r2, [sp, #36]	; 0x24
10001332:	60da      	str	r2, [r3, #12]
10001334:	682e      	ldr	r6, [r5, #0]
10001336:	2c00      	cmp	r4, #0
10001338:	d02b      	beq.n	10001392 <add_alarm_under_lock+0x126>
1000133a:	d030      	beq.n	1000139e <add_alarm_under_lock+0x132>
1000133c:	7b33      	ldrb	r3, [r6, #12]
1000133e:	429c      	cmp	r4, r3
10001340:	d82d      	bhi.n	1000139e <add_alarm_under_lock+0x132>
10001342:	0063      	lsls	r3, r4, #1
10001344:	191b      	adds	r3, r3, r4
10001346:	3b03      	subs	r3, #3
10001348:	6832      	ldr	r2, [r6, #0]
1000134a:	4694      	mov	ip, r2
1000134c:	4463      	add	r3, ip
1000134e:	2200      	movs	r2, #0
10001350:	709a      	strb	r2, [r3, #2]
10001352:	705a      	strb	r2, [r3, #1]
10001354:	701a      	strb	r2, [r3, #0]
10001356:	7b71      	ldrb	r1, [r6, #13]
10001358:	0022      	movs	r2, r4
1000135a:	0030      	movs	r0, r6
1000135c:	f7ff ff66 	bl	1000122c <ph_merge_nodes>
10001360:	7370      	strb	r0, [r6, #13]
10001362:	4284      	cmp	r4, r0
10001364:	d000      	beq.n	10001368 <add_alarm_under_lock+0xfc>
10001366:	e795      	b.n	10001294 <add_alarm_under_lock+0x28>
10001368:	7d28      	ldrb	r0, [r5, #20]
1000136a:	9a00      	ldr	r2, [sp, #0]
1000136c:	9b01      	ldr	r3, [sp, #4]
1000136e:	f000 fc3b 	bl	10001be8 <hardware_alarm_set_target>
10001372:	1e06      	subs	r6, r0, #0
10001374:	d001      	beq.n	1000137a <add_alarm_under_lock+0x10e>
10001376:	2f00      	cmp	r7, #0
10001378:	d017      	beq.n	100013aa <add_alarm_under_lock+0x13e>
1000137a:	9b0c      	ldr	r3, [sp, #48]	; 0x30
1000137c:	2b00      	cmp	r3, #0
1000137e:	d100      	bne.n	10001382 <add_alarm_under_lock+0x116>
10001380:	e788      	b.n	10001294 <add_alarm_under_lock+0x28>
10001382:	701e      	strb	r6, [r3, #0]
10001384:	e786      	b.n	10001294 <add_alarm_under_lock+0x28>
10001386:	4b12      	ldr	r3, [pc, #72]	; (100013d0 <add_alarm_under_lock+0x164>)
10001388:	4a12      	ldr	r2, [pc, #72]	; (100013d4 <add_alarm_under_lock+0x168>)
1000138a:	213c      	movs	r1, #60	; 0x3c
1000138c:	480e      	ldr	r0, [pc, #56]	; (100013c8 <add_alarm_under_lock+0x15c>)
1000138e:	f001 f8ff 	bl	10002590 <__assert_func>
10001392:	4b11      	ldr	r3, [pc, #68]	; (100013d8 <add_alarm_under_lock+0x16c>)
10001394:	4a11      	ldr	r2, [pc, #68]	; (100013dc <add_alarm_under_lock+0x170>)
10001396:	21a5      	movs	r1, #165	; 0xa5
10001398:	4808      	ldr	r0, [pc, #32]	; (100013bc <add_alarm_under_lock+0x150>)
1000139a:	f001 f8f9 	bl	10002590 <__assert_func>
1000139e:	4b05      	ldr	r3, [pc, #20]	; (100013b4 <add_alarm_under_lock+0x148>)
100013a0:	4a05      	ldr	r2, [pc, #20]	; (100013b8 <add_alarm_under_lock+0x14c>)
100013a2:	2168      	movs	r1, #104	; 0x68
100013a4:	4805      	ldr	r0, [pc, #20]	; (100013bc <add_alarm_under_lock+0x150>)
100013a6:	f001 f8f3 	bl	10002590 <__assert_func>
100013aa:	6828      	ldr	r0, [r5, #0]
100013ac:	0021      	movs	r1, r4
100013ae:	f000 fe53 	bl	10002058 <ph_remove_and_free_node>
100013b2:	e7e2      	b.n	1000137a <add_alarm_under_lock+0x10e>
100013b4:	10007108 	.word	0x10007108
100013b8:	10007380 	.word	0x10007380
100013bc:	10007124 	.word	0x10007124
100013c0:	100071bc 	.word	0x100071bc
100013c4:	1000738c 	.word	0x1000738c
100013c8:	10007090 	.word	0x10007090
100013cc:	0fffffff 	.word	0x0fffffff
100013d0:	100070e4 	.word	0x100070e4
100013d4:	10007314 	.word	0x10007314
100013d8:	1000708c 	.word	0x1000708c
100013dc:	10007370 	.word	0x10007370

100013e0 <alarm_pool_alarm_callback>:
100013e0:	b5f0      	push	{r4, r5, r6, r7, lr}
100013e2:	46de      	mov	lr, fp
100013e4:	4657      	mov	r7, sl
100013e6:	464e      	mov	r6, r9
100013e8:	4645      	mov	r5, r8
100013ea:	b5e0      	push	{r5, r6, r7, lr}
100013ec:	b08b      	sub	sp, #44	; 0x2c
100013ee:	9009      	str	r0, [sp, #36]	; 0x24
100013f0:	2300      	movs	r3, #0
100013f2:	9308      	str	r3, [sp, #32]
100013f4:	0082      	lsls	r2, r0, #2
100013f6:	4bb5      	ldr	r3, [pc, #724]	; (100016cc <alarm_pool_alarm_callback+0x2ec>)
100013f8:	58d6      	ldr	r6, [r2, r3]
100013fa:	0037      	movs	r7, r6
100013fc:	e052      	b.n	100014a4 <alarm_pool_alarm_callback+0xc4>
100013fe:	4bb4      	ldr	r3, [pc, #720]	; (100016d0 <alarm_pool_alarm_callback+0x2f0>)
10001400:	4ab4      	ldr	r2, [pc, #720]	; (100016d4 <alarm_pool_alarm_callback+0x2f4>)
10001402:	213f      	movs	r1, #63	; 0x3f
10001404:	48b4      	ldr	r0, [pc, #720]	; (100016d8 <alarm_pool_alarm_callback+0x2f8>)
10001406:	f001 f8c3 	bl	10002590 <__assert_func>
1000140a:	4bb4      	ldr	r3, [pc, #720]	; (100016dc <alarm_pool_alarm_callback+0x2fc>)
1000140c:	4ab4      	ldr	r2, [pc, #720]	; (100016e0 <alarm_pool_alarm_callback+0x300>)
1000140e:	213c      	movs	r1, #60	; 0x3c
10001410:	48b4      	ldr	r0, [pc, #720]	; (100016e4 <alarm_pool_alarm_callback+0x304>)
10001412:	f001 f8bd 	bl	10002590 <__assert_func>
10001416:	2900      	cmp	r1, #0
10001418:	d101      	bne.n	1000141e <alarm_pool_alarm_callback+0x3e>
1000141a:	2800      	cmp	r0, #0
1000141c:	d169      	bne.n	100014f2 <alarm_pool_alarm_callback+0x112>
1000141e:	2100      	movs	r1, #0
10001420:	4640      	mov	r0, r8
10001422:	f000 fe0f 	bl	10002044 <ph_remove_head>
10001426:	42a0      	cmp	r0, r4
10001428:	d119      	bne.n	1000145e <alarm_pool_alarm_callback+0x7e>
1000142a:	682a      	ldr	r2, [r5, #0]
1000142c:	686b      	ldr	r3, [r5, #4]
1000142e:	9206      	str	r2, [sp, #24]
10001430:	9307      	str	r3, [sp, #28]
10001432:	68ab      	ldr	r3, [r5, #8]
10001434:	4698      	mov	r8, r3
10001436:	68eb      	ldr	r3, [r5, #12]
10001438:	469a      	mov	sl, r3
1000143a:	4643      	mov	r3, r8
1000143c:	2b00      	cmp	r3, #0
1000143e:	d014      	beq.n	1000146a <alarm_pool_alarm_callback+0x8a>
10001440:	2c00      	cmp	r4, #0
10001442:	d018      	beq.n	10001476 <alarm_pool_alarm_callback+0x96>
10001444:	683b      	ldr	r3, [r7, #0]
10001446:	7b1b      	ldrb	r3, [r3, #12]
10001448:	429c      	cmp	r4, r3
1000144a:	d814      	bhi.n	10001476 <alarm_pool_alarm_callback+0x96>
1000144c:	1e63      	subs	r3, r4, #1
1000144e:	68fa      	ldr	r2, [r7, #12]
10001450:	5cd3      	ldrb	r3, [r2, r3]
10001452:	9308      	str	r3, [sp, #32]
10001454:	021b      	lsls	r3, r3, #8
10001456:	4318      	orrs	r0, r3
10001458:	6138      	str	r0, [r7, #16]
1000145a:	2000      	movs	r0, #0
1000145c:	e015      	b.n	1000148a <alarm_pool_alarm_callback+0xaa>
1000145e:	4ba2      	ldr	r3, [pc, #648]	; (100016e8 <alarm_pool_alarm_callback+0x308>)
10001460:	4aa2      	ldr	r2, [pc, #648]	; (100016ec <alarm_pool_alarm_callback+0x30c>)
10001462:	218e      	movs	r1, #142	; 0x8e
10001464:	489f      	ldr	r0, [pc, #636]	; (100016e4 <alarm_pool_alarm_callback+0x304>)
10001466:	f001 f893 	bl	10002590 <__assert_func>
1000146a:	4ba1      	ldr	r3, [pc, #644]	; (100016f0 <alarm_pool_alarm_callback+0x310>)
1000146c:	4a9f      	ldr	r2, [pc, #636]	; (100016ec <alarm_pool_alarm_callback+0x30c>)
1000146e:	2192      	movs	r1, #146	; 0x92
10001470:	489c      	ldr	r0, [pc, #624]	; (100016e4 <alarm_pool_alarm_callback+0x304>)
10001472:	f001 f88d 	bl	10002590 <__assert_func>
10001476:	4b99      	ldr	r3, [pc, #612]	; (100016dc <alarm_pool_alarm_callback+0x2fc>)
10001478:	4a9e      	ldr	r2, [pc, #632]	; (100016f4 <alarm_pool_alarm_callback+0x314>)
1000147a:	2141      	movs	r1, #65	; 0x41
1000147c:	4899      	ldr	r0, [pc, #612]	; (100016e4 <alarm_pool_alarm_callback+0x304>)
1000147e:	f001 f887 	bl	10002590 <__assert_func>
10001482:	2300      	movs	r3, #0
10001484:	469a      	mov	sl, r3
10001486:	4698      	mov	r8, r3
10001488:	2000      	movs	r0, #0
1000148a:	687b      	ldr	r3, [r7, #4]
1000148c:	f3bf 8f5f 	dmb	sy
10001490:	2200      	movs	r2, #0
10001492:	601a      	str	r2, [r3, #0]
10001494:	f386 8810 	msr	PRIMASK, r6
10001498:	4643      	mov	r3, r8
1000149a:	2b00      	cmp	r3, #0
1000149c:	d132      	bne.n	10001504 <alarm_pool_alarm_callback+0x124>
1000149e:	2800      	cmp	r0, #0
100014a0:	d100      	bne.n	100014a4 <alarm_pool_alarm_callback+0xc4>
100014a2:	e10c      	b.n	100016be <alarm_pool_alarm_callback+0x2de>
100014a4:	f000 fb4c 	bl	10001b40 <time_us_64>
100014a8:	0002      	movs	r2, r0
100014aa:	1e0b      	subs	r3, r1, #0
100014ac:	dba7      	blt.n	100013fe <alarm_pool_alarm_callback+0x1e>
100014ae:	2000      	movs	r0, #0
100014b0:	2100      	movs	r1, #0
100014b2:	9006      	str	r0, [sp, #24]
100014b4:	9107      	str	r1, [sp, #28]
100014b6:	6878      	ldr	r0, [r7, #4]
100014b8:	f3ef 8610 	mrs	r6, PRIMASK
100014bc:	b672      	cpsid	i
100014be:	6801      	ldr	r1, [r0, #0]
100014c0:	2900      	cmp	r1, #0
100014c2:	d0fc      	beq.n	100014be <alarm_pool_alarm_callback+0xde>
100014c4:	f3bf 8f5f 	dmb	sy
100014c8:	6839      	ldr	r1, [r7, #0]
100014ca:	4688      	mov	r8, r1
100014cc:	7b4c      	ldrb	r4, [r1, #13]
100014ce:	2c00      	cmp	r4, #0
100014d0:	d0d7      	beq.n	10001482 <alarm_pool_alarm_callback+0xa2>
100014d2:	d09a      	beq.n	1000140a <alarm_pool_alarm_callback+0x2a>
100014d4:	7b09      	ldrb	r1, [r1, #12]
100014d6:	428c      	cmp	r4, r1
100014d8:	d897      	bhi.n	1000140a <alarm_pool_alarm_callback+0x2a>
100014da:	4987      	ldr	r1, [pc, #540]	; (100016f8 <alarm_pool_alarm_callback+0x318>)
100014dc:	1865      	adds	r5, r4, r1
100014de:	012d      	lsls	r5, r5, #4
100014e0:	68b9      	ldr	r1, [r7, #8]
100014e2:	468c      	mov	ip, r1
100014e4:	4465      	add	r5, ip
100014e6:	6828      	ldr	r0, [r5, #0]
100014e8:	6869      	ldr	r1, [r5, #4]
100014ea:	1a80      	subs	r0, r0, r2
100014ec:	4199      	sbcs	r1, r3
100014ee:	2900      	cmp	r1, #0
100014f0:	dd91      	ble.n	10001416 <alarm_pool_alarm_callback+0x36>
100014f2:	682a      	ldr	r2, [r5, #0]
100014f4:	686b      	ldr	r3, [r5, #4]
100014f6:	9809      	ldr	r0, [sp, #36]	; 0x24
100014f8:	f000 fb76 	bl	10001be8 <hardware_alarm_set_target>
100014fc:	2300      	movs	r3, #0
100014fe:	469a      	mov	sl, r3
10001500:	4698      	mov	r8, r3
10001502:	e7c2      	b.n	1000148a <alarm_pool_alarm_callback+0xaa>
10001504:	9b08      	ldr	r3, [sp, #32]
10001506:	021b      	lsls	r3, r3, #8
10001508:	4323      	orrs	r3, r4
1000150a:	4699      	mov	r9, r3
1000150c:	4651      	mov	r1, sl
1000150e:	0018      	movs	r0, r3
10001510:	47c0      	blx	r8
10001512:	0005      	movs	r5, r0
10001514:	000e      	movs	r6, r1
10001516:	687a      	ldr	r2, [r7, #4]
10001518:	f3ef 8b10 	mrs	fp, PRIMASK
1000151c:	b672      	cpsid	i
1000151e:	6813      	ldr	r3, [r2, #0]
10001520:	4259      	negs	r1, r3
10001522:	414b      	adcs	r3, r1
10001524:	b2d9      	uxtb	r1, r3
10001526:	2b00      	cmp	r3, #0
10001528:	d1f9      	bne.n	1000151e <alarm_pool_alarm_callback+0x13e>
1000152a:	f3bf 8f5f 	dmb	sy
1000152e:	2e00      	cmp	r6, #0
10001530:	db1e      	blt.n	10001570 <alarm_pool_alarm_callback+0x190>
10001532:	2e00      	cmp	r6, #0
10001534:	dd46      	ble.n	100015c4 <alarm_pool_alarm_callback+0x1e4>
10001536:	693b      	ldr	r3, [r7, #16]
10001538:	2b00      	cmp	r3, #0
1000153a:	d047      	beq.n	100015cc <alarm_pool_alarm_callback+0x1ec>
1000153c:	454b      	cmp	r3, r9
1000153e:	d16d      	bne.n	1000161c <alarm_pool_alarm_callback+0x23c>
10001540:	f000 fafe 	bl	10001b40 <time_us_64>
10001544:	0002      	movs	r2, r0
10001546:	1e0b      	subs	r3, r1, #0
10001548:	db6e      	blt.n	10001628 <alarm_pool_alarm_callback+0x248>
1000154a:	1952      	adds	r2, r2, r5
1000154c:	4173      	adcs	r3, r6
1000154e:	2b00      	cmp	r3, #0
10001550:	db70      	blt.n	10001634 <alarm_pool_alarm_callback+0x254>
10001552:	2b00      	cmp	r3, #0
10001554:	db72      	blt.n	1000163c <alarm_pool_alarm_callback+0x25c>
10001556:	2100      	movs	r1, #0
10001558:	9104      	str	r1, [sp, #16]
1000155a:	3101      	adds	r1, #1
1000155c:	9103      	str	r1, [sp, #12]
1000155e:	9402      	str	r4, [sp, #8]
10001560:	4651      	mov	r1, sl
10001562:	9101      	str	r1, [sp, #4]
10001564:	4641      	mov	r1, r8
10001566:	9100      	str	r1, [sp, #0]
10001568:	0038      	movs	r0, r7
1000156a:	f7ff fe7f 	bl	1000126c <add_alarm_under_lock>
1000156e:	e04c      	b.n	1000160a <alarm_pool_alarm_callback+0x22a>
10001570:	693b      	ldr	r3, [r7, #16]
10001572:	2b00      	cmp	r3, #0
10001574:	d0dd      	beq.n	10001532 <alarm_pool_alarm_callback+0x152>
10001576:	454b      	cmp	r3, r9
10001578:	d114      	bne.n	100015a4 <alarm_pool_alarm_callback+0x1c4>
1000157a:	9a06      	ldr	r2, [sp, #24]
1000157c:	9b07      	ldr	r3, [sp, #28]
1000157e:	1b52      	subs	r2, r2, r5
10001580:	41b3      	sbcs	r3, r6
10001582:	2b00      	cmp	r3, #0
10001584:	db14      	blt.n	100015b0 <alarm_pool_alarm_callback+0x1d0>
10001586:	2b00      	cmp	r3, #0
10001588:	db16      	blt.n	100015b8 <alarm_pool_alarm_callback+0x1d8>
1000158a:	2100      	movs	r1, #0
1000158c:	9104      	str	r1, [sp, #16]
1000158e:	3101      	adds	r1, #1
10001590:	9103      	str	r1, [sp, #12]
10001592:	9402      	str	r4, [sp, #8]
10001594:	4651      	mov	r1, sl
10001596:	9101      	str	r1, [sp, #4]
10001598:	4641      	mov	r1, r8
1000159a:	9100      	str	r1, [sp, #0]
1000159c:	0038      	movs	r0, r7
1000159e:	f7ff fe65 	bl	1000126c <add_alarm_under_lock>
100015a2:	e032      	b.n	1000160a <alarm_pool_alarm_callback+0x22a>
100015a4:	4b55      	ldr	r3, [pc, #340]	; (100016fc <alarm_pool_alarm_callback+0x31c>)
100015a6:	4a51      	ldr	r2, [pc, #324]	; (100016ec <alarm_pool_alarm_callback+0x30c>)
100015a8:	21a1      	movs	r1, #161	; 0xa1
100015aa:	484e      	ldr	r0, [pc, #312]	; (100016e4 <alarm_pool_alarm_callback+0x304>)
100015ac:	f000 fff0 	bl	10002590 <__assert_func>
100015b0:	2201      	movs	r2, #1
100015b2:	4252      	negs	r2, r2
100015b4:	4b52      	ldr	r3, [pc, #328]	; (10001700 <alarm_pool_alarm_callback+0x320>)
100015b6:	e7e6      	b.n	10001586 <alarm_pool_alarm_callback+0x1a6>
100015b8:	4b45      	ldr	r3, [pc, #276]	; (100016d0 <alarm_pool_alarm_callback+0x2f0>)
100015ba:	4a46      	ldr	r2, [pc, #280]	; (100016d4 <alarm_pool_alarm_callback+0x2f4>)
100015bc:	213f      	movs	r1, #63	; 0x3f
100015be:	4846      	ldr	r0, [pc, #280]	; (100016d8 <alarm_pool_alarm_callback+0x2f8>)
100015c0:	f000 ffe6 	bl	10002590 <__assert_func>
100015c4:	2e00      	cmp	r6, #0
100015c6:	d101      	bne.n	100015cc <alarm_pool_alarm_callback+0x1ec>
100015c8:	2d00      	cmp	r5, #0
100015ca:	d1b4      	bne.n	10001536 <alarm_pool_alarm_callback+0x156>
100015cc:	683b      	ldr	r3, [r7, #0]
100015ce:	2c00      	cmp	r4, #0
100015d0:	d050      	beq.n	10001674 <alarm_pool_alarm_callback+0x294>
100015d2:	7b5a      	ldrb	r2, [r3, #13]
100015d4:	4294      	cmp	r4, r2
100015d6:	d137      	bne.n	10001648 <alarm_pool_alarm_callback+0x268>
100015d8:	2101      	movs	r1, #1
100015da:	2900      	cmp	r1, #0
100015dc:	d14a      	bne.n	10001674 <alarm_pool_alarm_callback+0x294>
100015de:	7bda      	ldrb	r2, [r3, #15]
100015e0:	2a00      	cmp	r2, #0
100015e2:	d14d      	bne.n	10001680 <alarm_pool_alarm_callback+0x2a0>
100015e4:	7b9a      	ldrb	r2, [r3, #14]
100015e6:	2a00      	cmp	r2, #0
100015e8:	d103      	bne.n	100015f2 <alarm_pool_alarm_callback+0x212>
100015ea:	7bda      	ldrb	r2, [r3, #15]
100015ec:	2a00      	cmp	r2, #0
100015ee:	d15a      	bne.n	100016a6 <alarm_pool_alarm_callback+0x2c6>
100015f0:	739c      	strb	r4, [r3, #14]
100015f2:	73dc      	strb	r4, [r3, #15]
100015f4:	2c00      	cmp	r4, #0
100015f6:	d05c      	beq.n	100016b2 <alarm_pool_alarm_callback+0x2d2>
100015f8:	683b      	ldr	r3, [r7, #0]
100015fa:	7b1b      	ldrb	r3, [r3, #12]
100015fc:	429c      	cmp	r4, r3
100015fe:	d858      	bhi.n	100016b2 <alarm_pool_alarm_callback+0x2d2>
10001600:	68fa      	ldr	r2, [r7, #12]
10001602:	3c01      	subs	r4, #1
10001604:	5d13      	ldrb	r3, [r2, r4]
10001606:	3301      	adds	r3, #1
10001608:	5513      	strb	r3, [r2, r4]
1000160a:	2300      	movs	r3, #0
1000160c:	613b      	str	r3, [r7, #16]
1000160e:	687a      	ldr	r2, [r7, #4]
10001610:	f3bf 8f5f 	dmb	sy
10001614:	6013      	str	r3, [r2, #0]
10001616:	f38b 8810 	msr	PRIMASK, fp
1000161a:	e743      	b.n	100014a4 <alarm_pool_alarm_callback+0xc4>
1000161c:	4b37      	ldr	r3, [pc, #220]	; (100016fc <alarm_pool_alarm_callback+0x31c>)
1000161e:	4a33      	ldr	r2, [pc, #204]	; (100016ec <alarm_pool_alarm_callback+0x30c>)
10001620:	21a4      	movs	r1, #164	; 0xa4
10001622:	4830      	ldr	r0, [pc, #192]	; (100016e4 <alarm_pool_alarm_callback+0x304>)
10001624:	f000 ffb4 	bl	10002590 <__assert_func>
10001628:	4b29      	ldr	r3, [pc, #164]	; (100016d0 <alarm_pool_alarm_callback+0x2f0>)
1000162a:	4a2a      	ldr	r2, [pc, #168]	; (100016d4 <alarm_pool_alarm_callback+0x2f4>)
1000162c:	213f      	movs	r1, #63	; 0x3f
1000162e:	482a      	ldr	r0, [pc, #168]	; (100016d8 <alarm_pool_alarm_callback+0x2f8>)
10001630:	f000 ffae 	bl	10002590 <__assert_func>
10001634:	2201      	movs	r2, #1
10001636:	4252      	negs	r2, r2
10001638:	4b31      	ldr	r3, [pc, #196]	; (10001700 <alarm_pool_alarm_callback+0x320>)
1000163a:	e78a      	b.n	10001552 <alarm_pool_alarm_callback+0x172>
1000163c:	4b24      	ldr	r3, [pc, #144]	; (100016d0 <alarm_pool_alarm_callback+0x2f0>)
1000163e:	4a25      	ldr	r2, [pc, #148]	; (100016d4 <alarm_pool_alarm_callback+0x2f4>)
10001640:	213f      	movs	r1, #63	; 0x3f
10001642:	4825      	ldr	r0, [pc, #148]	; (100016d8 <alarm_pool_alarm_callback+0x2f8>)
10001644:	f000 ffa4 	bl	10002590 <__assert_func>
10001648:	2c00      	cmp	r4, #0
1000164a:	d00d      	beq.n	10001668 <alarm_pool_alarm_callback+0x288>
1000164c:	7b1a      	ldrb	r2, [r3, #12]
1000164e:	4294      	cmp	r4, r2
10001650:	d80a      	bhi.n	10001668 <alarm_pool_alarm_callback+0x288>
10001652:	0062      	lsls	r2, r4, #1
10001654:	1912      	adds	r2, r2, r4
10001656:	3a03      	subs	r2, #3
10001658:	6818      	ldr	r0, [r3, #0]
1000165a:	4684      	mov	ip, r0
1000165c:	4462      	add	r2, ip
1000165e:	7892      	ldrb	r2, [r2, #2]
10001660:	2a00      	cmp	r2, #0
10001662:	d0ba      	beq.n	100015da <alarm_pool_alarm_callback+0x1fa>
10001664:	2101      	movs	r1, #1
10001666:	e7b8      	b.n	100015da <alarm_pool_alarm_callback+0x1fa>
10001668:	4b26      	ldr	r3, [pc, #152]	; (10001704 <alarm_pool_alarm_callback+0x324>)
1000166a:	4a27      	ldr	r2, [pc, #156]	; (10001708 <alarm_pool_alarm_callback+0x328>)
1000166c:	2168      	movs	r1, #104	; 0x68
1000166e:	4827      	ldr	r0, [pc, #156]	; (1000170c <alarm_pool_alarm_callback+0x32c>)
10001670:	f000 ff8e 	bl	10002590 <__assert_func>
10001674:	4b26      	ldr	r3, [pc, #152]	; (10001710 <alarm_pool_alarm_callback+0x330>)
10001676:	4a27      	ldr	r2, [pc, #156]	; (10001714 <alarm_pool_alarm_callback+0x334>)
10001678:	21f6      	movs	r1, #246	; 0xf6
1000167a:	4824      	ldr	r0, [pc, #144]	; (1000170c <alarm_pool_alarm_callback+0x32c>)
1000167c:	f000 ff88 	bl	10002590 <__assert_func>
10001680:	2a00      	cmp	r2, #0
10001682:	d00a      	beq.n	1000169a <alarm_pool_alarm_callback+0x2ba>
10001684:	7b19      	ldrb	r1, [r3, #12]
10001686:	428a      	cmp	r2, r1
10001688:	d807      	bhi.n	1000169a <alarm_pool_alarm_callback+0x2ba>
1000168a:	0051      	lsls	r1, r2, #1
1000168c:	188a      	adds	r2, r1, r2
1000168e:	3a03      	subs	r2, #3
10001690:	6819      	ldr	r1, [r3, #0]
10001692:	468c      	mov	ip, r1
10001694:	4462      	add	r2, ip
10001696:	7054      	strb	r4, [r2, #1]
10001698:	e7a4      	b.n	100015e4 <alarm_pool_alarm_callback+0x204>
1000169a:	4b1a      	ldr	r3, [pc, #104]	; (10001704 <alarm_pool_alarm_callback+0x324>)
1000169c:	4a1a      	ldr	r2, [pc, #104]	; (10001708 <alarm_pool_alarm_callback+0x328>)
1000169e:	2168      	movs	r1, #104	; 0x68
100016a0:	481a      	ldr	r0, [pc, #104]	; (1000170c <alarm_pool_alarm_callback+0x32c>)
100016a2:	f000 ff75 	bl	10002590 <__assert_func>
100016a6:	4b1c      	ldr	r3, [pc, #112]	; (10001718 <alarm_pool_alarm_callback+0x338>)
100016a8:	4a1a      	ldr	r2, [pc, #104]	; (10001714 <alarm_pool_alarm_callback+0x334>)
100016aa:	21fb      	movs	r1, #251	; 0xfb
100016ac:	4817      	ldr	r0, [pc, #92]	; (1000170c <alarm_pool_alarm_callback+0x32c>)
100016ae:	f000 ff6f 	bl	10002590 <__assert_func>
100016b2:	4b0a      	ldr	r3, [pc, #40]	; (100016dc <alarm_pool_alarm_callback+0x2fc>)
100016b4:	4a0f      	ldr	r2, [pc, #60]	; (100016f4 <alarm_pool_alarm_callback+0x314>)
100016b6:	2141      	movs	r1, #65	; 0x41
100016b8:	480a      	ldr	r0, [pc, #40]	; (100016e4 <alarm_pool_alarm_callback+0x304>)
100016ba:	f000 ff69 	bl	10002590 <__assert_func>
100016be:	b00b      	add	sp, #44	; 0x2c
100016c0:	bcf0      	pop	{r4, r5, r6, r7}
100016c2:	46bb      	mov	fp, r7
100016c4:	46b2      	mov	sl, r6
100016c6:	46a9      	mov	r9, r5
100016c8:	46a0      	mov	r8, r4
100016ca:	bdf0      	pop	{r4, r5, r6, r7, pc}
100016cc:	200017fc 	.word	0x200017fc
100016d0:	10006f88 	.word	0x10006f88
100016d4:	100072e0 	.word	0x100072e0
100016d8:	10006fa4 	.word	0x10006fa4
100016dc:	100070e4 	.word	0x100070e4
100016e0:	10007314 	.word	0x10007314
100016e4:	10007090 	.word	0x10007090
100016e8:	100071e4 	.word	0x100071e4
100016ec:	100072f8 	.word	0x100072f8
100016f0:	100071fc 	.word	0x100071fc
100016f4:	10007338 	.word	0x10007338
100016f8:	0fffffff 	.word	0x0fffffff
100016fc:	10007208 	.word	0x10007208
10001700:	7fffffff 	.word	0x7fffffff
10001704:	10007108 	.word	0x10007108
10001708:	10007380 	.word	0x10007380
1000170c:	10007124 	.word	0x10007124
10001710:	10007244 	.word	0x10007244
10001714:	1000734c 	.word	0x1000734c
10001718:	10007268 	.word	0x10007268

1000171c <alarm_pool_init_default>:
1000171c:	b510      	push	{r4, lr}
1000171e:	4b0c      	ldr	r3, [pc, #48]	; (10001750 <alarm_pool_init_default+0x34>)
10001720:	685b      	ldr	r3, [r3, #4]
10001722:	2b00      	cmp	r3, #0
10001724:	d004      	beq.n	10001730 <alarm_pool_init_default+0x14>
10001726:	210a      	movs	r1, #10
10001728:	480a      	ldr	r0, [pc, #40]	; (10001754 <alarm_pool_init_default+0x38>)
1000172a:	f7ff fc7f 	bl	1000102c <lock_init>
1000172e:	bd10      	pop	{r4, pc}
10001730:	4c07      	ldr	r4, [pc, #28]	; (10001750 <alarm_pool_init_default+0x34>)
10001732:	0023      	movs	r3, r4
10001734:	4a08      	ldr	r2, [pc, #32]	; (10001758 <alarm_pool_init_default+0x3c>)
10001736:	2110      	movs	r1, #16
10001738:	6820      	ldr	r0, [r4, #0]
1000173a:	f000 fb93 	bl	10001e64 <ph_post_alloc_init>
1000173e:	2003      	movs	r0, #3
10001740:	f000 f9f2 	bl	10001b28 <hardware_alarm_claim>
10001744:	2103      	movs	r1, #3
10001746:	0020      	movs	r0, r4
10001748:	f7ff fca8 	bl	1000109c <alarm_pool_post_alloc_init>
1000174c:	e7eb      	b.n	10001726 <alarm_pool_init_default+0xa>
1000174e:	46c0      	nop			; (mov r8, r8)
10001750:	20000bfc 	.word	0x20000bfc
10001754:	20001a20 	.word	0x20001a20
10001758:	1000110d 	.word	0x1000110d

1000175c <alarm_pool_get_default>:
1000175c:	b510      	push	{r4, lr}
1000175e:	4b06      	ldr	r3, [pc, #24]	; (10001778 <alarm_pool_get_default+0x1c>)
10001760:	685b      	ldr	r3, [r3, #4]
10001762:	2b00      	cmp	r3, #0
10001764:	d001      	beq.n	1000176a <alarm_pool_get_default+0xe>
10001766:	4804      	ldr	r0, [pc, #16]	; (10001778 <alarm_pool_get_default+0x1c>)
10001768:	bd10      	pop	{r4, pc}
1000176a:	4b04      	ldr	r3, [pc, #16]	; (1000177c <alarm_pool_get_default+0x20>)
1000176c:	4a04      	ldr	r2, [pc, #16]	; (10001780 <alarm_pool_get_default+0x24>)
1000176e:	215e      	movs	r1, #94	; 0x5e
10001770:	4804      	ldr	r0, [pc, #16]	; (10001784 <alarm_pool_get_default+0x28>)
10001772:	f000 ff0d 	bl	10002590 <__assert_func>
10001776:	46c0      	nop			; (mov r8, r8)
10001778:	20000bfc 	.word	0x20000bfc
1000177c:	1000727c 	.word	0x1000727c
10001780:	10007320 	.word	0x10007320
10001784:	10007090 	.word	0x10007090

10001788 <alarm_pool_add_alarm_at>:
10001788:	b5f0      	push	{r4, r5, r6, r7, lr}
1000178a:	46de      	mov	lr, fp
1000178c:	4657      	mov	r7, sl
1000178e:	464e      	mov	r6, r9
10001790:	4645      	mov	r5, r8
10001792:	b5e0      	push	{r5, r6, r7, lr}
10001794:	b08b      	sub	sp, #44	; 0x2c
10001796:	4680      	mov	r8, r0
10001798:	0016      	movs	r6, r2
1000179a:	001f      	movs	r7, r3
1000179c:	9b14      	ldr	r3, [sp, #80]	; 0x50
1000179e:	469a      	mov	sl, r3
100017a0:	9b15      	ldr	r3, [sp, #84]	; 0x54
100017a2:	4699      	mov	r9, r3
100017a4:	ab16      	add	r3, sp, #88	; 0x58
100017a6:	781b      	ldrb	r3, [r3, #0]
100017a8:	469b      	mov	fp, r3
100017aa:	231f      	movs	r3, #31
100017ac:	aa02      	add	r2, sp, #8
100017ae:	4694      	mov	ip, r2
100017b0:	4463      	add	r3, ip
100017b2:	2200      	movs	r2, #0
100017b4:	701a      	strb	r2, [r3, #0]
100017b6:	e02b      	b.n	10001810 <alarm_pool_add_alarm_at+0x88>
100017b8:	2800      	cmp	r0, #0
100017ba:	d009      	beq.n	100017d0 <alarm_pool_add_alarm_at+0x48>
100017bc:	4642      	mov	r2, r8
100017be:	6812      	ldr	r2, [r2, #0]
100017c0:	7b12      	ldrb	r2, [r2, #12]
100017c2:	4290      	cmp	r0, r2
100017c4:	d804      	bhi.n	100017d0 <alarm_pool_add_alarm_at+0x48>
100017c6:	1e42      	subs	r2, r0, #1
100017c8:	4641      	mov	r1, r8
100017ca:	68c9      	ldr	r1, [r1, #12]
100017cc:	5c8a      	ldrb	r2, [r1, r2]
100017ce:	e041      	b.n	10001854 <alarm_pool_add_alarm_at+0xcc>
100017d0:	4b40      	ldr	r3, [pc, #256]	; (100018d4 <alarm_pool_add_alarm_at+0x14c>)
100017d2:	4a41      	ldr	r2, [pc, #260]	; (100018d8 <alarm_pool_add_alarm_at+0x150>)
100017d4:	2141      	movs	r1, #65	; 0x41
100017d6:	4841      	ldr	r0, [pc, #260]	; (100018dc <alarm_pool_add_alarm_at+0x154>)
100017d8:	f000 feda 	bl	10002590 <__assert_func>
100017dc:	9807      	ldr	r0, [sp, #28]
100017de:	e04c      	b.n	1000187a <alarm_pool_add_alarm_at+0xf2>
100017e0:	1b36      	subs	r6, r6, r4
100017e2:	41af      	sbcs	r7, r5
100017e4:	2f00      	cmp	r7, #0
100017e6:	db07      	blt.n	100017f8 <alarm_pool_add_alarm_at+0x70>
100017e8:	2f00      	cmp	r7, #0
100017ea:	da11      	bge.n	10001810 <alarm_pool_add_alarm_at+0x88>
100017ec:	4b3c      	ldr	r3, [pc, #240]	; (100018e0 <alarm_pool_add_alarm_at+0x158>)
100017ee:	4a3d      	ldr	r2, [pc, #244]	; (100018e4 <alarm_pool_add_alarm_at+0x15c>)
100017f0:	213f      	movs	r1, #63	; 0x3f
100017f2:	483d      	ldr	r0, [pc, #244]	; (100018e8 <alarm_pool_add_alarm_at+0x160>)
100017f4:	f000 fecc 	bl	10002590 <__assert_func>
100017f8:	2601      	movs	r6, #1
100017fa:	4276      	negs	r6, r6
100017fc:	4f3b      	ldr	r7, [pc, #236]	; (100018ec <alarm_pool_add_alarm_at+0x164>)
100017fe:	e7f3      	b.n	100017e8 <alarm_pool_add_alarm_at+0x60>
10001800:	4b37      	ldr	r3, [pc, #220]	; (100018e0 <alarm_pool_add_alarm_at+0x158>)
10001802:	4a38      	ldr	r2, [pc, #224]	; (100018e4 <alarm_pool_add_alarm_at+0x15c>)
10001804:	213f      	movs	r1, #63	; 0x3f
10001806:	4838      	ldr	r0, [pc, #224]	; (100018e8 <alarm_pool_add_alarm_at+0x160>)
10001808:	f000 fec2 	bl	10002590 <__assert_func>
1000180c:	2f00      	cmp	r7, #0
1000180e:	db4f      	blt.n	100018b0 <alarm_pool_add_alarm_at+0x128>
10001810:	4643      	mov	r3, r8
10001812:	685a      	ldr	r2, [r3, #4]
10001814:	f3ef 8410 	mrs	r4, PRIMASK
10001818:	b672      	cpsid	i
1000181a:	6813      	ldr	r3, [r2, #0]
1000181c:	4259      	negs	r1, r3
1000181e:	414b      	adcs	r3, r1
10001820:	b2d9      	uxtb	r1, r3
10001822:	9107      	str	r1, [sp, #28]
10001824:	2b00      	cmp	r3, #0
10001826:	d1f8      	bne.n	1000181a <alarm_pool_add_alarm_at+0x92>
10001828:	f3bf 8f5f 	dmb	sy
1000182c:	331f      	adds	r3, #31
1000182e:	aa02      	add	r2, sp, #8
10001830:	4694      	mov	ip, r2
10001832:	4463      	add	r3, ip
10001834:	9304      	str	r3, [sp, #16]
10001836:	2300      	movs	r3, #0
10001838:	9303      	str	r3, [sp, #12]
1000183a:	9302      	str	r3, [sp, #8]
1000183c:	464b      	mov	r3, r9
1000183e:	9301      	str	r3, [sp, #4]
10001840:	4653      	mov	r3, sl
10001842:	9300      	str	r3, [sp, #0]
10001844:	0032      	movs	r2, r6
10001846:	003b      	movs	r3, r7
10001848:	4640      	mov	r0, r8
1000184a:	f7ff fd0f 	bl	1000126c <add_alarm_under_lock>
1000184e:	1e03      	subs	r3, r0, #0
10001850:	d1b2      	bne.n	100017b8 <alarm_pool_add_alarm_at+0x30>
10001852:	0002      	movs	r2, r0
10001854:	4641      	mov	r1, r8
10001856:	6849      	ldr	r1, [r1, #4]
10001858:	f3bf 8f5f 	dmb	sy
1000185c:	2500      	movs	r5, #0
1000185e:	600d      	str	r5, [r1, #0]
10001860:	f384 8810 	msr	PRIMASK, r4
10001864:	2b00      	cmp	r3, #0
10001866:	d029      	beq.n	100018bc <alarm_pool_add_alarm_at+0x134>
10001868:	231f      	movs	r3, #31
1000186a:	a902      	add	r1, sp, #8
1000186c:	468c      	mov	ip, r1
1000186e:	4463      	add	r3, ip
10001870:	781b      	ldrb	r3, [r3, #0]
10001872:	2b00      	cmp	r3, #0
10001874:	d1b2      	bne.n	100017dc <alarm_pool_add_alarm_at+0x54>
10001876:	0212      	lsls	r2, r2, #8
10001878:	4310      	orrs	r0, r2
1000187a:	2b00      	cmp	r3, #0
1000187c:	d020      	beq.n	100018c0 <alarm_pool_add_alarm_at+0x138>
1000187e:	465b      	mov	r3, fp
10001880:	2b00      	cmp	r3, #0
10001882:	d01d      	beq.n	100018c0 <alarm_pool_add_alarm_at+0x138>
10001884:	4649      	mov	r1, r9
10001886:	47d0      	blx	sl
10001888:	0004      	movs	r4, r0
1000188a:	000d      	movs	r5, r1
1000188c:	0003      	movs	r3, r0
1000188e:	430b      	orrs	r3, r1
10001890:	d01d      	beq.n	100018ce <alarm_pool_add_alarm_at+0x146>
10001892:	2900      	cmp	r1, #0
10001894:	dba4      	blt.n	100017e0 <alarm_pool_add_alarm_at+0x58>
10001896:	f000 f953 	bl	10001b40 <time_us_64>
1000189a:	0006      	movs	r6, r0
1000189c:	1e0f      	subs	r7, r1, #0
1000189e:	dbaf      	blt.n	10001800 <alarm_pool_add_alarm_at+0x78>
100018a0:	1936      	adds	r6, r6, r4
100018a2:	416f      	adcs	r7, r5
100018a4:	2f00      	cmp	r7, #0
100018a6:	dab1      	bge.n	1000180c <alarm_pool_add_alarm_at+0x84>
100018a8:	2601      	movs	r6, #1
100018aa:	4276      	negs	r6, r6
100018ac:	4f0f      	ldr	r7, [pc, #60]	; (100018ec <alarm_pool_add_alarm_at+0x164>)
100018ae:	e7ad      	b.n	1000180c <alarm_pool_add_alarm_at+0x84>
100018b0:	4b0b      	ldr	r3, [pc, #44]	; (100018e0 <alarm_pool_add_alarm_at+0x158>)
100018b2:	4a0c      	ldr	r2, [pc, #48]	; (100018e4 <alarm_pool_add_alarm_at+0x15c>)
100018b4:	213f      	movs	r1, #63	; 0x3f
100018b6:	480c      	ldr	r0, [pc, #48]	; (100018e8 <alarm_pool_add_alarm_at+0x160>)
100018b8:	f000 fe6a 	bl	10002590 <__assert_func>
100018bc:	2001      	movs	r0, #1
100018be:	4240      	negs	r0, r0
100018c0:	b00b      	add	sp, #44	; 0x2c
100018c2:	bcf0      	pop	{r4, r5, r6, r7}
100018c4:	46bb      	mov	fp, r7
100018c6:	46b2      	mov	sl, r6
100018c8:	46a9      	mov	r9, r5
100018ca:	46a0      	mov	r8, r4
100018cc:	bdf0      	pop	{r4, r5, r6, r7, pc}
100018ce:	9807      	ldr	r0, [sp, #28]
100018d0:	e7f6      	b.n	100018c0 <alarm_pool_add_alarm_at+0x138>
100018d2:	46c0      	nop			; (mov r8, r8)
100018d4:	100070e4 	.word	0x100070e4
100018d8:	10007338 	.word	0x10007338
100018dc:	10007090 	.word	0x10007090
100018e0:	10006f88 	.word	0x10006f88
100018e4:	100072e0 	.word	0x100072e0
100018e8:	10006fa4 	.word	0x10006fa4
100018ec:	7fffffff 	.word	0x7fffffff

100018f0 <alarm_pool_cancel_alarm>:
100018f0:	b5f8      	push	{r3, r4, r5, r6, r7, lr}
100018f2:	0004      	movs	r4, r0
100018f4:	2900      	cmp	r1, #0
100018f6:	d100      	bne.n	100018fa <alarm_pool_cancel_alarm+0xa>
100018f8:	e062      	b.n	100019c0 <alarm_pool_cancel_alarm+0xd0>
100018fa:	6842      	ldr	r2, [r0, #4]
100018fc:	f3ef 8510 	mrs	r5, PRIMASK
10001900:	b672      	cpsid	i
10001902:	6813      	ldr	r3, [r2, #0]
10001904:	4258      	negs	r0, r3
10001906:	4143      	adcs	r3, r0
10001908:	b2d8      	uxtb	r0, r3
1000190a:	2b00      	cmp	r3, #0
1000190c:	d1f9      	bne.n	10001902 <alarm_pool_cancel_alarm+0x12>
1000190e:	f3bf 8f5f 	dmb	sy
10001912:	b2cb      	uxtb	r3, r1
10001914:	6822      	ldr	r2, [r4, #0]
10001916:	7b56      	ldrb	r6, [r2, #13]
10001918:	42b3      	cmp	r3, r6
1000191a:	d11b      	bne.n	10001954 <alarm_pool_cancel_alarm+0x64>
1000191c:	2001      	movs	r0, #1
1000191e:	2800      	cmp	r0, #0
10001920:	d048      	beq.n	100019b4 <alarm_pool_cancel_alarm+0xc4>
10001922:	6920      	ldr	r0, [r4, #16]
10001924:	4288      	cmp	r0, r1
10001926:	d02b      	beq.n	10001980 <alarm_pool_cancel_alarm+0x90>
10001928:	0a09      	lsrs	r1, r1, #8
1000192a:	b2c9      	uxtb	r1, r1
1000192c:	2b00      	cmp	r3, #0
1000192e:	d02e      	beq.n	1000198e <alarm_pool_cancel_alarm+0x9e>
10001930:	6820      	ldr	r0, [r4, #0]
10001932:	7b00      	ldrb	r0, [r0, #12]
10001934:	4283      	cmp	r3, r0
10001936:	d82a      	bhi.n	1000198e <alarm_pool_cancel_alarm+0x9e>
10001938:	1e58      	subs	r0, r3, #1
1000193a:	68e6      	ldr	r6, [r4, #12]
1000193c:	5c30      	ldrb	r0, [r6, r0]
1000193e:	4288      	cmp	r0, r1
10001940:	d02b      	beq.n	1000199a <alarm_pool_cancel_alarm+0xaa>
10001942:	2000      	movs	r0, #0
10001944:	6863      	ldr	r3, [r4, #4]
10001946:	f3bf 8f5f 	dmb	sy
1000194a:	2200      	movs	r2, #0
1000194c:	601a      	str	r2, [r3, #0]
1000194e:	f385 8810 	msr	PRIMASK, r5
10001952:	bdf8      	pop	{r3, r4, r5, r6, r7, pc}
10001954:	2b00      	cmp	r3, #0
10001956:	d00d      	beq.n	10001974 <alarm_pool_cancel_alarm+0x84>
10001958:	7b16      	ldrb	r6, [r2, #12]
1000195a:	42b3      	cmp	r3, r6
1000195c:	d80a      	bhi.n	10001974 <alarm_pool_cancel_alarm+0x84>
1000195e:	005e      	lsls	r6, r3, #1
10001960:	18f6      	adds	r6, r6, r3
10001962:	3e03      	subs	r6, #3
10001964:	6817      	ldr	r7, [r2, #0]
10001966:	46bc      	mov	ip, r7
10001968:	4466      	add	r6, ip
1000196a:	78b6      	ldrb	r6, [r6, #2]
1000196c:	2e00      	cmp	r6, #0
1000196e:	d0d6      	beq.n	1000191e <alarm_pool_cancel_alarm+0x2e>
10001970:	2001      	movs	r0, #1
10001972:	e7d4      	b.n	1000191e <alarm_pool_cancel_alarm+0x2e>
10001974:	4b13      	ldr	r3, [pc, #76]	; (100019c4 <alarm_pool_cancel_alarm+0xd4>)
10001976:	4a14      	ldr	r2, [pc, #80]	; (100019c8 <alarm_pool_cancel_alarm+0xd8>)
10001978:	2168      	movs	r1, #104	; 0x68
1000197a:	4814      	ldr	r0, [pc, #80]	; (100019cc <alarm_pool_cancel_alarm+0xdc>)
1000197c:	f000 fe08 	bl	10002590 <__assert_func>
10001980:	212c      	movs	r1, #44	; 0x2c
10001982:	4b13      	ldr	r3, [pc, #76]	; (100019d0 <alarm_pool_cancel_alarm+0xe0>)
10001984:	4a13      	ldr	r2, [pc, #76]	; (100019d4 <alarm_pool_cancel_alarm+0xe4>)
10001986:	31ff      	adds	r1, #255	; 0xff
10001988:	4813      	ldr	r0, [pc, #76]	; (100019d8 <alarm_pool_cancel_alarm+0xe8>)
1000198a:	f000 fe01 	bl	10002590 <__assert_func>
1000198e:	4b13      	ldr	r3, [pc, #76]	; (100019dc <alarm_pool_cancel_alarm+0xec>)
10001990:	4a13      	ldr	r2, [pc, #76]	; (100019e0 <alarm_pool_cancel_alarm+0xf0>)
10001992:	2141      	movs	r1, #65	; 0x41
10001994:	4810      	ldr	r0, [pc, #64]	; (100019d8 <alarm_pool_cancel_alarm+0xe8>)
10001996:	f000 fdfb 	bl	10002590 <__assert_func>
1000199a:	0019      	movs	r1, r3
1000199c:	0010      	movs	r0, r2
1000199e:	f000 fb5b 	bl	10002058 <ph_remove_and_free_node>
100019a2:	2800      	cmp	r0, #0
100019a4:	d1ce      	bne.n	10001944 <alarm_pool_cancel_alarm+0x54>
100019a6:	2199      	movs	r1, #153	; 0x99
100019a8:	4b0e      	ldr	r3, [pc, #56]	; (100019e4 <alarm_pool_cancel_alarm+0xf4>)
100019aa:	4a0a      	ldr	r2, [pc, #40]	; (100019d4 <alarm_pool_cancel_alarm+0xe4>)
100019ac:	0049      	lsls	r1, r1, #1
100019ae:	480a      	ldr	r0, [pc, #40]	; (100019d8 <alarm_pool_cancel_alarm+0xe8>)
100019b0:	f000 fdee 	bl	10002590 <__assert_func>
100019b4:	6923      	ldr	r3, [r4, #16]
100019b6:	428b      	cmp	r3, r1
100019b8:	d1c4      	bne.n	10001944 <alarm_pool_cancel_alarm+0x54>
100019ba:	2300      	movs	r3, #0
100019bc:	6123      	str	r3, [r4, #16]
100019be:	e7c1      	b.n	10001944 <alarm_pool_cancel_alarm+0x54>
100019c0:	2000      	movs	r0, #0
100019c2:	e7c6      	b.n	10001952 <alarm_pool_cancel_alarm+0x62>
100019c4:	10007108 	.word	0x10007108
100019c8:	10007380 	.word	0x10007380
100019cc:	10007124 	.word	0x10007124
100019d0:	100072a0 	.word	0x100072a0
100019d4:	100072c8 	.word	0x100072c8
100019d8:	10007090 	.word	0x10007090
100019dc:	100070e4 	.word	0x100070e4
100019e0:	10007338 	.word	0x10007338
100019e4:	100072c4 	.word	0x100072c4

100019e8 <alarm_pool_core_num>:
100019e8:	7d40      	ldrb	r0, [r0, #21]
100019ea:	4770      	bx	lr

100019ec <best_effort_wfe_or_timeout>:
100019ec:	b570      	push	{r4, r5, r6, lr}
100019ee:	b084      	sub	sp, #16
100019f0:	0005      	movs	r5, r0
100019f2:	000c      	movs	r4, r1
100019f4:	f3ef 8305 	mrs	r3, IPSR
100019f8:	2b00      	cmp	r3, #0
100019fa:	d11e      	bne.n	10001a3a <best_effort_wfe_or_timeout+0x4e>
100019fc:	f7ff feae 	bl	1000175c <alarm_pool_get_default>
10001a00:	2300      	movs	r3, #0
10001a02:	9302      	str	r3, [sp, #8]
10001a04:	9301      	str	r3, [sp, #4]
10001a06:	4b22      	ldr	r3, [pc, #136]	; (10001a90 <best_effort_wfe_or_timeout+0xa4>)
10001a08:	9300      	str	r3, [sp, #0]
10001a0a:	002a      	movs	r2, r5
10001a0c:	0023      	movs	r3, r4
10001a0e:	f7ff febb 	bl	10001788 <alarm_pool_add_alarm_at>
10001a12:	1e06      	subs	r6, r0, #0
10001a14:	dd23      	ble.n	10001a5e <best_effort_wfe_or_timeout+0x72>
10001a16:	bf20      	wfe
10001a18:	f7ff fea0 	bl	1000175c <alarm_pool_get_default>
10001a1c:	0031      	movs	r1, r6
10001a1e:	f7ff ff67 	bl	100018f0 <alarm_pool_cancel_alarm>
10001a22:	4b1c      	ldr	r3, [pc, #112]	; (10001a94 <best_effort_wfe_or_timeout+0xa8>)
10001a24:	6a5b      	ldr	r3, [r3, #36]	; 0x24
10001a26:	429c      	cmp	r4, r3
10001a28:	d82d      	bhi.n	10001a86 <best_effort_wfe_or_timeout+0x9a>
10001a2a:	4a1a      	ldr	r2, [pc, #104]	; (10001a94 <best_effort_wfe_or_timeout+0xa8>)
10001a2c:	6a92      	ldr	r2, [r2, #40]	; 0x28
10001a2e:	42aa      	cmp	r2, r5
10001a30:	d22c      	bcs.n	10001a8c <best_effort_wfe_or_timeout+0xa0>
10001a32:	429c      	cmp	r4, r3
10001a34:	d025      	beq.n	10001a82 <best_effort_wfe_or_timeout+0x96>
10001a36:	2001      	movs	r0, #1
10001a38:	e026      	b.n	10001a88 <best_effort_wfe_or_timeout+0x9c>
10001a3a:	4b16      	ldr	r3, [pc, #88]	; (10001a94 <best_effort_wfe_or_timeout+0xa8>)
10001a3c:	6a5b      	ldr	r3, [r3, #36]	; 0x24
10001a3e:	4299      	cmp	r1, r3
10001a40:	d809      	bhi.n	10001a56 <best_effort_wfe_or_timeout+0x6a>
10001a42:	4a14      	ldr	r2, [pc, #80]	; (10001a94 <best_effort_wfe_or_timeout+0xa8>)
10001a44:	6a92      	ldr	r2, [r2, #40]	; 0x28
10001a46:	4282      	cmp	r2, r0
10001a48:	d207      	bcs.n	10001a5a <best_effort_wfe_or_timeout+0x6e>
10001a4a:	4299      	cmp	r1, r3
10001a4c:	d001      	beq.n	10001a52 <best_effort_wfe_or_timeout+0x66>
10001a4e:	2001      	movs	r0, #1
10001a50:	e01a      	b.n	10001a88 <best_effort_wfe_or_timeout+0x9c>
10001a52:	2000      	movs	r0, #0
10001a54:	e018      	b.n	10001a88 <best_effort_wfe_or_timeout+0x9c>
10001a56:	2000      	movs	r0, #0
10001a58:	e016      	b.n	10001a88 <best_effort_wfe_or_timeout+0x9c>
10001a5a:	2001      	movs	r0, #1
10001a5c:	e014      	b.n	10001a88 <best_effort_wfe_or_timeout+0x9c>
10001a5e:	4b0d      	ldr	r3, [pc, #52]	; (10001a94 <best_effort_wfe_or_timeout+0xa8>)
10001a60:	6a5b      	ldr	r3, [r3, #36]	; 0x24
10001a62:	429c      	cmp	r4, r3
10001a64:	d809      	bhi.n	10001a7a <best_effort_wfe_or_timeout+0x8e>
10001a66:	4a0b      	ldr	r2, [pc, #44]	; (10001a94 <best_effort_wfe_or_timeout+0xa8>)
10001a68:	6a92      	ldr	r2, [r2, #40]	; 0x28
10001a6a:	42aa      	cmp	r2, r5
10001a6c:	d207      	bcs.n	10001a7e <best_effort_wfe_or_timeout+0x92>
10001a6e:	429c      	cmp	r4, r3
10001a70:	d001      	beq.n	10001a76 <best_effort_wfe_or_timeout+0x8a>
10001a72:	2001      	movs	r0, #1
10001a74:	e008      	b.n	10001a88 <best_effort_wfe_or_timeout+0x9c>
10001a76:	2000      	movs	r0, #0
10001a78:	e006      	b.n	10001a88 <best_effort_wfe_or_timeout+0x9c>
10001a7a:	2000      	movs	r0, #0
10001a7c:	e004      	b.n	10001a88 <best_effort_wfe_or_timeout+0x9c>
10001a7e:	2001      	movs	r0, #1
10001a80:	e002      	b.n	10001a88 <best_effort_wfe_or_timeout+0x9c>
10001a82:	2000      	movs	r0, #0
10001a84:	e000      	b.n	10001a88 <best_effort_wfe_or_timeout+0x9c>
10001a86:	2000      	movs	r0, #0
10001a88:	b004      	add	sp, #16
10001a8a:	bd70      	pop	{r4, r5, r6, pc}
10001a8c:	2001      	movs	r0, #1
10001a8e:	e7fb      	b.n	10001a88 <best_effort_wfe_or_timeout+0x9c>
10001a90:	100010dd 	.word	0x100010dd
10001a94:	40054000 	.word	0x40054000

10001a98 <hardware_alarm_irq_handler>:
10001a98:	b570      	push	{r4, r5, r6, lr}
10001a9a:	f3ef 8005 	mrs	r0, IPSR
10001a9e:	3810      	subs	r0, #16
10001aa0:	f3ef 8c10 	mrs	ip, PRIMASK
10001aa4:	b672      	cpsid	i
10001aa6:	4b1a      	ldr	r3, [pc, #104]	; (10001b10 <hardware_alarm_irq_handler+0x78>)
10001aa8:	681b      	ldr	r3, [r3, #0]
10001aaa:	2b00      	cmp	r3, #0
10001aac:	d0fb      	beq.n	10001aa6 <hardware_alarm_irq_handler+0xe>
10001aae:	f3bf 8f5f 	dmb	sy
10001ab2:	2201      	movs	r2, #1
10001ab4:	0013      	movs	r3, r2
10001ab6:	4083      	lsls	r3, r0
10001ab8:	4916      	ldr	r1, [pc, #88]	; (10001b14 <hardware_alarm_irq_handler+0x7c>)
10001aba:	634b      	str	r3, [r1, #52]	; 0x34
10001abc:	4916      	ldr	r1, [pc, #88]	; (10001b18 <hardware_alarm_irq_handler+0x80>)
10001abe:	600b      	str	r3, [r1, #0]
10001ac0:	4916      	ldr	r1, [pc, #88]	; (10001b1c <hardware_alarm_irq_handler+0x84>)
10001ac2:	7809      	ldrb	r1, [r1, #0]
10001ac4:	000c      	movs	r4, r1
10001ac6:	40c4      	lsrs	r4, r0
10001ac8:	4222      	tst	r2, r4
10001aca:	d014      	beq.n	10001af6 <hardware_alarm_irq_handler+0x5e>
10001acc:	4a11      	ldr	r2, [pc, #68]	; (10001b14 <hardware_alarm_irq_handler+0x7c>)
10001ace:	6a54      	ldr	r4, [r2, #36]	; 0x24
10001ad0:	0082      	lsls	r2, r0, #2
10001ad2:	4d13      	ldr	r5, [pc, #76]	; (10001b20 <hardware_alarm_irq_handler+0x88>)
10001ad4:	5952      	ldr	r2, [r2, r5]
10001ad6:	4294      	cmp	r4, r2
10001ad8:	d306      	bcc.n	10001ae8 <hardware_alarm_irq_handler+0x50>
10001ada:	0082      	lsls	r2, r0, #2
10001adc:	4c11      	ldr	r4, [pc, #68]	; (10001b24 <hardware_alarm_irq_handler+0x8c>)
10001ade:	5912      	ldr	r2, [r2, r4]
10001ae0:	4399      	bics	r1, r3
10001ae2:	4b0e      	ldr	r3, [pc, #56]	; (10001b1c <hardware_alarm_irq_handler+0x84>)
10001ae4:	7019      	strb	r1, [r3, #0]
10001ae6:	e007      	b.n	10001af8 <hardware_alarm_irq_handler+0x60>
10001ae8:	4a0a      	ldr	r2, [pc, #40]	; (10001b14 <hardware_alarm_irq_handler+0x7c>)
10001aea:	1d03      	adds	r3, r0, #4
10001aec:	009b      	lsls	r3, r3, #2
10001aee:	5899      	ldr	r1, [r3, r2]
10001af0:	5099      	str	r1, [r3, r2]
10001af2:	2200      	movs	r2, #0
10001af4:	e000      	b.n	10001af8 <hardware_alarm_irq_handler+0x60>
10001af6:	2200      	movs	r2, #0
10001af8:	f3bf 8f5f 	dmb	sy
10001afc:	4b04      	ldr	r3, [pc, #16]	; (10001b10 <hardware_alarm_irq_handler+0x78>)
10001afe:	2100      	movs	r1, #0
10001b00:	6019      	str	r1, [r3, #0]
10001b02:	f38c 8810 	msr	PRIMASK, ip
10001b06:	2a00      	cmp	r2, #0
10001b08:	d000      	beq.n	10001b0c <hardware_alarm_irq_handler+0x74>
10001b0a:	4790      	blx	r2
10001b0c:	bd70      	pop	{r4, r5, r6, pc}
10001b0e:	46c0      	nop			; (mov r8, r8)
10001b10:	d0000128 	.word	0xd0000128
10001b14:	40054000 	.word	0x40054000
10001b18:	4005703c 	.word	0x4005703c
10001b1c:	20001a55 	.word	0x20001a55
10001b20:	20001a2c 	.word	0x20001a2c
10001b24:	20001218 	.word	0x20001218

10001b28 <hardware_alarm_claim>:
10001b28:	b510      	push	{r4, lr}
10001b2a:	0001      	movs	r1, r0
10001b2c:	4a02      	ldr	r2, [pc, #8]	; (10001b38 <hardware_alarm_claim+0x10>)
10001b2e:	4803      	ldr	r0, [pc, #12]	; (10001b3c <hardware_alarm_claim+0x14>)
10001b30:	f7fe feba 	bl	100008a8 <hw_claim_or_assert>
10001b34:	bd10      	pop	{r4, pc}
10001b36:	46c0      	nop			; (mov r8, r8)
10001b38:	100073a4 	.word	0x100073a4
10001b3c:	20001a50 	.word	0x20001a50

10001b40 <time_us_64>:
10001b40:	4b04      	ldr	r3, [pc, #16]	; (10001b54 <time_us_64+0x14>)
10001b42:	6a5b      	ldr	r3, [r3, #36]	; 0x24
10001b44:	4a03      	ldr	r2, [pc, #12]	; (10001b54 <time_us_64+0x14>)
10001b46:	6a90      	ldr	r0, [r2, #40]	; 0x28
10001b48:	0019      	movs	r1, r3
10001b4a:	6a53      	ldr	r3, [r2, #36]	; 0x24
10001b4c:	4299      	cmp	r1, r3
10001b4e:	d1f9      	bne.n	10001b44 <time_us_64+0x4>
10001b50:	4770      	bx	lr
10001b52:	46c0      	nop			; (mov r8, r8)
10001b54:	40054000 	.word	0x40054000

10001b58 <hardware_alarm_set_callback>:
10001b58:	b570      	push	{r4, r5, r6, lr}
10001b5a:	0004      	movs	r4, r0
10001b5c:	000d      	movs	r5, r1
10001b5e:	f3ef 8610 	mrs	r6, PRIMASK
10001b62:	b672      	cpsid	i
10001b64:	4b1b      	ldr	r3, [pc, #108]	; (10001bd4 <hardware_alarm_set_callback+0x7c>)
10001b66:	681b      	ldr	r3, [r3, #0]
10001b68:	2b00      	cmp	r3, #0
10001b6a:	d0fb      	beq.n	10001b64 <hardware_alarm_set_callback+0xc>
10001b6c:	f3bf 8f5f 	dmb	sy
10001b70:	2d00      	cmp	r5, #0
10001b72:	d01c      	beq.n	10001bae <hardware_alarm_set_callback+0x56>
10001b74:	0020      	movs	r0, r4
10001b76:	f7fe ff8b 	bl	10000a90 <irq_get_vtable_handler>
10001b7a:	4b17      	ldr	r3, [pc, #92]	; (10001bd8 <hardware_alarm_set_callback+0x80>)
10001b7c:	4283      	cmp	r3, r0
10001b7e:	d00b      	beq.n	10001b98 <hardware_alarm_set_callback+0x40>
10001b80:	0019      	movs	r1, r3
10001b82:	0020      	movs	r0, r4
10001b84:	f7fe ff9e 	bl	10000ac4 <irq_set_exclusive_handler>
10001b88:	2101      	movs	r1, #1
10001b8a:	0020      	movs	r0, r4
10001b8c:	f7fe ff70 	bl	10000a70 <irq_set_enabled>
10001b90:	2301      	movs	r3, #1
10001b92:	40a3      	lsls	r3, r4
10001b94:	4a11      	ldr	r2, [pc, #68]	; (10001bdc <hardware_alarm_set_callback+0x84>)
10001b96:	6013      	str	r3, [r2, #0]
10001b98:	00a4      	lsls	r4, r4, #2
10001b9a:	4b11      	ldr	r3, [pc, #68]	; (10001be0 <hardware_alarm_set_callback+0x88>)
10001b9c:	50e5      	str	r5, [r4, r3]
10001b9e:	f3bf 8f5f 	dmb	sy
10001ba2:	4b0c      	ldr	r3, [pc, #48]	; (10001bd4 <hardware_alarm_set_callback+0x7c>)
10001ba4:	2200      	movs	r2, #0
10001ba6:	601a      	str	r2, [r3, #0]
10001ba8:	f386 8810 	msr	PRIMASK, r6
10001bac:	bd70      	pop	{r4, r5, r6, pc}
10001bae:	00a2      	lsls	r2, r4, #2
10001bb0:	4b0b      	ldr	r3, [pc, #44]	; (10001be0 <hardware_alarm_set_callback+0x88>)
10001bb2:	2100      	movs	r1, #0
10001bb4:	50d1      	str	r1, [r2, r3]
10001bb6:	2201      	movs	r2, #1
10001bb8:	40a2      	lsls	r2, r4
10001bba:	490a      	ldr	r1, [pc, #40]	; (10001be4 <hardware_alarm_set_callback+0x8c>)
10001bbc:	780b      	ldrb	r3, [r1, #0]
10001bbe:	4393      	bics	r3, r2
10001bc0:	700b      	strb	r3, [r1, #0]
10001bc2:	4905      	ldr	r1, [pc, #20]	; (10001bd8 <hardware_alarm_set_callback+0x80>)
10001bc4:	0020      	movs	r0, r4
10001bc6:	f7ff f8c1 	bl	10000d4c <irq_remove_handler>
10001bca:	2100      	movs	r1, #0
10001bcc:	0020      	movs	r0, r4
10001bce:	f7fe ff4f 	bl	10000a70 <irq_set_enabled>
10001bd2:	e7e4      	b.n	10001b9e <hardware_alarm_set_callback+0x46>
10001bd4:	d0000128 	.word	0xd0000128
10001bd8:	10001a99 	.word	0x10001a99
10001bdc:	40056038 	.word	0x40056038
10001be0:	20001218 	.word	0x20001218
10001be4:	20001a55 	.word	0x20001a55

10001be8 <hardware_alarm_set_target>:
10001be8:	b5f0      	push	{r4, r5, r6, r7, lr}
10001bea:	46de      	mov	lr, fp
10001bec:	b500      	push	{lr}
10001bee:	b084      	sub	sp, #16
10001bf0:	0004      	movs	r4, r0
10001bf2:	0015      	movs	r5, r2
10001bf4:	9201      	str	r2, [sp, #4]
10001bf6:	001e      	movs	r6, r3
10001bf8:	9302      	str	r3, [sp, #8]
10001bfa:	f7ff ffa1 	bl	10001b40 <time_us_64>
10001bfe:	9503      	str	r5, [sp, #12]
10001c00:	428e      	cmp	r6, r1
10001c02:	d802      	bhi.n	10001c0a <hardware_alarm_set_target+0x22>
10001c04:	d14e      	bne.n	10001ca4 <hardware_alarm_set_target+0xbc>
10001c06:	4285      	cmp	r5, r0
10001c08:	d94c      	bls.n	10001ca4 <hardware_alarm_set_target+0xbc>
10001c0a:	f3ef 8b10 	mrs	fp, PRIMASK
10001c0e:	b672      	cpsid	i
10001c10:	4b27      	ldr	r3, [pc, #156]	; (10001cb0 <hardware_alarm_set_target+0xc8>)
10001c12:	681b      	ldr	r3, [r3, #0]
10001c14:	2b00      	cmp	r3, #0
10001c16:	d0fb      	beq.n	10001c10 <hardware_alarm_set_target+0x28>
10001c18:	f3bf 8f5f 	dmb	sy
10001c1c:	4a25      	ldr	r2, [pc, #148]	; (10001cb4 <hardware_alarm_set_target+0xcc>)
10001c1e:	7817      	ldrb	r7, [r2, #0]
10001c20:	2501      	movs	r5, #1
10001c22:	40a5      	lsls	r5, r4
10001c24:	b2eb      	uxtb	r3, r5
10001c26:	433b      	orrs	r3, r7
10001c28:	7013      	strb	r3, [r2, #0]
10001c2a:	4b23      	ldr	r3, [pc, #140]	; (10001cb8 <hardware_alarm_set_target+0xd0>)
10001c2c:	635d      	str	r5, [r3, #52]	; 0x34
10001c2e:	1d22      	adds	r2, r4, #4
10001c30:	0092      	lsls	r2, r2, #2
10001c32:	9901      	ldr	r1, [sp, #4]
10001c34:	50d1      	str	r1, [r2, r3]
10001c36:	00a2      	lsls	r2, r4, #2
10001c38:	4920      	ldr	r1, [pc, #128]	; (10001cbc <hardware_alarm_set_target+0xd4>)
10001c3a:	9802      	ldr	r0, [sp, #8]
10001c3c:	5050      	str	r0, [r2, r1]
10001c3e:	6a1b      	ldr	r3, [r3, #32]
10001c40:	422b      	tst	r3, r5
10001c42:	d112      	bne.n	10001c6a <hardware_alarm_set_target+0x82>
10001c44:	4b1c      	ldr	r3, [pc, #112]	; (10001cb8 <hardware_alarm_set_target+0xd0>)
10001c46:	6c1b      	ldr	r3, [r3, #64]	; 0x40
10001c48:	422b      	tst	r3, r5
10001c4a:	d008      	beq.n	10001c5e <hardware_alarm_set_target+0x76>
10001c4c:	2000      	movs	r0, #0
10001c4e:	f3bf 8f5f 	dmb	sy
10001c52:	4b17      	ldr	r3, [pc, #92]	; (10001cb0 <hardware_alarm_set_target+0xc8>)
10001c54:	2200      	movs	r2, #0
10001c56:	601a      	str	r2, [r3, #0]
10001c58:	f38b 8810 	msr	PRIMASK, fp
10001c5c:	e023      	b.n	10001ca6 <hardware_alarm_set_target+0xbe>
10001c5e:	4b18      	ldr	r3, [pc, #96]	; (10001cc0 <hardware_alarm_set_target+0xd8>)
10001c60:	4a18      	ldr	r2, [pc, #96]	; (10001cc4 <hardware_alarm_set_target+0xdc>)
10001c62:	21c5      	movs	r1, #197	; 0xc5
10001c64:	4818      	ldr	r0, [pc, #96]	; (10001cc8 <hardware_alarm_set_target+0xe0>)
10001c66:	f000 fc93 	bl	10002590 <__assert_func>
10001c6a:	f7ff ff69 	bl	10001b40 <time_us_64>
10001c6e:	428e      	cmp	r6, r1
10001c70:	d814      	bhi.n	10001c9c <hardware_alarm_set_target+0xb4>
10001c72:	d102      	bne.n	10001c7a <hardware_alarm_set_target+0x92>
10001c74:	9b03      	ldr	r3, [sp, #12]
10001c76:	4283      	cmp	r3, r0
10001c78:	d810      	bhi.n	10001c9c <hardware_alarm_set_target+0xb4>
10001c7a:	4b0e      	ldr	r3, [pc, #56]	; (10001cb4 <hardware_alarm_set_target+0xcc>)
10001c7c:	781b      	ldrb	r3, [r3, #0]
10001c7e:	42bb      	cmp	r3, r7
10001c80:	d00e      	beq.n	10001ca0 <hardware_alarm_set_target+0xb8>
10001c82:	4b0d      	ldr	r3, [pc, #52]	; (10001cb8 <hardware_alarm_set_target+0xd0>)
10001c84:	621d      	str	r5, [r3, #32]
10001c86:	635d      	str	r5, [r3, #52]	; 0x34
10001c88:	201f      	movs	r0, #31
10001c8a:	4004      	ands	r4, r0
10001c8c:	2301      	movs	r3, #1
10001c8e:	40a3      	lsls	r3, r4
10001c90:	4a0e      	ldr	r2, [pc, #56]	; (10001ccc <hardware_alarm_set_target+0xe4>)
10001c92:	6013      	str	r3, [r2, #0]
10001c94:	4b07      	ldr	r3, [pc, #28]	; (10001cb4 <hardware_alarm_set_target+0xcc>)
10001c96:	701f      	strb	r7, [r3, #0]
10001c98:	381e      	subs	r0, #30
10001c9a:	e7d8      	b.n	10001c4e <hardware_alarm_set_target+0x66>
10001c9c:	2000      	movs	r0, #0
10001c9e:	e7d6      	b.n	10001c4e <hardware_alarm_set_target+0x66>
10001ca0:	2001      	movs	r0, #1
10001ca2:	e7d4      	b.n	10001c4e <hardware_alarm_set_target+0x66>
10001ca4:	2001      	movs	r0, #1
10001ca6:	b004      	add	sp, #16
10001ca8:	bc80      	pop	{r7}
10001caa:	46bb      	mov	fp, r7
10001cac:	bdf0      	pop	{r4, r5, r6, r7, pc}
10001cae:	46c0      	nop			; (mov r8, r8)
10001cb0:	d0000128 	.word	0xd0000128
10001cb4:	20001a55 	.word	0x20001a55
10001cb8:	40054000 	.word	0x40054000
10001cbc:	20001a2c 	.word	0x20001a2c
10001cc0:	100073c8 	.word	0x100073c8
10001cc4:	1000744c 	.word	0x1000744c
10001cc8:	100073ec 	.word	0x100073ec
10001ccc:	e000e280 	.word	0xe000e280

10001cd0 <hardware_alarm_cancel>:
10001cd0:	f3ef 8c10 	mrs	ip, PRIMASK
10001cd4:	b672      	cpsid	i
10001cd6:	4b0b      	ldr	r3, [pc, #44]	; (10001d04 <hardware_alarm_cancel+0x34>)
10001cd8:	681b      	ldr	r3, [r3, #0]
10001cda:	2b00      	cmp	r3, #0
10001cdc:	d0fb      	beq.n	10001cd6 <hardware_alarm_cancel+0x6>
10001cde:	f3bf 8f5f 	dmb	sy
10001ce2:	2301      	movs	r3, #1
10001ce4:	4083      	lsls	r3, r0
10001ce6:	4a08      	ldr	r2, [pc, #32]	; (10001d08 <hardware_alarm_cancel+0x38>)
10001ce8:	6213      	str	r3, [r2, #32]
10001cea:	4908      	ldr	r1, [pc, #32]	; (10001d0c <hardware_alarm_cancel+0x3c>)
10001cec:	780a      	ldrb	r2, [r1, #0]
10001cee:	439a      	bics	r2, r3
10001cf0:	700a      	strb	r2, [r1, #0]
10001cf2:	f3bf 8f5f 	dmb	sy
10001cf6:	4b03      	ldr	r3, [pc, #12]	; (10001d04 <hardware_alarm_cancel+0x34>)
10001cf8:	2200      	movs	r2, #0
10001cfa:	601a      	str	r2, [r3, #0]
10001cfc:	f38c 8810 	msr	PRIMASK, ip
10001d00:	4770      	bx	lr
10001d02:	46c0      	nop			; (mov r8, r8)
10001d04:	d0000128 	.word	0xd0000128
10001d08:	40054000 	.word	0x40054000
10001d0c:	20001a55 	.word	0x20001a55

10001d10 <ph_add_child_node>:
10001d10:	b510      	push	{r4, lr}
10001d12:	2900      	cmp	r1, #0
10001d14:	d01e      	beq.n	10001d54 <ph_add_child_node+0x44>
10001d16:	7b03      	ldrb	r3, [r0, #12]
10001d18:	4299      	cmp	r1, r3
10001d1a:	d81b      	bhi.n	10001d54 <ph_add_child_node+0x44>
10001d1c:	004b      	lsls	r3, r1, #1
10001d1e:	185b      	adds	r3, r3, r1
10001d20:	3b03      	subs	r3, #3
10001d22:	6804      	ldr	r4, [r0, #0]
10001d24:	46a4      	mov	ip, r4
10001d26:	4463      	add	r3, ip
10001d28:	2900      	cmp	r1, #0
10001d2a:	d019      	beq.n	10001d60 <ph_add_child_node+0x50>
10001d2c:	2a00      	cmp	r2, #0
10001d2e:	d01d      	beq.n	10001d6c <ph_add_child_node+0x5c>
10001d30:	4291      	cmp	r1, r2
10001d32:	d021      	beq.n	10001d78 <ph_add_child_node+0x68>
10001d34:	2a00      	cmp	r2, #0
10001d36:	d025      	beq.n	10001d84 <ph_add_child_node+0x74>
10001d38:	7b04      	ldrb	r4, [r0, #12]
10001d3a:	42a2      	cmp	r2, r4
10001d3c:	d822      	bhi.n	10001d84 <ph_add_child_node+0x74>
10001d3e:	6804      	ldr	r4, [r0, #0]
10001d40:	0050      	lsls	r0, r2, #1
10001d42:	1880      	adds	r0, r0, r2
10001d44:	3803      	subs	r0, #3
10001d46:	1820      	adds	r0, r4, r0
10001d48:	7081      	strb	r1, [r0, #2]
10001d4a:	7819      	ldrb	r1, [r3, #0]
10001d4c:	2900      	cmp	r1, #0
10001d4e:	d11f      	bne.n	10001d90 <ph_add_child_node+0x80>
10001d50:	701a      	strb	r2, [r3, #0]
10001d52:	bd10      	pop	{r4, pc}
10001d54:	4b10      	ldr	r3, [pc, #64]	; (10001d98 <ph_add_child_node+0x88>)
10001d56:	4a11      	ldr	r2, [pc, #68]	; (10001d9c <ph_add_child_node+0x8c>)
10001d58:	2168      	movs	r1, #104	; 0x68
10001d5a:	4811      	ldr	r0, [pc, #68]	; (10001da0 <ph_add_child_node+0x90>)
10001d5c:	f000 fc18 	bl	10002590 <__assert_func>
10001d60:	4b10      	ldr	r3, [pc, #64]	; (10001da4 <ph_add_child_node+0x94>)
10001d62:	4a11      	ldr	r2, [pc, #68]	; (10001da8 <ph_add_child_node+0x98>)
10001d64:	316f      	adds	r1, #111	; 0x6f
10001d66:	480e      	ldr	r0, [pc, #56]	; (10001da0 <ph_add_child_node+0x90>)
10001d68:	f000 fc12 	bl	10002590 <__assert_func>
10001d6c:	4b0f      	ldr	r3, [pc, #60]	; (10001dac <ph_add_child_node+0x9c>)
10001d6e:	4a0e      	ldr	r2, [pc, #56]	; (10001da8 <ph_add_child_node+0x98>)
10001d70:	2170      	movs	r1, #112	; 0x70
10001d72:	480b      	ldr	r0, [pc, #44]	; (10001da0 <ph_add_child_node+0x90>)
10001d74:	f000 fc0c 	bl	10002590 <__assert_func>
10001d78:	4b0d      	ldr	r3, [pc, #52]	; (10001db0 <ph_add_child_node+0xa0>)
10001d7a:	4a0b      	ldr	r2, [pc, #44]	; (10001da8 <ph_add_child_node+0x98>)
10001d7c:	2171      	movs	r1, #113	; 0x71
10001d7e:	4808      	ldr	r0, [pc, #32]	; (10001da0 <ph_add_child_node+0x90>)
10001d80:	f000 fc06 	bl	10002590 <__assert_func>
10001d84:	4b04      	ldr	r3, [pc, #16]	; (10001d98 <ph_add_child_node+0x88>)
10001d86:	4a05      	ldr	r2, [pc, #20]	; (10001d9c <ph_add_child_node+0x8c>)
10001d88:	2168      	movs	r1, #104	; 0x68
10001d8a:	4805      	ldr	r0, [pc, #20]	; (10001da0 <ph_add_child_node+0x90>)
10001d8c:	f000 fc00 	bl	10002590 <__assert_func>
10001d90:	7041      	strb	r1, [r0, #1]
10001d92:	701a      	strb	r2, [r3, #0]
10001d94:	e7dd      	b.n	10001d52 <ph_add_child_node+0x42>
10001d96:	46c0      	nop			; (mov r8, r8)
10001d98:	10007108 	.word	0x10007108
10001d9c:	10007570 	.word	0x10007570
10001da0:	10007124 	.word	0x10007124
10001da4:	1000718c 	.word	0x1000718c
10001da8:	1000755c 	.word	0x1000755c
10001dac:	10007198 	.word	0x10007198
10001db0:	100071a4 	.word	0x100071a4

10001db4 <ph_merge_nodes>:
10001db4:	b570      	push	{r4, r5, r6, lr}
10001db6:	0006      	movs	r6, r0
10001db8:	000d      	movs	r5, r1
10001dba:	0014      	movs	r4, r2
10001dbc:	2900      	cmp	r1, #0
10001dbe:	d014      	beq.n	10001dea <ph_merge_nodes+0x36>
10001dc0:	2a00      	cmp	r2, #0
10001dc2:	d014      	beq.n	10001dee <ph_merge_nodes+0x3a>
10001dc4:	6880      	ldr	r0, [r0, #8]
10001dc6:	6873      	ldr	r3, [r6, #4]
10001dc8:	4798      	blx	r3
10001dca:	2800      	cmp	r0, #0
10001dcc:	d006      	beq.n	10001ddc <ph_merge_nodes+0x28>
10001dce:	0022      	movs	r2, r4
10001dd0:	0029      	movs	r1, r5
10001dd2:	0030      	movs	r0, r6
10001dd4:	f7ff ff9c 	bl	10001d10 <ph_add_child_node>
10001dd8:	0028      	movs	r0, r5
10001dda:	e007      	b.n	10001dec <ph_merge_nodes+0x38>
10001ddc:	002a      	movs	r2, r5
10001dde:	0021      	movs	r1, r4
10001de0:	0030      	movs	r0, r6
10001de2:	f7ff ff95 	bl	10001d10 <ph_add_child_node>
10001de6:	0020      	movs	r0, r4
10001de8:	e000      	b.n	10001dec <ph_merge_nodes+0x38>
10001dea:	0010      	movs	r0, r2
10001dec:	bd70      	pop	{r4, r5, r6, pc}
10001dee:	0008      	movs	r0, r1
10001df0:	e7fc      	b.n	10001dec <ph_merge_nodes+0x38>
	...

10001df4 <ph_clear>:
10001df4:	b510      	push	{r4, lr}
10001df6:	2300      	movs	r3, #0
10001df8:	7343      	strb	r3, [r0, #13]
10001dfa:	3301      	adds	r3, #1
10001dfc:	7383      	strb	r3, [r0, #14]
10001dfe:	7b03      	ldrb	r3, [r0, #12]
10001e00:	73c3      	strb	r3, [r0, #15]
10001e02:	2301      	movs	r3, #1
10001e04:	7b02      	ldrb	r2, [r0, #12]
10001e06:	429a      	cmp	r2, r3
10001e08:	d914      	bls.n	10001e34 <ph_clear+0x40>
10001e0a:	2b00      	cmp	r3, #0
10001e0c:	d00c      	beq.n	10001e28 <ph_clear+0x34>
10001e0e:	7b02      	ldrb	r2, [r0, #12]
10001e10:	4293      	cmp	r3, r2
10001e12:	d809      	bhi.n	10001e28 <ph_clear+0x34>
10001e14:	005a      	lsls	r2, r3, #1
10001e16:	18d2      	adds	r2, r2, r3
10001e18:	3a03      	subs	r2, #3
10001e1a:	6801      	ldr	r1, [r0, #0]
10001e1c:	468c      	mov	ip, r1
10001e1e:	4462      	add	r2, ip
10001e20:	3301      	adds	r3, #1
10001e22:	b2db      	uxtb	r3, r3
10001e24:	7053      	strb	r3, [r2, #1]
10001e26:	e7ed      	b.n	10001e04 <ph_clear+0x10>
10001e28:	4b0b      	ldr	r3, [pc, #44]	; (10001e58 <ph_clear+0x64>)
10001e2a:	4a0c      	ldr	r2, [pc, #48]	; (10001e5c <ph_clear+0x68>)
10001e2c:	2168      	movs	r1, #104	; 0x68
10001e2e:	480c      	ldr	r0, [pc, #48]	; (10001e60 <ph_clear+0x6c>)
10001e30:	f000 fbae 	bl	10002590 <__assert_func>
10001e34:	2a00      	cmp	r2, #0
10001e36:	d009      	beq.n	10001e4c <ph_clear+0x58>
10001e38:	4292      	cmp	r2, r2
10001e3a:	d807      	bhi.n	10001e4c <ph_clear+0x58>
10001e3c:	6801      	ldr	r1, [r0, #0]
10001e3e:	0053      	lsls	r3, r2, #1
10001e40:	189a      	adds	r2, r3, r2
10001e42:	3a03      	subs	r2, #3
10001e44:	188a      	adds	r2, r1, r2
10001e46:	2300      	movs	r3, #0
10001e48:	7053      	strb	r3, [r2, #1]
10001e4a:	bd10      	pop	{r4, pc}
10001e4c:	4b02      	ldr	r3, [pc, #8]	; (10001e58 <ph_clear+0x64>)
10001e4e:	4a03      	ldr	r2, [pc, #12]	; (10001e5c <ph_clear+0x68>)
10001e50:	2168      	movs	r1, #104	; 0x68
10001e52:	4803      	ldr	r0, [pc, #12]	; (10001e60 <ph_clear+0x6c>)
10001e54:	f000 fb9c 	bl	10002590 <__assert_func>
10001e58:	10007108 	.word	0x10007108
10001e5c:	10007570 	.word	0x10007570
10001e60:	10007124 	.word	0x10007124

10001e64 <ph_post_alloc_init>:
10001e64:	b510      	push	{r4, lr}
10001e66:	7301      	strb	r1, [r0, #12]
10001e68:	6042      	str	r2, [r0, #4]
10001e6a:	6083      	str	r3, [r0, #8]
10001e6c:	f7ff ffc2 	bl	10001df4 <ph_clear>
10001e70:	bd10      	pop	{r4, pc}
	...

10001e74 <ph_merge_two_pass>:
10001e74:	b570      	push	{r4, r5, r6, lr}
10001e76:	0004      	movs	r4, r0
10001e78:	1e08      	subs	r0, r1, #0
10001e7a:	d100      	bne.n	10001e7e <ph_merge_two_pass+0xa>
10001e7c:	bd70      	pop	{r4, r5, r6, pc}
10001e7e:	2900      	cmp	r1, #0
10001e80:	d034      	beq.n	10001eec <ph_merge_two_pass+0x78>
10001e82:	7b23      	ldrb	r3, [r4, #12]
10001e84:	4299      	cmp	r1, r3
10001e86:	d831      	bhi.n	10001eec <ph_merge_two_pass+0x78>
10001e88:	004b      	lsls	r3, r1, #1
10001e8a:	185b      	adds	r3, r3, r1
10001e8c:	3b03      	subs	r3, #3
10001e8e:	6822      	ldr	r2, [r4, #0]
10001e90:	4694      	mov	ip, r2
10001e92:	4463      	add	r3, ip
10001e94:	785a      	ldrb	r2, [r3, #1]
10001e96:	2a00      	cmp	r2, #0
10001e98:	d0f0      	beq.n	10001e7c <ph_merge_two_pass+0x8>
10001e9a:	d02d      	beq.n	10001ef8 <ph_merge_two_pass+0x84>
10001e9c:	7b23      	ldrb	r3, [r4, #12]
10001e9e:	429a      	cmp	r2, r3
10001ea0:	d82a      	bhi.n	10001ef8 <ph_merge_two_pass+0x84>
10001ea2:	0053      	lsls	r3, r2, #1
10001ea4:	189b      	adds	r3, r3, r2
10001ea6:	3b03      	subs	r3, #3
10001ea8:	6821      	ldr	r1, [r4, #0]
10001eaa:	468c      	mov	ip, r1
10001eac:	4463      	add	r3, ip
10001eae:	785d      	ldrb	r5, [r3, #1]
10001eb0:	2100      	movs	r1, #0
10001eb2:	7059      	strb	r1, [r3, #1]
10001eb4:	2800      	cmp	r0, #0
10001eb6:	d025      	beq.n	10001f04 <ph_merge_two_pass+0x90>
10001eb8:	7b23      	ldrb	r3, [r4, #12]
10001eba:	4298      	cmp	r0, r3
10001ebc:	d822      	bhi.n	10001f04 <ph_merge_two_pass+0x90>
10001ebe:	0043      	lsls	r3, r0, #1
10001ec0:	181b      	adds	r3, r3, r0
10001ec2:	3b03      	subs	r3, #3
10001ec4:	6821      	ldr	r1, [r4, #0]
10001ec6:	468c      	mov	ip, r1
10001ec8:	4463      	add	r3, ip
10001eca:	2100      	movs	r1, #0
10001ecc:	7059      	strb	r1, [r3, #1]
10001ece:	0001      	movs	r1, r0
10001ed0:	0020      	movs	r0, r4
10001ed2:	f7ff ff6f 	bl	10001db4 <ph_merge_nodes>
10001ed6:	0006      	movs	r6, r0
10001ed8:	0029      	movs	r1, r5
10001eda:	0020      	movs	r0, r4
10001edc:	f7ff ffca 	bl	10001e74 <ph_merge_two_pass>
10001ee0:	0002      	movs	r2, r0
10001ee2:	0031      	movs	r1, r6
10001ee4:	0020      	movs	r0, r4
10001ee6:	f7ff ff65 	bl	10001db4 <ph_merge_nodes>
10001eea:	e7c7      	b.n	10001e7c <ph_merge_two_pass+0x8>
10001eec:	4b08      	ldr	r3, [pc, #32]	; (10001f10 <ph_merge_two_pass+0x9c>)
10001eee:	4a09      	ldr	r2, [pc, #36]	; (10001f14 <ph_merge_two_pass+0xa0>)
10001ef0:	2168      	movs	r1, #104	; 0x68
10001ef2:	4809      	ldr	r0, [pc, #36]	; (10001f18 <ph_merge_two_pass+0xa4>)
10001ef4:	f000 fb4c 	bl	10002590 <__assert_func>
10001ef8:	4b05      	ldr	r3, [pc, #20]	; (10001f10 <ph_merge_two_pass+0x9c>)
10001efa:	4a06      	ldr	r2, [pc, #24]	; (10001f14 <ph_merge_two_pass+0xa0>)
10001efc:	2168      	movs	r1, #104	; 0x68
10001efe:	4806      	ldr	r0, [pc, #24]	; (10001f18 <ph_merge_two_pass+0xa4>)
10001f00:	f000 fb46 	bl	10002590 <__assert_func>
10001f04:	4b02      	ldr	r3, [pc, #8]	; (10001f10 <ph_merge_two_pass+0x9c>)
10001f06:	4a03      	ldr	r2, [pc, #12]	; (10001f14 <ph_merge_two_pass+0xa0>)
10001f08:	2168      	movs	r1, #104	; 0x68
10001f0a:	4803      	ldr	r0, [pc, #12]	; (10001f18 <ph_merge_two_pass+0xa4>)
10001f0c:	f000 fb40 	bl	10002590 <__assert_func>
10001f10:	10007108 	.word	0x10007108
10001f14:	10007570 	.word	0x10007570
10001f18:	10007124 	.word	0x10007124

10001f1c <ph_remove_any_head>:
10001f1c:	b570      	push	{r4, r5, r6, lr}
10001f1e:	0005      	movs	r5, r0
10001f20:	000c      	movs	r4, r1
10001f22:	0016      	movs	r6, r2
10001f24:	2900      	cmp	r1, #0
10001f26:	d02f      	beq.n	10001f88 <ph_remove_any_head+0x6c>
10001f28:	d034      	beq.n	10001f94 <ph_remove_any_head+0x78>
10001f2a:	7b03      	ldrb	r3, [r0, #12]
10001f2c:	4299      	cmp	r1, r3
10001f2e:	d831      	bhi.n	10001f94 <ph_remove_any_head+0x78>
10001f30:	004b      	lsls	r3, r1, #1
10001f32:	185b      	adds	r3, r3, r1
10001f34:	3b03      	subs	r3, #3
10001f36:	6802      	ldr	r2, [r0, #0]
10001f38:	4694      	mov	ip, r2
10001f3a:	4463      	add	r3, ip
10001f3c:	785a      	ldrb	r2, [r3, #1]
10001f3e:	2a00      	cmp	r2, #0
10001f40:	d12e      	bne.n	10001fa0 <ph_remove_any_head+0x84>
10001f42:	789a      	ldrb	r2, [r3, #2]
10001f44:	2a00      	cmp	r2, #0
10001f46:	d131      	bne.n	10001fac <ph_remove_any_head+0x90>
10001f48:	7819      	ldrb	r1, [r3, #0]
10001f4a:	f7ff ff93 	bl	10001e74 <ph_merge_two_pass>
10001f4e:	0003      	movs	r3, r0
10001f50:	2e00      	cmp	r6, #0
10001f52:	d00a      	beq.n	10001f6a <ph_remove_any_head+0x4e>
10001f54:	7bea      	ldrb	r2, [r5, #15]
10001f56:	2a00      	cmp	r2, #0
10001f58:	d12e      	bne.n	10001fb8 <ph_remove_any_head+0x9c>
10001f5a:	7baa      	ldrb	r2, [r5, #14]
10001f5c:	2a00      	cmp	r2, #0
10001f5e:	d103      	bne.n	10001f68 <ph_remove_any_head+0x4c>
10001f60:	7bea      	ldrb	r2, [r5, #15]
10001f62:	2a00      	cmp	r2, #0
10001f64:	d13b      	bne.n	10001fde <ph_remove_any_head+0xc2>
10001f66:	73ac      	strb	r4, [r5, #14]
10001f68:	73ec      	strb	r4, [r5, #15]
10001f6a:	2b00      	cmp	r3, #0
10001f6c:	d13d      	bne.n	10001fea <ph_remove_any_head+0xce>
10001f6e:	2c00      	cmp	r4, #0
10001f70:	d04f      	beq.n	10002012 <ph_remove_any_head+0xf6>
10001f72:	7b2b      	ldrb	r3, [r5, #12]
10001f74:	429c      	cmp	r4, r3
10001f76:	d84c      	bhi.n	10002012 <ph_remove_any_head+0xf6>
10001f78:	682b      	ldr	r3, [r5, #0]
10001f7a:	0061      	lsls	r1, r4, #1
10001f7c:	190c      	adds	r4, r1, r4
10001f7e:	3c03      	subs	r4, #3
10001f80:	191c      	adds	r4, r3, r4
10001f82:	2300      	movs	r3, #0
10001f84:	7063      	strb	r3, [r4, #1]
10001f86:	bd70      	pop	{r4, r5, r6, pc}
10001f88:	4b25      	ldr	r3, [pc, #148]	; (10002020 <ph_remove_any_head+0x104>)
10001f8a:	4a26      	ldr	r2, [pc, #152]	; (10002024 <ph_remove_any_head+0x108>)
10001f8c:	2138      	movs	r1, #56	; 0x38
10001f8e:	4826      	ldr	r0, [pc, #152]	; (10002028 <ph_remove_any_head+0x10c>)
10001f90:	f000 fafe 	bl	10002590 <__assert_func>
10001f94:	4b25      	ldr	r3, [pc, #148]	; (1000202c <ph_remove_any_head+0x110>)
10001f96:	4a26      	ldr	r2, [pc, #152]	; (10002030 <ph_remove_any_head+0x114>)
10001f98:	2168      	movs	r1, #104	; 0x68
10001f9a:	4826      	ldr	r0, [pc, #152]	; (10002034 <ph_remove_any_head+0x118>)
10001f9c:	f000 faf8 	bl	10002590 <__assert_func>
10001fa0:	4b25      	ldr	r3, [pc, #148]	; (10002038 <ph_remove_any_head+0x11c>)
10001fa2:	4a20      	ldr	r2, [pc, #128]	; (10002024 <ph_remove_any_head+0x108>)
10001fa4:	213a      	movs	r1, #58	; 0x3a
10001fa6:	4820      	ldr	r0, [pc, #128]	; (10002028 <ph_remove_any_head+0x10c>)
10001fa8:	f000 faf2 	bl	10002590 <__assert_func>
10001fac:	4b23      	ldr	r3, [pc, #140]	; (1000203c <ph_remove_any_head+0x120>)
10001fae:	4a1d      	ldr	r2, [pc, #116]	; (10002024 <ph_remove_any_head+0x108>)
10001fb0:	213b      	movs	r1, #59	; 0x3b
10001fb2:	481d      	ldr	r0, [pc, #116]	; (10002028 <ph_remove_any_head+0x10c>)
10001fb4:	f000 faec 	bl	10002590 <__assert_func>
10001fb8:	2a00      	cmp	r2, #0
10001fba:	d00a      	beq.n	10001fd2 <ph_remove_any_head+0xb6>
10001fbc:	7b29      	ldrb	r1, [r5, #12]
10001fbe:	428a      	cmp	r2, r1
10001fc0:	d807      	bhi.n	10001fd2 <ph_remove_any_head+0xb6>
10001fc2:	0051      	lsls	r1, r2, #1
10001fc4:	188a      	adds	r2, r1, r2
10001fc6:	3a03      	subs	r2, #3
10001fc8:	6829      	ldr	r1, [r5, #0]
10001fca:	468c      	mov	ip, r1
10001fcc:	4462      	add	r2, ip
10001fce:	7054      	strb	r4, [r2, #1]
10001fd0:	e7c3      	b.n	10001f5a <ph_remove_any_head+0x3e>
10001fd2:	4b16      	ldr	r3, [pc, #88]	; (1000202c <ph_remove_any_head+0x110>)
10001fd4:	4a16      	ldr	r2, [pc, #88]	; (10002030 <ph_remove_any_head+0x114>)
10001fd6:	2168      	movs	r1, #104	; 0x68
10001fd8:	4816      	ldr	r0, [pc, #88]	; (10002034 <ph_remove_any_head+0x118>)
10001fda:	f000 fad9 	bl	10002590 <__assert_func>
10001fde:	4b18      	ldr	r3, [pc, #96]	; (10002040 <ph_remove_any_head+0x124>)
10001fe0:	4a10      	ldr	r2, [pc, #64]	; (10002024 <ph_remove_any_head+0x108>)
10001fe2:	2142      	movs	r1, #66	; 0x42
10001fe4:	4810      	ldr	r0, [pc, #64]	; (10002028 <ph_remove_any_head+0x10c>)
10001fe6:	f000 fad3 	bl	10002590 <__assert_func>
10001fea:	2b00      	cmp	r3, #0
10001fec:	d00b      	beq.n	10002006 <ph_remove_any_head+0xea>
10001fee:	7b2a      	ldrb	r2, [r5, #12]
10001ff0:	4293      	cmp	r3, r2
10001ff2:	d808      	bhi.n	10002006 <ph_remove_any_head+0xea>
10001ff4:	0043      	lsls	r3, r0, #1
10001ff6:	181b      	adds	r3, r3, r0
10001ff8:	3b03      	subs	r3, #3
10001ffa:	682a      	ldr	r2, [r5, #0]
10001ffc:	4694      	mov	ip, r2
10001ffe:	4463      	add	r3, ip
10002000:	2200      	movs	r2, #0
10002002:	709a      	strb	r2, [r3, #2]
10002004:	e7b3      	b.n	10001f6e <ph_remove_any_head+0x52>
10002006:	4b09      	ldr	r3, [pc, #36]	; (1000202c <ph_remove_any_head+0x110>)
10002008:	4a09      	ldr	r2, [pc, #36]	; (10002030 <ph_remove_any_head+0x114>)
1000200a:	2168      	movs	r1, #104	; 0x68
1000200c:	4809      	ldr	r0, [pc, #36]	; (10002034 <ph_remove_any_head+0x118>)
1000200e:	f000 fabf 	bl	10002590 <__assert_func>
10002012:	4b06      	ldr	r3, [pc, #24]	; (1000202c <ph_remove_any_head+0x110>)
10002014:	4a06      	ldr	r2, [pc, #24]	; (10002030 <ph_remove_any_head+0x114>)
10002016:	2168      	movs	r1, #104	; 0x68
10002018:	4806      	ldr	r0, [pc, #24]	; (10002034 <ph_remove_any_head+0x118>)
1000201a:	f000 fab9 	bl	10002590 <__assert_func>
1000201e:	46c0      	nop			; (mov r8, r8)
10002020:	10007468 	.word	0x10007468
10002024:	10007548 	.word	0x10007548
10002028:	10007470 	.word	0x10007470
1000202c:	10007108 	.word	0x10007108
10002030:	10007570 	.word	0x10007570
10002034:	10007124 	.word	0x10007124
10002038:	100074c4 	.word	0x100074c4
1000203c:	100074ec 	.word	0x100074ec
10002040:	10007268 	.word	0x10007268

10002044 <ph_remove_head>:
10002044:	b570      	push	{r4, r5, r6, lr}
10002046:	0004      	movs	r4, r0
10002048:	000a      	movs	r2, r1
1000204a:	7b45      	ldrb	r5, [r0, #13]
1000204c:	0029      	movs	r1, r5
1000204e:	f7ff ff65 	bl	10001f1c <ph_remove_any_head>
10002052:	7360      	strb	r0, [r4, #13]
10002054:	0028      	movs	r0, r5
10002056:	bd70      	pop	{r4, r5, r6, pc}

10002058 <ph_remove_and_free_node>:
10002058:	b570      	push	{r4, r5, r6, lr}
1000205a:	0004      	movs	r4, r0
1000205c:	2900      	cmp	r1, #0
1000205e:	d067      	beq.n	10002130 <ph_remove_and_free_node+0xd8>
10002060:	7b43      	ldrb	r3, [r0, #13]
10002062:	428b      	cmp	r3, r1
10002064:	d00e      	beq.n	10002084 <ph_remove_and_free_node+0x2c>
10002066:	2900      	cmp	r1, #0
10002068:	d011      	beq.n	1000208e <ph_remove_and_free_node+0x36>
1000206a:	7b03      	ldrb	r3, [r0, #12]
1000206c:	4299      	cmp	r1, r3
1000206e:	d80e      	bhi.n	1000208e <ph_remove_and_free_node+0x36>
10002070:	004b      	lsls	r3, r1, #1
10002072:	185b      	adds	r3, r3, r1
10002074:	3b03      	subs	r3, #3
10002076:	6802      	ldr	r2, [r0, #0]
10002078:	18d0      	adds	r0, r2, r3
1000207a:	7883      	ldrb	r3, [r0, #2]
1000207c:	2b00      	cmp	r3, #0
1000207e:	d10c      	bne.n	1000209a <ph_remove_and_free_node+0x42>
10002080:	2000      	movs	r0, #0
10002082:	e056      	b.n	10002132 <ph_remove_and_free_node+0xda>
10002084:	2101      	movs	r1, #1
10002086:	f7ff ffdd 	bl	10002044 <ph_remove_head>
1000208a:	2001      	movs	r0, #1
1000208c:	e051      	b.n	10002132 <ph_remove_and_free_node+0xda>
1000208e:	4b29      	ldr	r3, [pc, #164]	; (10002134 <ph_remove_and_free_node+0xdc>)
10002090:	4a29      	ldr	r2, [pc, #164]	; (10002138 <ph_remove_and_free_node+0xe0>)
10002092:	2168      	movs	r1, #104	; 0x68
10002094:	4829      	ldr	r0, [pc, #164]	; (1000213c <ph_remove_and_free_node+0xe4>)
10002096:	f000 fa7b 	bl	10002590 <__assert_func>
1000209a:	2b00      	cmp	r3, #0
1000209c:	d020      	beq.n	100020e0 <ph_remove_and_free_node+0x88>
1000209e:	7b22      	ldrb	r2, [r4, #12]
100020a0:	4293      	cmp	r3, r2
100020a2:	d81d      	bhi.n	100020e0 <ph_remove_and_free_node+0x88>
100020a4:	005a      	lsls	r2, r3, #1
100020a6:	18d3      	adds	r3, r2, r3
100020a8:	3b03      	subs	r3, #3
100020aa:	6822      	ldr	r2, [r4, #0]
100020ac:	18d2      	adds	r2, r2, r3
100020ae:	6825      	ldr	r5, [r4, #0]
100020b0:	5ceb      	ldrb	r3, [r5, r3]
100020b2:	428b      	cmp	r3, r1
100020b4:	d01a      	beq.n	100020ec <ph_remove_and_free_node+0x94>
100020b6:	2b00      	cmp	r3, #0
100020b8:	d01b      	beq.n	100020f2 <ph_remove_and_free_node+0x9a>
100020ba:	7b22      	ldrb	r2, [r4, #12]
100020bc:	4293      	cmp	r3, r2
100020be:	d818      	bhi.n	100020f2 <ph_remove_and_free_node+0x9a>
100020c0:	005a      	lsls	r2, r3, #1
100020c2:	18d3      	adds	r3, r2, r3
100020c4:	3b03      	subs	r3, #3
100020c6:	6822      	ldr	r2, [r4, #0]
100020c8:	18d2      	adds	r2, r2, r3
100020ca:	7853      	ldrb	r3, [r2, #1]
100020cc:	428b      	cmp	r3, r1
100020ce:	d016      	beq.n	100020fe <ph_remove_and_free_node+0xa6>
100020d0:	2b00      	cmp	r3, #0
100020d2:	d1f0      	bne.n	100020b6 <ph_remove_and_free_node+0x5e>
100020d4:	4b1a      	ldr	r3, [pc, #104]	; (10002140 <ph_remove_and_free_node+0xe8>)
100020d6:	4a1b      	ldr	r2, [pc, #108]	; (10002144 <ph_remove_and_free_node+0xec>)
100020d8:	216b      	movs	r1, #107	; 0x6b
100020da:	481b      	ldr	r0, [pc, #108]	; (10002148 <ph_remove_and_free_node+0xf0>)
100020dc:	f000 fa58 	bl	10002590 <__assert_func>
100020e0:	4b14      	ldr	r3, [pc, #80]	; (10002134 <ph_remove_and_free_node+0xdc>)
100020e2:	4a15      	ldr	r2, [pc, #84]	; (10002138 <ph_remove_and_free_node+0xe0>)
100020e4:	2168      	movs	r1, #104	; 0x68
100020e6:	4815      	ldr	r0, [pc, #84]	; (1000213c <ph_remove_and_free_node+0xe4>)
100020e8:	f000 fa52 	bl	10002590 <__assert_func>
100020ec:	7843      	ldrb	r3, [r0, #1]
100020ee:	7013      	strb	r3, [r2, #0]
100020f0:	e007      	b.n	10002102 <ph_remove_and_free_node+0xaa>
100020f2:	4b10      	ldr	r3, [pc, #64]	; (10002134 <ph_remove_and_free_node+0xdc>)
100020f4:	4a10      	ldr	r2, [pc, #64]	; (10002138 <ph_remove_and_free_node+0xe0>)
100020f6:	2168      	movs	r1, #104	; 0x68
100020f8:	4810      	ldr	r0, [pc, #64]	; (1000213c <ph_remove_and_free_node+0xe4>)
100020fa:	f000 fa49 	bl	10002590 <__assert_func>
100020fe:	7843      	ldrb	r3, [r0, #1]
10002100:	7053      	strb	r3, [r2, #1]
10002102:	2300      	movs	r3, #0
10002104:	7083      	strb	r3, [r0, #2]
10002106:	7043      	strb	r3, [r0, #1]
10002108:	2201      	movs	r2, #1
1000210a:	0020      	movs	r0, r4
1000210c:	f7ff ff06 	bl	10001f1c <ph_remove_any_head>
10002110:	0002      	movs	r2, r0
10002112:	7b61      	ldrb	r1, [r4, #13]
10002114:	4281      	cmp	r1, r0
10002116:	d005      	beq.n	10002124 <ph_remove_and_free_node+0xcc>
10002118:	0020      	movs	r0, r4
1000211a:	f7ff fe4b 	bl	10001db4 <ph_merge_nodes>
1000211e:	7360      	strb	r0, [r4, #13]
10002120:	2001      	movs	r0, #1
10002122:	e006      	b.n	10002132 <ph_remove_and_free_node+0xda>
10002124:	4b09      	ldr	r3, [pc, #36]	; (1000214c <ph_remove_and_free_node+0xf4>)
10002126:	4a07      	ldr	r2, [pc, #28]	; (10002144 <ph_remove_and_free_node+0xec>)
10002128:	2171      	movs	r1, #113	; 0x71
1000212a:	4807      	ldr	r0, [pc, #28]	; (10002148 <ph_remove_and_free_node+0xf0>)
1000212c:	f000 fa30 	bl	10002590 <__assert_func>
10002130:	2000      	movs	r0, #0
10002132:	bd70      	pop	{r4, r5, r6, pc}
10002134:	10007108 	.word	0x10007108
10002138:	10007570 	.word	0x10007570
1000213c:	10007124 	.word	0x10007124
10002140:	10006e5c 	.word	0x10006e5c
10002144:	10007530 	.word	0x10007530
10002148:	10007470 	.word	0x10007470
1000214c:	10007510 	.word	0x10007510

10002150 <clock_configure>:
10002150:	b5f8      	push	{r3, r4, r5, r6, r7, lr}
10002152:	46de      	mov	lr, fp
10002154:	4657      	mov	r7, sl
10002156:	464e      	mov	r6, r9
10002158:	4645      	mov	r5, r8
1000215a:	b5e0      	push	{r5, r6, r7, lr}
1000215c:	0005      	movs	r5, r0
1000215e:	000f      	movs	r7, r1
10002160:	4692      	mov	sl, r2
10002162:	9a0a      	ldr	r2, [sp, #40]	; 0x28
10002164:	4293      	cmp	r3, r2
10002166:	d350      	bcc.n	1000220a <clock_configure+0xba>
10002168:	0e1a      	lsrs	r2, r3, #24
1000216a:	4691      	mov	r9, r2
1000216c:	021e      	lsls	r6, r3, #8
1000216e:	9a0a      	ldr	r2, [sp, #40]	; 0x28
10002170:	2300      	movs	r3, #0
10002172:	0030      	movs	r0, r6
10002174:	4649      	mov	r1, r9
10002176:	f001 fbf7 	bl	10003968 <__wrap___aeabi_uldivmod>
1000217a:	4680      	mov	r8, r0
1000217c:	006c      	lsls	r4, r5, #1
1000217e:	1964      	adds	r4, r4, r5
10002180:	00a4      	lsls	r4, r4, #2
10002182:	4b30      	ldr	r3, [pc, #192]	; (10002244 <clock_configure+0xf4>)
10002184:	469c      	mov	ip, r3
10002186:	4464      	add	r4, ip
10002188:	6863      	ldr	r3, [r4, #4]
1000218a:	4283      	cmp	r3, r0
1000218c:	d200      	bcs.n	10002190 <clock_configure+0x40>
1000218e:	6060      	str	r0, [r4, #4]
10002190:	1f2b      	subs	r3, r5, #4
10002192:	b2db      	uxtb	r3, r3
10002194:	469b      	mov	fp, r3
10002196:	2b01      	cmp	r3, #1
10002198:	d93d      	bls.n	10002216 <clock_configure+0xc6>
1000219a:	23c0      	movs	r3, #192	; 0xc0
1000219c:	019b      	lsls	r3, r3, #6
1000219e:	4323      	orrs	r3, r4
100021a0:	2280      	movs	r2, #128	; 0x80
100021a2:	0112      	lsls	r2, r2, #4
100021a4:	601a      	str	r2, [r3, #0]
100021a6:	00ab      	lsls	r3, r5, #2
100021a8:	4a27      	ldr	r2, [pc, #156]	; (10002248 <clock_configure+0xf8>)
100021aa:	5899      	ldr	r1, [r3, r2]
100021ac:	2900      	cmp	r1, #0
100021ae:	d007      	beq.n	100021c0 <clock_configure+0x70>
100021b0:	6950      	ldr	r0, [r2, #20]
100021b2:	f001 fb9b 	bl	100038ec <__wrap___aeabi_uidiv>
100021b6:	1c43      	adds	r3, r0, #1
100021b8:	0058      	lsls	r0, r3, #1
100021ba:	18c0      	adds	r0, r0, r3
100021bc:	3803      	subs	r0, #3
100021be:	d2fd      	bcs.n	100021bc <clock_configure+0x6c>
100021c0:	4653      	mov	r3, sl
100021c2:	015a      	lsls	r2, r3, #5
100021c4:	6823      	ldr	r3, [r4, #0]
100021c6:	405a      	eors	r2, r3
100021c8:	23e0      	movs	r3, #224	; 0xe0
100021ca:	401a      	ands	r2, r3
100021cc:	2380      	movs	r3, #128	; 0x80
100021ce:	015b      	lsls	r3, r3, #5
100021d0:	4323      	orrs	r3, r4
100021d2:	601a      	str	r2, [r3, #0]
100021d4:	465a      	mov	r2, fp
100021d6:	2a01      	cmp	r2, #1
100021d8:	d928      	bls.n	1000222c <clock_configure+0xdc>
100021da:	2380      	movs	r3, #128	; 0x80
100021dc:	019b      	lsls	r3, r3, #6
100021de:	4323      	orrs	r3, r4
100021e0:	2280      	movs	r2, #128	; 0x80
100021e2:	0112      	lsls	r2, r2, #4
100021e4:	601a      	str	r2, [r3, #0]
100021e6:	4643      	mov	r3, r8
100021e8:	6063      	str	r3, [r4, #4]
100021ea:	4642      	mov	r2, r8
100021ec:	2300      	movs	r3, #0
100021ee:	0030      	movs	r0, r6
100021f0:	4649      	mov	r1, r9
100021f2:	f001 fbb9 	bl	10003968 <__wrap___aeabi_uldivmod>
100021f6:	00ad      	lsls	r5, r5, #2
100021f8:	4b13      	ldr	r3, [pc, #76]	; (10002248 <clock_configure+0xf8>)
100021fa:	5158      	str	r0, [r3, r5]
100021fc:	2001      	movs	r0, #1
100021fe:	bcf0      	pop	{r4, r5, r6, r7}
10002200:	46bb      	mov	fp, r7
10002202:	46b2      	mov	sl, r6
10002204:	46a9      	mov	r9, r5
10002206:	46a0      	mov	r8, r4
10002208:	bdf8      	pop	{r3, r4, r5, r6, r7, pc}
1000220a:	4b10      	ldr	r3, [pc, #64]	; (1000224c <clock_configure+0xfc>)
1000220c:	4a10      	ldr	r2, [pc, #64]	; (10002250 <clock_configure+0x100>)
1000220e:	2133      	movs	r1, #51	; 0x33
10002210:	4810      	ldr	r0, [pc, #64]	; (10002254 <clock_configure+0x104>)
10002212:	f000 f9bd 	bl	10002590 <__assert_func>
10002216:	2f01      	cmp	r7, #1
10002218:	d1bf      	bne.n	1000219a <clock_configure+0x4a>
1000221a:	23c0      	movs	r3, #192	; 0xc0
1000221c:	019b      	lsls	r3, r3, #6
1000221e:	4323      	orrs	r3, r4
10002220:	2203      	movs	r2, #3
10002222:	601a      	str	r2, [r3, #0]
10002224:	68a3      	ldr	r3, [r4, #8]
10002226:	07db      	lsls	r3, r3, #31
10002228:	d5fc      	bpl.n	10002224 <clock_configure+0xd4>
1000222a:	e7c9      	b.n	100021c0 <clock_configure+0x70>
1000222c:	6821      	ldr	r1, [r4, #0]
1000222e:	4079      	eors	r1, r7
10002230:	2203      	movs	r2, #3
10002232:	400a      	ands	r2, r1
10002234:	601a      	str	r2, [r3, #0]
10002236:	68a2      	ldr	r2, [r4, #8]
10002238:	2301      	movs	r3, #1
1000223a:	40bb      	lsls	r3, r7
1000223c:	4213      	tst	r3, r2
1000223e:	d0fa      	beq.n	10002236 <clock_configure+0xe6>
10002240:	e7cb      	b.n	100021da <clock_configure+0x8a>
10002242:	46c0      	nop			; (mov r8, r8)
10002244:	40008000 	.word	0x40008000
10002248:	20001340 	.word	0x20001340
1000224c:	1000757c 	.word	0x1000757c
10002250:	100075f0 	.word	0x100075f0
10002254:	10007590 	.word	0x10007590

10002258 <clocks_init>:
10002258:	b530      	push	{r4, r5, lr}
1000225a:	b083      	sub	sp, #12
1000225c:	200c      	movs	r0, #12
1000225e:	f000 f90b 	bl	10002478 <watchdog_start_tick>
10002262:	f7fe fb01 	bl	10000868 <running_on_fpga>
10002266:	2800      	cmp	r0, #0
10002268:	d00d      	beq.n	10002286 <clocks_init+0x2e>
1000226a:	2300      	movs	r3, #0
1000226c:	e004      	b.n	10002278 <clocks_init+0x20>
1000226e:	0099      	lsls	r1, r3, #2
10002270:	4a2d      	ldr	r2, [pc, #180]	; (10002328 <clocks_init+0xd0>)
10002272:	482e      	ldr	r0, [pc, #184]	; (1000232c <clocks_init+0xd4>)
10002274:	5088      	str	r0, [r1, r2]
10002276:	3301      	adds	r3, #1
10002278:	2b09      	cmp	r3, #9
1000227a:	d9f8      	bls.n	1000226e <clocks_init+0x16>
1000227c:	4b2a      	ldr	r3, [pc, #168]	; (10002328 <clocks_init+0xd0>)
1000227e:	4a2c      	ldr	r2, [pc, #176]	; (10002330 <clocks_init+0xd8>)
10002280:	625a      	str	r2, [r3, #36]	; 0x24
10002282:	b003      	add	sp, #12
10002284:	bd30      	pop	{r4, r5, pc}
10002286:	4b2b      	ldr	r3, [pc, #172]	; (10002334 <clocks_init+0xdc>)
10002288:	2200      	movs	r2, #0
1000228a:	679a      	str	r2, [r3, #120]	; 0x78
1000228c:	f000 f966 	bl	1000255c <xosc_init>
10002290:	4b29      	ldr	r3, [pc, #164]	; (10002338 <clocks_init+0xe0>)
10002292:	2201      	movs	r2, #1
10002294:	601a      	str	r2, [r3, #0]
10002296:	4b27      	ldr	r3, [pc, #156]	; (10002334 <clocks_init+0xdc>)
10002298:	6c5b      	ldr	r3, [r3, #68]	; 0x44
1000229a:	2b01      	cmp	r3, #1
1000229c:	d1fb      	bne.n	10002296 <clocks_init+0x3e>
1000229e:	4b27      	ldr	r3, [pc, #156]	; (1000233c <clocks_init+0xe4>)
100022a0:	2203      	movs	r2, #3
100022a2:	601a      	str	r2, [r3, #0]
100022a4:	4b23      	ldr	r3, [pc, #140]	; (10002334 <clocks_init+0xdc>)
100022a6:	6b9b      	ldr	r3, [r3, #56]	; 0x38
100022a8:	2b01      	cmp	r3, #1
100022aa:	d1fb      	bne.n	100022a4 <clocks_init+0x4c>
100022ac:	3301      	adds	r3, #1
100022ae:	9300      	str	r3, [sp, #0]
100022b0:	3304      	adds	r3, #4
100022b2:	4a23      	ldr	r2, [pc, #140]	; (10002340 <clocks_init+0xe8>)
100022b4:	2101      	movs	r1, #1
100022b6:	4823      	ldr	r0, [pc, #140]	; (10002344 <clocks_init+0xec>)
100022b8:	f000 f84e 	bl	10002358 <pll_init>
100022bc:	2305      	movs	r3, #5
100022be:	9300      	str	r3, [sp, #0]
100022c0:	4a21      	ldr	r2, [pc, #132]	; (10002348 <clocks_init+0xf0>)
100022c2:	2101      	movs	r1, #1
100022c4:	4821      	ldr	r0, [pc, #132]	; (1000234c <clocks_init+0xf4>)
100022c6:	f000 f847 	bl	10002358 <pll_init>
100022ca:	4b21      	ldr	r3, [pc, #132]	; (10002350 <clocks_init+0xf8>)
100022cc:	9300      	str	r3, [sp, #0]
100022ce:	2200      	movs	r2, #0
100022d0:	2102      	movs	r1, #2
100022d2:	2004      	movs	r0, #4
100022d4:	f7ff ff3c 	bl	10002150 <clock_configure>
100022d8:	4d1e      	ldr	r5, [pc, #120]	; (10002354 <clocks_init+0xfc>)
100022da:	9500      	str	r5, [sp, #0]
100022dc:	002b      	movs	r3, r5
100022de:	2200      	movs	r2, #0
100022e0:	2101      	movs	r1, #1
100022e2:	2005      	movs	r0, #5
100022e4:	f7ff ff34 	bl	10002150 <clock_configure>
100022e8:	4c10      	ldr	r4, [pc, #64]	; (1000232c <clocks_init+0xd4>)
100022ea:	9400      	str	r4, [sp, #0]
100022ec:	0023      	movs	r3, r4
100022ee:	2200      	movs	r2, #0
100022f0:	2100      	movs	r1, #0
100022f2:	2007      	movs	r0, #7
100022f4:	f7ff ff2c 	bl	10002150 <clock_configure>
100022f8:	9400      	str	r4, [sp, #0]
100022fa:	0023      	movs	r3, r4
100022fc:	2200      	movs	r2, #0
100022fe:	2100      	movs	r1, #0
10002300:	2008      	movs	r0, #8
10002302:	f7ff ff25 	bl	10002150 <clock_configure>
10002306:	4b0a      	ldr	r3, [pc, #40]	; (10002330 <clocks_init+0xd8>)
10002308:	9300      	str	r3, [sp, #0]
1000230a:	0023      	movs	r3, r4
1000230c:	2200      	movs	r2, #0
1000230e:	2100      	movs	r1, #0
10002310:	2009      	movs	r0, #9
10002312:	f7ff ff1d 	bl	10002150 <clock_configure>
10002316:	9500      	str	r5, [sp, #0]
10002318:	002b      	movs	r3, r5
1000231a:	2200      	movs	r2, #0
1000231c:	2100      	movs	r1, #0
1000231e:	2006      	movs	r0, #6
10002320:	f7ff ff16 	bl	10002150 <clock_configure>
10002324:	e7ad      	b.n	10002282 <clocks_init+0x2a>
10002326:	46c0      	nop			; (mov r8, r8)
10002328:	20001340 	.word	0x20001340
1000232c:	02dc6c00 	.word	0x02dc6c00
10002330:	0000b71b 	.word	0x0000b71b
10002334:	40008000 	.word	0x40008000
10002338:	4000b03c 	.word	0x4000b03c
1000233c:	4000b030 	.word	0x4000b030
10002340:	59682f00 	.word	0x59682f00
10002344:	40028000 	.word	0x40028000
10002348:	47868c00 	.word	0x47868c00
1000234c:	4002c000 	.word	0x4002c000
10002350:	00b71b00 	.word	0x00b71b00
10002354:	07735940 	.word	0x07735940

10002358 <pll_init>:
10002358:	b5f0      	push	{r4, r5, r6, r7, lr}
1000235a:	46c6      	mov	lr, r8
1000235c:	b500      	push	{lr}
1000235e:	0004      	movs	r4, r0
10002360:	000e      	movs	r6, r1
10002362:	0017      	movs	r7, r2
10002364:	001d      	movs	r5, r3
10002366:	4837      	ldr	r0, [pc, #220]	; (10002444 <pll_init+0xec>)
10002368:	f001 fac0 	bl	100038ec <__wrap___aeabi_uidiv>
1000236c:	4680      	mov	r8, r0
1000236e:	4b36      	ldr	r3, [pc, #216]	; (10002448 <pll_init+0xf0>)
10002370:	18fa      	adds	r2, r7, r3
10002372:	4b36      	ldr	r3, [pc, #216]	; (1000244c <pll_init+0xf4>)
10002374:	429a      	cmp	r2, r3
10002376:	d839      	bhi.n	100023ec <pll_init+0x94>
10002378:	0001      	movs	r1, r0
1000237a:	0038      	movs	r0, r7
1000237c:	f001 fab6 	bl	100038ec <__wrap___aeabi_uidiv>
10002380:	0002      	movs	r2, r0
10002382:	3a10      	subs	r2, #16
10002384:	2398      	movs	r3, #152	; 0x98
10002386:	005b      	lsls	r3, r3, #1
10002388:	429a      	cmp	r2, r3
1000238a:	d835      	bhi.n	100023f8 <pll_init+0xa0>
1000238c:	1e6b      	subs	r3, r5, #1
1000238e:	2b06      	cmp	r3, #6
10002390:	d838      	bhi.n	10002404 <pll_init+0xac>
10002392:	9b06      	ldr	r3, [sp, #24]
10002394:	3b01      	subs	r3, #1
10002396:	2b06      	cmp	r3, #6
10002398:	d834      	bhi.n	10002404 <pll_init+0xac>
1000239a:	093f      	lsrs	r7, r7, #4
1000239c:	4547      	cmp	r7, r8
1000239e:	d337      	bcc.n	10002410 <pll_init+0xb8>
100023a0:	042d      	lsls	r5, r5, #16
100023a2:	9b06      	ldr	r3, [sp, #24]
100023a4:	031a      	lsls	r2, r3, #12
100023a6:	4315      	orrs	r5, r2
100023a8:	6823      	ldr	r3, [r4, #0]
100023aa:	2b00      	cmp	r3, #0
100023ac:	db36      	blt.n	1000241c <pll_init+0xc4>
100023ae:	4b28      	ldr	r3, [pc, #160]	; (10002450 <pll_init+0xf8>)
100023b0:	429c      	cmp	r4, r3
100023b2:	d044      	beq.n	1000243e <pll_init+0xe6>
100023b4:	2280      	movs	r2, #128	; 0x80
100023b6:	0152      	lsls	r2, r2, #5
100023b8:	4b26      	ldr	r3, [pc, #152]	; (10002454 <pll_init+0xfc>)
100023ba:	601a      	str	r2, [r3, #0]
100023bc:	4b26      	ldr	r3, [pc, #152]	; (10002458 <pll_init+0x100>)
100023be:	601a      	str	r2, [r3, #0]
100023c0:	4b26      	ldr	r3, [pc, #152]	; (1000245c <pll_init+0x104>)
100023c2:	689b      	ldr	r3, [r3, #8]
100023c4:	0011      	movs	r1, r2
100023c6:	4399      	bics	r1, r3
100023c8:	d1fa      	bne.n	100023c0 <pll_init+0x68>
100023ca:	6026      	str	r6, [r4, #0]
100023cc:	60a0      	str	r0, [r4, #8]
100023ce:	1d23      	adds	r3, r4, #4
100023d0:	22c0      	movs	r2, #192	; 0xc0
100023d2:	0192      	lsls	r2, r2, #6
100023d4:	431a      	orrs	r2, r3
100023d6:	2321      	movs	r3, #33	; 0x21
100023d8:	6013      	str	r3, [r2, #0]
100023da:	6823      	ldr	r3, [r4, #0]
100023dc:	2b00      	cmp	r3, #0
100023de:	dafc      	bge.n	100023da <pll_init+0x82>
100023e0:	60e5      	str	r5, [r4, #12]
100023e2:	2308      	movs	r3, #8
100023e4:	6013      	str	r3, [r2, #0]
100023e6:	bc80      	pop	{r7}
100023e8:	46b8      	mov	r8, r7
100023ea:	bdf0      	pop	{r4, r5, r6, r7, pc}
100023ec:	4b1c      	ldr	r3, [pc, #112]	; (10002460 <pll_init+0x108>)
100023ee:	4a1d      	ldr	r2, [pc, #116]	; (10002464 <pll_init+0x10c>)
100023f0:	2111      	movs	r1, #17
100023f2:	481d      	ldr	r0, [pc, #116]	; (10002468 <pll_init+0x110>)
100023f4:	f000 f8cc 	bl	10002590 <__assert_func>
100023f8:	4b1c      	ldr	r3, [pc, #112]	; (1000246c <pll_init+0x114>)
100023fa:	4a1a      	ldr	r2, [pc, #104]	; (10002464 <pll_init+0x10c>)
100023fc:	2119      	movs	r1, #25
100023fe:	481a      	ldr	r0, [pc, #104]	; (10002468 <pll_init+0x110>)
10002400:	f000 f8c6 	bl	10002590 <__assert_func>
10002404:	4b1a      	ldr	r3, [pc, #104]	; (10002470 <pll_init+0x118>)
10002406:	4a17      	ldr	r2, [pc, #92]	; (10002464 <pll_init+0x10c>)
10002408:	211c      	movs	r1, #28
1000240a:	4817      	ldr	r0, [pc, #92]	; (10002468 <pll_init+0x110>)
1000240c:	f000 f8c0 	bl	10002590 <__assert_func>
10002410:	4b18      	ldr	r3, [pc, #96]	; (10002474 <pll_init+0x11c>)
10002412:	4a14      	ldr	r2, [pc, #80]	; (10002464 <pll_init+0x10c>)
10002414:	2123      	movs	r1, #35	; 0x23
10002416:	4814      	ldr	r0, [pc, #80]	; (10002468 <pll_init+0x110>)
10002418:	f000 f8ba 	bl	10002590 <__assert_func>
1000241c:	6822      	ldr	r2, [r4, #0]
1000241e:	233f      	movs	r3, #63	; 0x3f
10002420:	4013      	ands	r3, r2
10002422:	42b3      	cmp	r3, r6
10002424:	d1c3      	bne.n	100023ae <pll_init+0x56>
10002426:	68a3      	ldr	r3, [r4, #8]
10002428:	051b      	lsls	r3, r3, #20
1000242a:	0d1b      	lsrs	r3, r3, #20
1000242c:	4283      	cmp	r3, r0
1000242e:	d1be      	bne.n	100023ae <pll_init+0x56>
10002430:	68e3      	ldr	r3, [r4, #12]
10002432:	22ee      	movs	r2, #238	; 0xee
10002434:	02d2      	lsls	r2, r2, #11
10002436:	4013      	ands	r3, r2
10002438:	42ab      	cmp	r3, r5
1000243a:	d1b8      	bne.n	100023ae <pll_init+0x56>
1000243c:	e7d3      	b.n	100023e6 <pll_init+0x8e>
1000243e:	2280      	movs	r2, #128	; 0x80
10002440:	0192      	lsls	r2, r2, #6
10002442:	e7b9      	b.n	100023b8 <pll_init+0x60>
10002444:	00b71b00 	.word	0x00b71b00
10002448:	d34be880 	.word	0xd34be880
1000244c:	32a9f880 	.word	0x32a9f880
10002450:	4002c000 	.word	0x4002c000
10002454:	4000e000 	.word	0x4000e000
10002458:	4000f000 	.word	0x4000f000
1000245c:	4000c000 	.word	0x4000c000
10002460:	10007600 	.word	0x10007600
10002464:	10007740 	.word	0x10007740
10002468:	10007660 	.word	0x10007660
1000246c:	100076bc 	.word	0x100076bc
10002470:	100076d8 	.word	0x100076d8
10002474:	10007724 	.word	0x10007724

10002478 <watchdog_start_tick>:
10002478:	2380      	movs	r3, #128	; 0x80
1000247a:	009b      	lsls	r3, r3, #2
1000247c:	4303      	orrs	r3, r0
1000247e:	4a01      	ldr	r2, [pc, #4]	; (10002484 <watchdog_start_tick+0xc>)
10002480:	62d3      	str	r3, [r2, #44]	; 0x2c
10002482:	4770      	bx	lr
10002484:	40058000 	.word	0x40058000

10002488 <watchdog_update>:
10002488:	4b02      	ldr	r3, [pc, #8]	; (10002494 <watchdog_update+0xc>)
1000248a:	681a      	ldr	r2, [r3, #0]
1000248c:	4b02      	ldr	r3, [pc, #8]	; (10002498 <watchdog_update+0x10>)
1000248e:	605a      	str	r2, [r3, #4]
10002490:	4770      	bx	lr
10002492:	46c0      	nop			; (mov r8, r8)
10002494:	200017ec 	.word	0x200017ec
10002498:	40058000 	.word	0x40058000

1000249c <_watchdog_enable>:
1000249c:	b510      	push	{r4, lr}
1000249e:	0002      	movs	r2, r0
100024a0:	4b16      	ldr	r3, [pc, #88]	; (100024fc <_watchdog_enable+0x60>)
100024a2:	2080      	movs	r0, #128	; 0x80
100024a4:	05c0      	lsls	r0, r0, #23
100024a6:	6018      	str	r0, [r3, #0]
100024a8:	4b15      	ldr	r3, [pc, #84]	; (10002500 <_watchdog_enable+0x64>)
100024aa:	4816      	ldr	r0, [pc, #88]	; (10002504 <_watchdog_enable+0x68>)
100024ac:	6018      	str	r0, [r3, #0]
100024ae:	2900      	cmp	r1, #0
100024b0:	d00a      	beq.n	100024c8 <_watchdog_enable+0x2c>
100024b2:	4b15      	ldr	r3, [pc, #84]	; (10002508 <_watchdog_enable+0x6c>)
100024b4:	21e0      	movs	r1, #224	; 0xe0
100024b6:	04c9      	lsls	r1, r1, #19
100024b8:	6019      	str	r1, [r3, #0]
100024ba:	2a00      	cmp	r2, #0
100024bc:	d109      	bne.n	100024d2 <_watchdog_enable+0x36>
100024be:	4b12      	ldr	r3, [pc, #72]	; (10002508 <_watchdog_enable+0x6c>)
100024c0:	2280      	movs	r2, #128	; 0x80
100024c2:	0612      	lsls	r2, r2, #24
100024c4:	601a      	str	r2, [r3, #0]
100024c6:	bd10      	pop	{r4, pc}
100024c8:	4b0c      	ldr	r3, [pc, #48]	; (100024fc <_watchdog_enable+0x60>)
100024ca:	21e0      	movs	r1, #224	; 0xe0
100024cc:	04c9      	lsls	r1, r1, #19
100024ce:	6019      	str	r1, [r3, #0]
100024d0:	e7f3      	b.n	100024ba <_watchdog_enable+0x1e>
100024d2:	0153      	lsls	r3, r2, #5
100024d4:	1a9b      	subs	r3, r3, r2
100024d6:	0098      	lsls	r0, r3, #2
100024d8:	1880      	adds	r0, r0, r2
100024da:	0100      	lsls	r0, r0, #4
100024dc:	4b0b      	ldr	r3, [pc, #44]	; (1000250c <_watchdog_enable+0x70>)
100024de:	6018      	str	r0, [r3, #0]
100024e0:	2380      	movs	r3, #128	; 0x80
100024e2:	045b      	lsls	r3, r3, #17
100024e4:	4298      	cmp	r0, r3
100024e6:	d302      	bcc.n	100024ee <_watchdog_enable+0x52>
100024e8:	4b08      	ldr	r3, [pc, #32]	; (1000250c <_watchdog_enable+0x70>)
100024ea:	4a09      	ldr	r2, [pc, #36]	; (10002510 <_watchdog_enable+0x74>)
100024ec:	601a      	str	r2, [r3, #0]
100024ee:	f7ff ffcb 	bl	10002488 <watchdog_update>
100024f2:	4b05      	ldr	r3, [pc, #20]	; (10002508 <_watchdog_enable+0x6c>)
100024f4:	2280      	movs	r2, #128	; 0x80
100024f6:	05d2      	lsls	r2, r2, #23
100024f8:	601a      	str	r2, [r3, #0]
100024fa:	e7e4      	b.n	100024c6 <_watchdog_enable+0x2a>
100024fc:	4005b000 	.word	0x4005b000
10002500:	40012008 	.word	0x40012008
10002504:	0001fffc 	.word	0x0001fffc
10002508:	4005a000 	.word	0x4005a000
1000250c:	200017ec 	.word	0x200017ec
10002510:	00ffffff 	.word	0x00ffffff

10002514 <watchdog_reboot>:
10002514:	b510      	push	{r4, lr}
10002516:	0003      	movs	r3, r0
10002518:	0010      	movs	r0, r2
1000251a:	4a0c      	ldr	r2, [pc, #48]	; (1000254c <watchdog_reboot+0x38>)
1000251c:	2480      	movs	r4, #128	; 0x80
1000251e:	05e4      	lsls	r4, r4, #23
10002520:	6014      	str	r4, [r2, #0]
10002522:	2b00      	cmp	r3, #0
10002524:	d00d      	beq.n	10002542 <watchdog_reboot+0x2e>
10002526:	2201      	movs	r2, #1
10002528:	4313      	orrs	r3, r2
1000252a:	4a09      	ldr	r2, [pc, #36]	; (10002550 <watchdog_reboot+0x3c>)
1000252c:	4c09      	ldr	r4, [pc, #36]	; (10002554 <watchdog_reboot+0x40>)
1000252e:	61d4      	str	r4, [r2, #28]
10002530:	4c09      	ldr	r4, [pc, #36]	; (10002558 <watchdog_reboot+0x44>)
10002532:	405c      	eors	r4, r3
10002534:	6214      	str	r4, [r2, #32]
10002536:	6251      	str	r1, [r2, #36]	; 0x24
10002538:	6293      	str	r3, [r2, #40]	; 0x28
1000253a:	2100      	movs	r1, #0
1000253c:	f7ff ffae 	bl	1000249c <_watchdog_enable>
10002540:	bd10      	pop	{r4, pc}
10002542:	4b03      	ldr	r3, [pc, #12]	; (10002550 <watchdog_reboot+0x3c>)
10002544:	2200      	movs	r2, #0
10002546:	61da      	str	r2, [r3, #28]
10002548:	e7f7      	b.n	1000253a <watchdog_reboot+0x26>
1000254a:	46c0      	nop			; (mov r8, r8)
1000254c:	4005b000 	.word	0x4005b000
10002550:	40058000 	.word	0x40058000
10002554:	b007c0d3 	.word	0xb007c0d3
10002558:	4ff83f2d 	.word	0x4ff83f2d

1000255c <xosc_init>:
1000255c:	4b06      	ldr	r3, [pc, #24]	; (10002578 <xosc_init+0x1c>)
1000255e:	22aa      	movs	r2, #170	; 0xaa
10002560:	0112      	lsls	r2, r2, #4
10002562:	601a      	str	r2, [r3, #0]
10002564:	222f      	movs	r2, #47	; 0x2f
10002566:	60da      	str	r2, [r3, #12]
10002568:	4b04      	ldr	r3, [pc, #16]	; (1000257c <xosc_init+0x20>)
1000256a:	4a05      	ldr	r2, [pc, #20]	; (10002580 <xosc_init+0x24>)
1000256c:	601a      	str	r2, [r3, #0]
1000256e:	4b02      	ldr	r3, [pc, #8]	; (10002578 <xosc_init+0x1c>)
10002570:	685b      	ldr	r3, [r3, #4]
10002572:	2b00      	cmp	r3, #0
10002574:	dafb      	bge.n	1000256e <xosc_init+0x12>
10002576:	4770      	bx	lr
10002578:	40024000 	.word	0x40024000
1000257c:	40026000 	.word	0x40026000
10002580:	00fab000 	.word	0x00fab000

10002584 <_exit>:
10002584:	be00      	bkpt	0x0000
10002586:	e7fd      	b.n	10002584 <_exit>

10002588 <exit>:
10002588:	b510      	push	{r4, lr}
1000258a:	f7ff fffb 	bl	10002584 <_exit>
	...

10002590 <__assert_func>:
10002590:	b510      	push	{r4, lr}
10002592:	b082      	sub	sp, #8
10002594:	000c      	movs	r4, r1
10002596:	0019      	movs	r1, r3
10002598:	2a00      	cmp	r2, #0
1000259a:	d00c      	beq.n	100025b6 <__assert_func+0x26>
1000259c:	4b08      	ldr	r3, [pc, #32]	; (100025c0 <__assert_func+0x30>)
1000259e:	2a00      	cmp	r2, #0
100025a0:	d00b      	beq.n	100025ba <__assert_func+0x2a>
100025a2:	9201      	str	r2, [sp, #4]
100025a4:	9300      	str	r3, [sp, #0]
100025a6:	0023      	movs	r3, r4
100025a8:	0002      	movs	r2, r0
100025aa:	4806      	ldr	r0, [pc, #24]	; (100025c4 <__assert_func+0x34>)
100025ac:	f001 ff44 	bl	10004438 <__wrap_printf>
100025b0:	2001      	movs	r0, #1
100025b2:	f7ff ffe7 	bl	10002584 <_exit>
100025b6:	4b04      	ldr	r3, [pc, #16]	; (100025c8 <__assert_func+0x38>)
100025b8:	e7f1      	b.n	1000259e <__assert_func+0xe>
100025ba:	4a03      	ldr	r2, [pc, #12]	; (100025c8 <__assert_func+0x38>)
100025bc:	e7f1      	b.n	100025a2 <__assert_func+0x12>
100025be:	46c0      	nop			; (mov r8, r8)
100025c0:	1000774c 	.word	0x1000774c
100025c4:	1000775c 	.word	0x1000775c
100025c8:	10007758 	.word	0x10007758

100025cc <runtime_init>:
100025cc:	b570      	push	{r4, r5, r6, lr}
100025ce:	4b2b      	ldr	r3, [pc, #172]	; (1000267c <runtime_init+0xb0>)
100025d0:	4a2b      	ldr	r2, [pc, #172]	; (10002680 <runtime_init+0xb4>)
100025d2:	601a      	str	r2, [r3, #0]
100025d4:	4b2b      	ldr	r3, [pc, #172]	; (10002684 <runtime_init+0xb8>)
100025d6:	4a2c      	ldr	r2, [pc, #176]	; (10002688 <runtime_init+0xbc>)
100025d8:	601a      	str	r2, [r3, #0]
100025da:	4b2c      	ldr	r3, [pc, #176]	; (1000268c <runtime_init+0xc0>)
100025dc:	689a      	ldr	r2, [r3, #8]
100025de:	4b2a      	ldr	r3, [pc, #168]	; (10002688 <runtime_init+0xbc>)
100025e0:	4393      	bics	r3, r2
100025e2:	d1fa      	bne.n	100025da <runtime_init+0xe>
100025e4:	4c2a      	ldr	r4, [pc, #168]	; (10002690 <runtime_init+0xc4>)
100025e6:	e001      	b.n	100025ec <runtime_init+0x20>
100025e8:	cc08      	ldmia	r4!, {r3}
100025ea:	4798      	blx	r3
100025ec:	4b29      	ldr	r3, [pc, #164]	; (10002694 <runtime_init+0xc8>)
100025ee:	429c      	cmp	r4, r3
100025f0:	d3fa      	bcc.n	100025e8 <runtime_init+0x1c>
100025f2:	f7ff fe31 	bl	10002258 <clocks_init>
100025f6:	4b23      	ldr	r3, [pc, #140]	; (10002684 <runtime_init+0xb8>)
100025f8:	4a27      	ldr	r2, [pc, #156]	; (10002698 <runtime_init+0xcc>)
100025fa:	601a      	str	r2, [r3, #0]
100025fc:	4b23      	ldr	r3, [pc, #140]	; (1000268c <runtime_init+0xc0>)
100025fe:	689b      	ldr	r3, [r3, #8]
10002600:	43db      	mvns	r3, r3
10002602:	01db      	lsls	r3, r3, #7
10002604:	d1fa      	bne.n	100025fc <runtime_init+0x30>
10002606:	4b25      	ldr	r3, [pc, #148]	; (1000269c <runtime_init+0xd0>)
10002608:	2240      	movs	r2, #64	; 0x40
1000260a:	679a      	str	r2, [r3, #120]	; 0x78
1000260c:	675a      	str	r2, [r3, #116]	; 0x74
1000260e:	671a      	str	r2, [r3, #112]	; 0x70
10002610:	66da      	str	r2, [r3, #108]	; 0x6c
10002612:	4c23      	ldr	r4, [pc, #140]	; (100026a0 <runtime_init+0xd4>)
10002614:	e009      	b.n	1000262a <runtime_init+0x5e>
10002616:	4b23      	ldr	r3, [pc, #140]	; (100026a4 <runtime_init+0xd8>)
10002618:	4a23      	ldr	r2, [pc, #140]	; (100026a8 <runtime_init+0xdc>)
1000261a:	2187      	movs	r1, #135	; 0x87
1000261c:	4823      	ldr	r0, [pc, #140]	; (100026ac <runtime_init+0xe0>)
1000261e:	f7ff ffb7 	bl	10002590 <__assert_func>
10002622:	0020      	movs	r0, r4
10002624:	f7fe fd0a 	bl	1000103c <mutex_init>
10002628:	3408      	adds	r4, #8
1000262a:	4b21      	ldr	r3, [pc, #132]	; (100026b0 <runtime_init+0xe4>)
1000262c:	429c      	cmp	r4, r3
1000262e:	d209      	bcs.n	10002644 <runtime_init+0x78>
10002630:	6823      	ldr	r3, [r4, #0]
10002632:	2b00      	cmp	r3, #0
10002634:	d0f5      	beq.n	10002622 <runtime_init+0x56>
10002636:	2b01      	cmp	r3, #1
10002638:	d1ed      	bne.n	10002616 <runtime_init+0x4a>
1000263a:	0020      	movs	r0, r4
1000263c:	f7fe fd0b 	bl	10001056 <recursive_mutex_init>
10002640:	3408      	adds	r4, #8
10002642:	e7f2      	b.n	1000262a <runtime_init+0x5e>
10002644:	4c1b      	ldr	r4, [pc, #108]	; (100026b4 <runtime_init+0xe8>)
10002646:	68a1      	ldr	r1, [r4, #8]
10002648:	4d1b      	ldr	r5, [pc, #108]	; (100026b8 <runtime_init+0xec>)
1000264a:	22c0      	movs	r2, #192	; 0xc0
1000264c:	0028      	movs	r0, r5
1000264e:	f001 fd9b 	bl	10004188 <__wrap___aeabi_memcpy>
10002652:	60a5      	str	r5, [r4, #8]
10002654:	f3ef 8305 	mrs	r3, IPSR
10002658:	2b00      	cmp	r3, #0
1000265a:	d000      	beq.n	1000265e <runtime_init+0x92>
1000265c:	be00      	bkpt	0x0000
1000265e:	f7fe f965 	bl	1000092c <spin_locks_reset>
10002662:	f7fe fcc1 	bl	10000fe8 <irq_init_priorities>
10002666:	f7ff f859 	bl	1000171c <alarm_pool_init_default>
1000266a:	4c14      	ldr	r4, [pc, #80]	; (100026bc <runtime_init+0xf0>)
1000266c:	e001      	b.n	10002672 <runtime_init+0xa6>
1000266e:	cc08      	ldmia	r4!, {r3}
10002670:	4798      	blx	r3
10002672:	4b13      	ldr	r3, [pc, #76]	; (100026c0 <runtime_init+0xf4>)
10002674:	429c      	cmp	r4, r3
10002676:	d3fa      	bcc.n	1000266e <runtime_init+0xa2>
10002678:	bd70      	pop	{r4, r5, r6, pc}
1000267a:	46c0      	nop			; (mov r8, r8)
1000267c:	4000e000 	.word	0x4000e000
10002680:	fefbcdbf 	.word	0xfefbcdbf
10002684:	4000f000 	.word	0x4000f000
10002688:	003c7ffe 	.word	0x003c7ffe
1000268c:	4000c000 	.word	0x4000c000
10002690:	20000c98 	.word	0x20000c98
10002694:	20000ca8 	.word	0x20000ca8
10002698:	01ffffff 	.word	0x01ffffff
1000269c:	4001f000 	.word	0x4001f000
100026a0:	20000c90 	.word	0x20000c90
100026a4:	1000778c 	.word	0x1000778c
100026a8:	1000781c 	.word	0x1000781c
100026ac:	100077ac 	.word	0x100077ac
100026b0:	20000c98 	.word	0x20000c98
100026b4:	e000ed00 	.word	0xe000ed00
100026b8:	20000000 	.word	0x20000000
100026bc:	20000ca8 	.word	0x20000ca8
100026c0:	20000cb0 	.word	0x20000cb0

100026c4 <panic>:
100026c4:	b40f      	push	{r0, r1, r2, r3}
100026c6:	b500      	push	{lr}
100026c8:	b083      	sub	sp, #12
100026ca:	4808      	ldr	r0, [pc, #32]	; (100026ec <panic+0x28>)
100026cc:	f001 fe84 	bl	100043d8 <__wrap_puts>
100026d0:	9b04      	ldr	r3, [sp, #16]
100026d2:	2b00      	cmp	r3, #0
100026d4:	d007      	beq.n	100026e6 <panic+0x22>
100026d6:	a905      	add	r1, sp, #20
100026d8:	9101      	str	r1, [sp, #4]
100026da:	0018      	movs	r0, r3
100026dc:	f001 fe8c 	bl	100043f8 <__wrap_vprintf>
100026e0:	4803      	ldr	r0, [pc, #12]	; (100026f0 <panic+0x2c>)
100026e2:	f001 fe79 	bl	100043d8 <__wrap_puts>
100026e6:	2001      	movs	r0, #1
100026e8:	f7ff ff4c 	bl	10002584 <_exit>
100026ec:	1000780c 	.word	0x1000780c
100026f0:	10006c1c 	.word	0x10006c1c

100026f4 <_out_null>:
100026f4:	4770      	bx	lr

100026f6 <_out_fct>:
100026f6:	b510      	push	{r4, lr}
100026f8:	2800      	cmp	r0, #0
100026fa:	d002      	beq.n	10002702 <_out_fct+0xc>
100026fc:	680b      	ldr	r3, [r1, #0]
100026fe:	6849      	ldr	r1, [r1, #4]
10002700:	4798      	blx	r3
10002702:	bd10      	pop	{r4, pc}

10002704 <_atoi>:
10002704:	0001      	movs	r1, r0
10002706:	2000      	movs	r0, #0
10002708:	e007      	b.n	1000271a <_atoi+0x16>
1000270a:	0083      	lsls	r3, r0, #2
1000270c:	181b      	adds	r3, r3, r0
1000270e:	005b      	lsls	r3, r3, #1
10002710:	1c50      	adds	r0, r2, #1
10002712:	6008      	str	r0, [r1, #0]
10002714:	7810      	ldrb	r0, [r2, #0]
10002716:	18c0      	adds	r0, r0, r3
10002718:	3830      	subs	r0, #48	; 0x30
1000271a:	680a      	ldr	r2, [r1, #0]
1000271c:	7813      	ldrb	r3, [r2, #0]
1000271e:	3b30      	subs	r3, #48	; 0x30
10002720:	b2db      	uxtb	r3, r3
10002722:	2b09      	cmp	r3, #9
10002724:	d9f1      	bls.n	1000270a <_atoi+0x6>
10002726:	4770      	bx	lr

10002728 <_out_rev>:
10002728:	b5f0      	push	{r4, r5, r6, r7, lr}
1000272a:	46de      	mov	lr, fp
1000272c:	4657      	mov	r7, sl
1000272e:	464e      	mov	r6, r9
10002730:	4645      	mov	r5, r8
10002732:	b5e0      	push	{r5, r6, r7, lr}
10002734:	b083      	sub	sp, #12
10002736:	4693      	mov	fp, r2
10002738:	001f      	movs	r7, r3
1000273a:	9b0c      	ldr	r3, [sp, #48]	; 0x30
1000273c:	469a      	mov	sl, r3
1000273e:	9c0d      	ldr	r4, [sp, #52]	; 0x34
10002740:	9b0e      	ldr	r3, [sp, #56]	; 0x38
10002742:	4699      	mov	r9, r3
10002744:	9b0f      	ldr	r3, [sp, #60]	; 0x3c
10002746:	079b      	lsls	r3, r3, #30
10002748:	d003      	beq.n	10002752 <_out_rev+0x2a>
1000274a:	46b8      	mov	r8, r7
1000274c:	000f      	movs	r7, r1
1000274e:	0006      	movs	r6, r0
10002750:	e022      	b.n	10002798 <_out_rev+0x70>
10002752:	9201      	str	r2, [sp, #4]
10002754:	46a3      	mov	fp, r4
10002756:	4688      	mov	r8, r1
10002758:	464e      	mov	r6, r9
1000275a:	46b9      	mov	r9, r7
1000275c:	0007      	movs	r7, r0
1000275e:	42b4      	cmp	r4, r6
10002760:	d207      	bcs.n	10002772 <_out_rev+0x4a>
10002762:	1c55      	adds	r5, r2, #1
10002764:	464b      	mov	r3, r9
10002766:	4641      	mov	r1, r8
10002768:	2020      	movs	r0, #32
1000276a:	47b8      	blx	r7
1000276c:	3401      	adds	r4, #1
1000276e:	002a      	movs	r2, r5
10002770:	e7f5      	b.n	1000275e <_out_rev+0x36>
10002772:	003d      	movs	r5, r7
10002774:	464f      	mov	r7, r9
10002776:	465c      	mov	r4, fp
10002778:	9b01      	ldr	r3, [sp, #4]
1000277a:	469b      	mov	fp, r3
1000277c:	46b1      	mov	r9, r6
1000277e:	4646      	mov	r6, r8
10002780:	46b8      	mov	r8, r7
10002782:	0037      	movs	r7, r6
10002784:	002e      	movs	r6, r5
10002786:	e007      	b.n	10002798 <_out_rev+0x70>
10002788:	3c01      	subs	r4, #1
1000278a:	1c55      	adds	r5, r2, #1
1000278c:	4653      	mov	r3, sl
1000278e:	5d18      	ldrb	r0, [r3, r4]
10002790:	4643      	mov	r3, r8
10002792:	0039      	movs	r1, r7
10002794:	47b0      	blx	r6
10002796:	002a      	movs	r2, r5
10002798:	2c00      	cmp	r4, #0
1000279a:	d1f5      	bne.n	10002788 <_out_rev+0x60>
1000279c:	0035      	movs	r5, r6
1000279e:	003e      	movs	r6, r7
100027a0:	4647      	mov	r7, r8
100027a2:	9b0f      	ldr	r3, [sp, #60]	; 0x3c
100027a4:	079b      	lsls	r3, r3, #30
100027a6:	d407      	bmi.n	100027b8 <_out_rev+0x90>
100027a8:	0010      	movs	r0, r2
100027aa:	b003      	add	sp, #12
100027ac:	bcf0      	pop	{r4, r5, r6, r7}
100027ae:	46bb      	mov	fp, r7
100027b0:	46b2      	mov	sl, r6
100027b2:	46a9      	mov	r9, r5
100027b4:	46a0      	mov	r8, r4
100027b6:	bdf0      	pop	{r4, r5, r6, r7, pc}
100027b8:	46b0      	mov	r8, r6
100027ba:	464e      	mov	r6, r9
100027bc:	46b9      	mov	r9, r7
100027be:	002f      	movs	r7, r5
100027c0:	465d      	mov	r5, fp
100027c2:	1b53      	subs	r3, r2, r5
100027c4:	42b3      	cmp	r3, r6
100027c6:	d2ef      	bcs.n	100027a8 <_out_rev+0x80>
100027c8:	1c54      	adds	r4, r2, #1
100027ca:	464b      	mov	r3, r9
100027cc:	4641      	mov	r1, r8
100027ce:	2020      	movs	r0, #32
100027d0:	47b8      	blx	r7
100027d2:	0022      	movs	r2, r4
100027d4:	e7f5      	b.n	100027c2 <_out_rev+0x9a>

100027d6 <_ntoa_format>:
100027d6:	b5f0      	push	{r4, r5, r6, r7, lr}
100027d8:	46ce      	mov	lr, r9
100027da:	4647      	mov	r7, r8
100027dc:	b580      	push	{r7, lr}
100027de:	b085      	sub	sp, #20
100027e0:	4694      	mov	ip, r2
100027e2:	4698      	mov	r8, r3
100027e4:	9d0c      	ldr	r5, [sp, #48]	; 0x30
100027e6:	9c0d      	ldr	r4, [sp, #52]	; 0x34
100027e8:	ab0e      	add	r3, sp, #56	; 0x38
100027ea:	781b      	ldrb	r3, [r3, #0]
100027ec:	4699      	mov	r9, r3
100027ee:	9a10      	ldr	r2, [sp, #64]	; 0x40
100027f0:	9b11      	ldr	r3, [sp, #68]	; 0x44
100027f2:	9e12      	ldr	r6, [sp, #72]	; 0x48
100027f4:	07b7      	lsls	r7, r6, #30
100027f6:	d41c      	bmi.n	10002832 <_ntoa_format+0x5c>
100027f8:	2b00      	cmp	r3, #0
100027fa:	d00c      	beq.n	10002816 <_ntoa_format+0x40>
100027fc:	07f7      	lsls	r7, r6, #31
100027fe:	d50a      	bpl.n	10002816 <_ntoa_format+0x40>
10002800:	464f      	mov	r7, r9
10002802:	2f00      	cmp	r7, #0
10002804:	d102      	bne.n	1000280c <_ntoa_format+0x36>
10002806:	370c      	adds	r7, #12
10002808:	4237      	tst	r7, r6
1000280a:	d004      	beq.n	10002816 <_ntoa_format+0x40>
1000280c:	3b01      	subs	r3, #1
1000280e:	e002      	b.n	10002816 <_ntoa_format+0x40>
10002810:	2730      	movs	r7, #48	; 0x30
10002812:	552f      	strb	r7, [r5, r4]
10002814:	3401      	adds	r4, #1
10002816:	4294      	cmp	r4, r2
10002818:	d201      	bcs.n	1000281e <_ntoa_format+0x48>
1000281a:	2c1f      	cmp	r4, #31
1000281c:	d9f8      	bls.n	10002810 <_ntoa_format+0x3a>
1000281e:	07f7      	lsls	r7, r6, #31
10002820:	d507      	bpl.n	10002832 <_ntoa_format+0x5c>
10002822:	429c      	cmp	r4, r3
10002824:	d205      	bcs.n	10002832 <_ntoa_format+0x5c>
10002826:	2c1f      	cmp	r4, #31
10002828:	d803      	bhi.n	10002832 <_ntoa_format+0x5c>
1000282a:	2730      	movs	r7, #48	; 0x30
1000282c:	552f      	strb	r7, [r5, r4]
1000282e:	3401      	adds	r4, #1
10002830:	e7f5      	b.n	1000281e <_ntoa_format+0x48>
10002832:	06f7      	lsls	r7, r6, #27
10002834:	d515      	bpl.n	10002862 <_ntoa_format+0x8c>
10002836:	0577      	lsls	r7, r6, #21
10002838:	d405      	bmi.n	10002846 <_ntoa_format+0x70>
1000283a:	2c00      	cmp	r4, #0
1000283c:	d003      	beq.n	10002846 <_ntoa_format+0x70>
1000283e:	4294      	cmp	r4, r2
10002840:	d024      	beq.n	1000288c <_ntoa_format+0xb6>
10002842:	429c      	cmp	r4, r3
10002844:	d022      	beq.n	1000288c <_ntoa_format+0xb6>
10002846:	9a0f      	ldr	r2, [sp, #60]	; 0x3c
10002848:	2a10      	cmp	r2, #16
1000284a:	d02b      	beq.n	100028a4 <_ntoa_format+0xce>
1000284c:	9a0f      	ldr	r2, [sp, #60]	; 0x3c
1000284e:	2a10      	cmp	r2, #16
10002850:	d030      	beq.n	100028b4 <_ntoa_format+0xde>
10002852:	9a0f      	ldr	r2, [sp, #60]	; 0x3c
10002854:	2a02      	cmp	r2, #2
10002856:	d035      	beq.n	100028c4 <_ntoa_format+0xee>
10002858:	2c1f      	cmp	r4, #31
1000285a:	d802      	bhi.n	10002862 <_ntoa_format+0x8c>
1000285c:	2230      	movs	r2, #48	; 0x30
1000285e:	552a      	strb	r2, [r5, r4]
10002860:	3401      	adds	r4, #1
10002862:	2c1f      	cmp	r4, #31
10002864:	d805      	bhi.n	10002872 <_ntoa_format+0x9c>
10002866:	464a      	mov	r2, r9
10002868:	2a00      	cmp	r2, #0
1000286a:	d031      	beq.n	100028d0 <_ntoa_format+0xfa>
1000286c:	222d      	movs	r2, #45	; 0x2d
1000286e:	552a      	strb	r2, [r5, r4]
10002870:	3401      	adds	r4, #1
10002872:	9603      	str	r6, [sp, #12]
10002874:	9302      	str	r3, [sp, #8]
10002876:	9401      	str	r4, [sp, #4]
10002878:	9500      	str	r5, [sp, #0]
1000287a:	4643      	mov	r3, r8
1000287c:	4662      	mov	r2, ip
1000287e:	f7ff ff53 	bl	10002728 <_out_rev>
10002882:	b005      	add	sp, #20
10002884:	bcc0      	pop	{r6, r7}
10002886:	46b9      	mov	r9, r7
10002888:	46b0      	mov	r8, r6
1000288a:	bdf0      	pop	{r4, r5, r6, r7, pc}
1000288c:	1e62      	subs	r2, r4, #1
1000288e:	2c01      	cmp	r4, #1
10002890:	d006      	beq.n	100028a0 <_ntoa_format+0xca>
10002892:	9f0f      	ldr	r7, [sp, #60]	; 0x3c
10002894:	2f10      	cmp	r7, #16
10002896:	d001      	beq.n	1000289c <_ntoa_format+0xc6>
10002898:	0014      	movs	r4, r2
1000289a:	e7d4      	b.n	10002846 <_ntoa_format+0x70>
1000289c:	3c02      	subs	r4, #2
1000289e:	e7d2      	b.n	10002846 <_ntoa_format+0x70>
100028a0:	0014      	movs	r4, r2
100028a2:	e7d0      	b.n	10002846 <_ntoa_format+0x70>
100028a4:	06b2      	lsls	r2, r6, #26
100028a6:	d4d1      	bmi.n	1000284c <_ntoa_format+0x76>
100028a8:	2c1f      	cmp	r4, #31
100028aa:	d8cf      	bhi.n	1000284c <_ntoa_format+0x76>
100028ac:	2278      	movs	r2, #120	; 0x78
100028ae:	552a      	strb	r2, [r5, r4]
100028b0:	3401      	adds	r4, #1
100028b2:	e7d1      	b.n	10002858 <_ntoa_format+0x82>
100028b4:	06b2      	lsls	r2, r6, #26
100028b6:	d5cc      	bpl.n	10002852 <_ntoa_format+0x7c>
100028b8:	2c1f      	cmp	r4, #31
100028ba:	d8ca      	bhi.n	10002852 <_ntoa_format+0x7c>
100028bc:	2258      	movs	r2, #88	; 0x58
100028be:	552a      	strb	r2, [r5, r4]
100028c0:	3401      	adds	r4, #1
100028c2:	e7c9      	b.n	10002858 <_ntoa_format+0x82>
100028c4:	2c1f      	cmp	r4, #31
100028c6:	d8c7      	bhi.n	10002858 <_ntoa_format+0x82>
100028c8:	3260      	adds	r2, #96	; 0x60
100028ca:	552a      	strb	r2, [r5, r4]
100028cc:	3401      	adds	r4, #1
100028ce:	e7c3      	b.n	10002858 <_ntoa_format+0x82>
100028d0:	0772      	lsls	r2, r6, #29
100028d2:	d503      	bpl.n	100028dc <_ntoa_format+0x106>
100028d4:	222b      	movs	r2, #43	; 0x2b
100028d6:	552a      	strb	r2, [r5, r4]
100028d8:	3401      	adds	r4, #1
100028da:	e7ca      	b.n	10002872 <_ntoa_format+0x9c>
100028dc:	0732      	lsls	r2, r6, #28
100028de:	d5c8      	bpl.n	10002872 <_ntoa_format+0x9c>
100028e0:	2220      	movs	r2, #32
100028e2:	552a      	strb	r2, [r5, r4]
100028e4:	3401      	adds	r4, #1
100028e6:	e7c4      	b.n	10002872 <_ntoa_format+0x9c>

100028e8 <_ntoa_long>:
100028e8:	b5f0      	push	{r4, r5, r6, r7, lr}
100028ea:	46de      	mov	lr, fp
100028ec:	4657      	mov	r7, sl
100028ee:	464e      	mov	r6, r9
100028f0:	4645      	mov	r5, r8
100028f2:	b5e0      	push	{r5, r6, r7, lr}
100028f4:	b093      	sub	sp, #76	; 0x4c
100028f6:	4681      	mov	r9, r0
100028f8:	468a      	mov	sl, r1
100028fa:	9208      	str	r2, [sp, #32]
100028fc:	9309      	str	r3, [sp, #36]	; 0x24
100028fe:	ab1c      	add	r3, sp, #112	; 0x70
10002900:	cb10      	ldmia	r3!, {r4}
10002902:	781b      	ldrb	r3, [r3, #0]
10002904:	469b      	mov	fp, r3
10002906:	9d1e      	ldr	r5, [sp, #120]	; 0x78
10002908:	9b21      	ldr	r3, [sp, #132]	; 0x84
1000290a:	4698      	mov	r8, r3
1000290c:	2c00      	cmp	r4, #0
1000290e:	d103      	bne.n	10002918 <_ntoa_long+0x30>
10002910:	2310      	movs	r3, #16
10002912:	4642      	mov	r2, r8
10002914:	439a      	bics	r2, r3
10002916:	4690      	mov	r8, r2
10002918:	2380      	movs	r3, #128	; 0x80
1000291a:	00db      	lsls	r3, r3, #3
1000291c:	4646      	mov	r6, r8
1000291e:	401e      	ands	r6, r3
10002920:	4642      	mov	r2, r8
10002922:	421a      	tst	r2, r3
10002924:	d012      	beq.n	1000294c <_ntoa_long+0x64>
10002926:	2c00      	cmp	r4, #0
10002928:	d022      	beq.n	10002970 <_ntoa_long+0x88>
1000292a:	2600      	movs	r6, #0
1000292c:	e00e      	b.n	1000294c <_ntoa_long+0x64>
1000292e:	3330      	adds	r3, #48	; 0x30
10002930:	b2d9      	uxtb	r1, r3
10002932:	1c77      	adds	r7, r6, #1
10002934:	ab0a      	add	r3, sp, #40	; 0x28
10002936:	5599      	strb	r1, [r3, r6]
10002938:	0029      	movs	r1, r5
1000293a:	0020      	movs	r0, r4
1000293c:	f000 ffd6 	bl	100038ec <__wrap___aeabi_uidiv>
10002940:	42ac      	cmp	r4, r5
10002942:	d316      	bcc.n	10002972 <_ntoa_long+0x8a>
10002944:	2f1f      	cmp	r7, #31
10002946:	d814      	bhi.n	10002972 <_ntoa_long+0x8a>
10002948:	003e      	movs	r6, r7
1000294a:	0004      	movs	r4, r0
1000294c:	0029      	movs	r1, r5
1000294e:	0020      	movs	r0, r4
10002950:	f000 ffcc 	bl	100038ec <__wrap___aeabi_uidiv>
10002954:	b2cb      	uxtb	r3, r1
10002956:	2b09      	cmp	r3, #9
10002958:	d9e9      	bls.n	1000292e <_ntoa_long+0x46>
1000295a:	4642      	mov	r2, r8
1000295c:	0692      	lsls	r2, r2, #26
1000295e:	d505      	bpl.n	1000296c <_ntoa_long+0x84>
10002960:	2141      	movs	r1, #65	; 0x41
10002962:	18c9      	adds	r1, r1, r3
10002964:	b2c9      	uxtb	r1, r1
10002966:	390a      	subs	r1, #10
10002968:	b2c9      	uxtb	r1, r1
1000296a:	e7e2      	b.n	10002932 <_ntoa_long+0x4a>
1000296c:	2161      	movs	r1, #97	; 0x61
1000296e:	e7f8      	b.n	10002962 <_ntoa_long+0x7a>
10002970:	0027      	movs	r7, r4
10002972:	4643      	mov	r3, r8
10002974:	9306      	str	r3, [sp, #24]
10002976:	9b20      	ldr	r3, [sp, #128]	; 0x80
10002978:	9305      	str	r3, [sp, #20]
1000297a:	9b1f      	ldr	r3, [sp, #124]	; 0x7c
1000297c:	9304      	str	r3, [sp, #16]
1000297e:	9503      	str	r5, [sp, #12]
10002980:	465b      	mov	r3, fp
10002982:	9302      	str	r3, [sp, #8]
10002984:	9701      	str	r7, [sp, #4]
10002986:	ab0a      	add	r3, sp, #40	; 0x28
10002988:	9300      	str	r3, [sp, #0]
1000298a:	9b09      	ldr	r3, [sp, #36]	; 0x24
1000298c:	9a08      	ldr	r2, [sp, #32]
1000298e:	4651      	mov	r1, sl
10002990:	4648      	mov	r0, r9
10002992:	f7ff ff20 	bl	100027d6 <_ntoa_format>
10002996:	b013      	add	sp, #76	; 0x4c
10002998:	bcf0      	pop	{r4, r5, r6, r7}
1000299a:	46bb      	mov	fp, r7
1000299c:	46b2      	mov	sl, r6
1000299e:	46a9      	mov	r9, r5
100029a0:	46a0      	mov	r8, r4
100029a2:	bdf0      	pop	{r4, r5, r6, r7, pc}

100029a4 <_ntoa_long_long>:
100029a4:	b5f0      	push	{r4, r5, r6, r7, lr}
100029a6:	46de      	mov	lr, fp
100029a8:	4657      	mov	r7, sl
100029aa:	464e      	mov	r6, r9
100029ac:	4645      	mov	r5, r8
100029ae:	b5e0      	push	{r5, r6, r7, lr}
100029b0:	b095      	sub	sp, #84	; 0x54
100029b2:	9008      	str	r0, [sp, #32]
100029b4:	9109      	str	r1, [sp, #36]	; 0x24
100029b6:	920a      	str	r2, [sp, #40]	; 0x28
100029b8:	930b      	str	r3, [sp, #44]	; 0x2c
100029ba:	9e1e      	ldr	r6, [sp, #120]	; 0x78
100029bc:	9c1f      	ldr	r4, [sp, #124]	; 0x7c
100029be:	ab20      	add	r3, sp, #128	; 0x80
100029c0:	781b      	ldrb	r3, [r3, #0]
100029c2:	469b      	mov	fp, r3
100029c4:	9b22      	ldr	r3, [sp, #136]	; 0x88
100029c6:	4699      	mov	r9, r3
100029c8:	9d23      	ldr	r5, [sp, #140]	; 0x8c
100029ca:	9b26      	ldr	r3, [sp, #152]	; 0x98
100029cc:	469a      	mov	sl, r3
100029ce:	0033      	movs	r3, r6
100029d0:	4323      	orrs	r3, r4
100029d2:	d103      	bne.n	100029dc <_ntoa_long_long+0x38>
100029d4:	3310      	adds	r3, #16
100029d6:	4652      	mov	r2, sl
100029d8:	439a      	bics	r2, r3
100029da:	4692      	mov	sl, r2
100029dc:	2380      	movs	r3, #128	; 0x80
100029de:	00db      	lsls	r3, r3, #3
100029e0:	4657      	mov	r7, sl
100029e2:	401f      	ands	r7, r3
100029e4:	4652      	mov	r2, sl
100029e6:	421a      	tst	r2, r3
100029e8:	d019      	beq.n	10002a1e <_ntoa_long_long+0x7a>
100029ea:	0033      	movs	r3, r6
100029ec:	4323      	orrs	r3, r4
100029ee:	d02d      	beq.n	10002a4c <_ntoa_long_long+0xa8>
100029f0:	2700      	movs	r7, #0
100029f2:	e014      	b.n	10002a1e <_ntoa_long_long+0x7a>
100029f4:	3330      	adds	r3, #48	; 0x30
100029f6:	b2da      	uxtb	r2, r3
100029f8:	1c7b      	adds	r3, r7, #1
100029fa:	4698      	mov	r8, r3
100029fc:	ab0c      	add	r3, sp, #48	; 0x30
100029fe:	55da      	strb	r2, [r3, r7]
10002a00:	464a      	mov	r2, r9
10002a02:	002b      	movs	r3, r5
10002a04:	0030      	movs	r0, r6
10002a06:	0021      	movs	r1, r4
10002a08:	f000 ffae 	bl	10003968 <__wrap___aeabi_uldivmod>
10002a0c:	42a5      	cmp	r5, r4
10002a0e:	d81f      	bhi.n	10002a50 <_ntoa_long_long+0xac>
10002a10:	d019      	beq.n	10002a46 <_ntoa_long_long+0xa2>
10002a12:	4643      	mov	r3, r8
10002a14:	2b1f      	cmp	r3, #31
10002a16:	d81b      	bhi.n	10002a50 <_ntoa_long_long+0xac>
10002a18:	4647      	mov	r7, r8
10002a1a:	0006      	movs	r6, r0
10002a1c:	000c      	movs	r4, r1
10002a1e:	464a      	mov	r2, r9
10002a20:	002b      	movs	r3, r5
10002a22:	0030      	movs	r0, r6
10002a24:	0021      	movs	r1, r4
10002a26:	f000 ff9f 	bl	10003968 <__wrap___aeabi_uldivmod>
10002a2a:	b2d3      	uxtb	r3, r2
10002a2c:	2b09      	cmp	r3, #9
10002a2e:	d9e1      	bls.n	100029f4 <_ntoa_long_long+0x50>
10002a30:	4652      	mov	r2, sl
10002a32:	0692      	lsls	r2, r2, #26
10002a34:	d505      	bpl.n	10002a42 <_ntoa_long_long+0x9e>
10002a36:	2241      	movs	r2, #65	; 0x41
10002a38:	18d2      	adds	r2, r2, r3
10002a3a:	b2d2      	uxtb	r2, r2
10002a3c:	3a0a      	subs	r2, #10
10002a3e:	b2d2      	uxtb	r2, r2
10002a40:	e7da      	b.n	100029f8 <_ntoa_long_long+0x54>
10002a42:	2261      	movs	r2, #97	; 0x61
10002a44:	e7f8      	b.n	10002a38 <_ntoa_long_long+0x94>
10002a46:	45b1      	cmp	r9, r6
10002a48:	d9e3      	bls.n	10002a12 <_ntoa_long_long+0x6e>
10002a4a:	e001      	b.n	10002a50 <_ntoa_long_long+0xac>
10002a4c:	2300      	movs	r3, #0
10002a4e:	4698      	mov	r8, r3
10002a50:	4653      	mov	r3, sl
10002a52:	9306      	str	r3, [sp, #24]
10002a54:	9b25      	ldr	r3, [sp, #148]	; 0x94
10002a56:	9305      	str	r3, [sp, #20]
10002a58:	9b24      	ldr	r3, [sp, #144]	; 0x90
10002a5a:	9304      	str	r3, [sp, #16]
10002a5c:	464b      	mov	r3, r9
10002a5e:	9303      	str	r3, [sp, #12]
10002a60:	465b      	mov	r3, fp
10002a62:	9302      	str	r3, [sp, #8]
10002a64:	4643      	mov	r3, r8
10002a66:	9301      	str	r3, [sp, #4]
10002a68:	ab0c      	add	r3, sp, #48	; 0x30
10002a6a:	9300      	str	r3, [sp, #0]
10002a6c:	9b0b      	ldr	r3, [sp, #44]	; 0x2c
10002a6e:	9a0a      	ldr	r2, [sp, #40]	; 0x28
10002a70:	9909      	ldr	r1, [sp, #36]	; 0x24
10002a72:	9808      	ldr	r0, [sp, #32]
10002a74:	f7ff feaf 	bl	100027d6 <_ntoa_format>
10002a78:	b015      	add	sp, #84	; 0x54
10002a7a:	bcf0      	pop	{r4, r5, r6, r7}
10002a7c:	46bb      	mov	fp, r7
10002a7e:	46b2      	mov	sl, r6
10002a80:	46a9      	mov	r9, r5
10002a82:	46a0      	mov	r8, r4
10002a84:	bdf0      	pop	{r4, r5, r6, r7, pc}
	...

10002a88 <_etoa>:
10002a88:	b5f0      	push	{r4, r5, r6, r7, lr}
10002a8a:	46de      	mov	lr, fp
10002a8c:	4657      	mov	r7, sl
10002a8e:	464e      	mov	r6, r9
10002a90:	4645      	mov	r5, r8
10002a92:	b5e0      	push	{r5, r6, r7, lr}
10002a94:	b091      	sub	sp, #68	; 0x44
10002a96:	4683      	mov	fp, r0
10002a98:	468a      	mov	sl, r1
10002a9a:	920c      	str	r2, [sp, #48]	; 0x30
10002a9c:	4698      	mov	r8, r3
10002a9e:	9c1a      	ldr	r4, [sp, #104]	; 0x68
10002aa0:	9408      	str	r4, [sp, #32]
10002aa2:	9d1b      	ldr	r5, [sp, #108]	; 0x6c
10002aa4:	9509      	str	r5, [sp, #36]	; 0x24
10002aa6:	0022      	movs	r2, r4
10002aa8:	002b      	movs	r3, r5
10002aaa:	0020      	movs	r0, r4
10002aac:	0029      	movs	r1, r5
10002aae:	f001 f9d6 	bl	10003e5e <__wrap___aeabi_dcmpun>
10002ab2:	2800      	cmp	r0, #0
10002ab4:	d000      	beq.n	10002ab8 <_etoa+0x30>
10002ab6:	e0e5      	b.n	10002c84 <_etoa+0x1fc>
10002ab8:	2201      	movs	r2, #1
10002aba:	4252      	negs	r2, r2
10002abc:	4bd7      	ldr	r3, [pc, #860]	; (10002e1c <_etoa+0x394>)
10002abe:	0020      	movs	r0, r4
10002ac0:	0029      	movs	r1, r5
10002ac2:	f001 f9c7 	bl	10003e54 <__wrap___aeabi_dcmpgt>
10002ac6:	2800      	cmp	r0, #0
10002ac8:	d000      	beq.n	10002acc <_etoa+0x44>
10002aca:	e0db      	b.n	10002c84 <_etoa+0x1fc>
10002acc:	2201      	movs	r2, #1
10002ace:	4252      	negs	r2, r2
10002ad0:	4bd3      	ldr	r3, [pc, #844]	; (10002e20 <_etoa+0x398>)
10002ad2:	0020      	movs	r0, r4
10002ad4:	0029      	movs	r1, r5
10002ad6:	f001 f9a7 	bl	10003e28 <__wrap___aeabi_dcmplt>
10002ada:	2800      	cmp	r0, #0
10002adc:	d000      	beq.n	10002ae0 <_etoa+0x58>
10002ade:	e0d1      	b.n	10002c84 <_etoa+0x1fc>
10002ae0:	2200      	movs	r2, #0
10002ae2:	2300      	movs	r3, #0
10002ae4:	9e08      	ldr	r6, [sp, #32]
10002ae6:	0030      	movs	r0, r6
10002ae8:	9d09      	ldr	r5, [sp, #36]	; 0x24
10002aea:	0029      	movs	r1, r5
10002aec:	f001 f99c 	bl	10003e28 <__wrap___aeabi_dcmplt>
10002af0:	2800      	cmp	r0, #0
10002af2:	d000      	beq.n	10002af6 <_etoa+0x6e>
10002af4:	e0dd      	b.n	10002cb2 <_etoa+0x22a>
10002af6:	9808      	ldr	r0, [sp, #32]
10002af8:	9909      	ldr	r1, [sp, #36]	; 0x24
10002afa:	9006      	str	r0, [sp, #24]
10002afc:	9107      	str	r1, [sp, #28]
10002afe:	2380      	movs	r3, #128	; 0x80
10002b00:	00db      	lsls	r3, r3, #3
10002b02:	9a1e      	ldr	r2, [sp, #120]	; 0x78
10002b04:	401a      	ands	r2, r3
10002b06:	920d      	str	r2, [sp, #52]	; 0x34
10002b08:	9a1e      	ldr	r2, [sp, #120]	; 0x78
10002b0a:	421a      	tst	r2, r3
10002b0c:	d101      	bne.n	10002b12 <_etoa+0x8a>
10002b0e:	2306      	movs	r3, #6
10002b10:	931c      	str	r3, [sp, #112]	; 0x70
10002b12:	9806      	ldr	r0, [sp, #24]
10002b14:	9907      	ldr	r1, [sp, #28]
10002b16:	0004      	movs	r4, r0
10002b18:	000d      	movs	r5, r1
10002b1a:	000a      	movs	r2, r1
10002b1c:	0006      	movs	r6, r0
10002b1e:	4302      	orrs	r2, r0
10002b20:	d100      	bne.n	10002b24 <_etoa+0x9c>
10002b22:	e0d1      	b.n	10002cc8 <_etoa+0x240>
10002b24:	0d08      	lsrs	r0, r1, #20
10002b26:	0540      	lsls	r0, r0, #21
10002b28:	0d40      	lsrs	r0, r0, #21
10002b2a:	4cbe      	ldr	r4, [pc, #760]	; (10002e24 <_etoa+0x39c>)
10002b2c:	46a4      	mov	ip, r4
10002b2e:	4460      	add	r0, ip
10002b30:	030a      	lsls	r2, r1, #12
10002b32:	0b12      	lsrs	r2, r2, #12
10002b34:	4bbc      	ldr	r3, [pc, #752]	; (10002e28 <_etoa+0x3a0>)
10002b36:	4313      	orrs	r3, r2
10002b38:	001f      	movs	r7, r3
10002b3a:	f001 f9a3 	bl	10003e84 <__wrap___aeabi_i2d>
10002b3e:	4abb      	ldr	r2, [pc, #748]	; (10002e2c <_etoa+0x3a4>)
10002b40:	4bbb      	ldr	r3, [pc, #748]	; (10002e30 <_etoa+0x3a8>)
10002b42:	f001 f932 	bl	10003daa <__wrap___aeabi_dmul>
10002b46:	4abb      	ldr	r2, [pc, #748]	; (10002e34 <_etoa+0x3ac>)
10002b48:	4bbb      	ldr	r3, [pc, #748]	; (10002e38 <_etoa+0x3b0>)
10002b4a:	f001 f90f 	bl	10003d6c <__wrap___aeabi_dadd>
10002b4e:	0004      	movs	r4, r0
10002b50:	000d      	movs	r5, r1
10002b52:	2200      	movs	r2, #0
10002b54:	4bb9      	ldr	r3, [pc, #740]	; (10002e3c <_etoa+0x3b4>)
10002b56:	0030      	movs	r0, r6
10002b58:	0039      	movs	r1, r7
10002b5a:	f001 f902 	bl	10003d62 <__wrap___aeabi_dsub>
10002b5e:	4ab8      	ldr	r2, [pc, #736]	; (10002e40 <_etoa+0x3b8>)
10002b60:	4bb8      	ldr	r3, [pc, #736]	; (10002e44 <_etoa+0x3bc>)
10002b62:	f001 f922 	bl	10003daa <__wrap___aeabi_dmul>
10002b66:	0002      	movs	r2, r0
10002b68:	000b      	movs	r3, r1
10002b6a:	0020      	movs	r0, r4
10002b6c:	0029      	movs	r1, r5
10002b6e:	f001 f8fd 	bl	10003d6c <__wrap___aeabi_dadd>
10002b72:	f001 f99f 	bl	10003eb4 <__wrap___aeabi_d2iz>
10002b76:	4681      	mov	r9, r0
10002b78:	f001 f984 	bl	10003e84 <__wrap___aeabi_i2d>
10002b7c:	0004      	movs	r4, r0
10002b7e:	000d      	movs	r5, r1
10002b80:	4ab1      	ldr	r2, [pc, #708]	; (10002e48 <_etoa+0x3c0>)
10002b82:	4bb2      	ldr	r3, [pc, #712]	; (10002e4c <_etoa+0x3c4>)
10002b84:	f001 f911 	bl	10003daa <__wrap___aeabi_dmul>
10002b88:	2200      	movs	r2, #0
10002b8a:	4bb1      	ldr	r3, [pc, #708]	; (10002e50 <_etoa+0x3c8>)
10002b8c:	f001 f8ee 	bl	10003d6c <__wrap___aeabi_dadd>
10002b90:	f001 f990 	bl	10003eb4 <__wrap___aeabi_d2iz>
10002b94:	0006      	movs	r6, r0
10002b96:	4aaf      	ldr	r2, [pc, #700]	; (10002e54 <_etoa+0x3cc>)
10002b98:	4baf      	ldr	r3, [pc, #700]	; (10002e58 <_etoa+0x3d0>)
10002b9a:	0020      	movs	r0, r4
10002b9c:	0029      	movs	r1, r5
10002b9e:	f001 f904 	bl	10003daa <__wrap___aeabi_dmul>
10002ba2:	0004      	movs	r4, r0
10002ba4:	000d      	movs	r5, r1
10002ba6:	0030      	movs	r0, r6
10002ba8:	f001 f96c 	bl	10003e84 <__wrap___aeabi_i2d>
10002bac:	4aab      	ldr	r2, [pc, #684]	; (10002e5c <_etoa+0x3d4>)
10002bae:	4bac      	ldr	r3, [pc, #688]	; (10002e60 <_etoa+0x3d8>)
10002bb0:	f001 f8fb 	bl	10003daa <__wrap___aeabi_dmul>
10002bb4:	0002      	movs	r2, r0
10002bb6:	000b      	movs	r3, r1
10002bb8:	0020      	movs	r0, r4
10002bba:	0029      	movs	r1, r5
10002bbc:	f001 f8d1 	bl	10003d62 <__wrap___aeabi_dsub>
10002bc0:	0004      	movs	r4, r0
10002bc2:	000d      	movs	r5, r1
10002bc4:	0002      	movs	r2, r0
10002bc6:	000b      	movs	r3, r1
10002bc8:	f001 f8ef 	bl	10003daa <__wrap___aeabi_dmul>
10002bcc:	900a      	str	r0, [sp, #40]	; 0x28
10002bce:	910b      	str	r1, [sp, #44]	; 0x2c
10002bd0:	4ba4      	ldr	r3, [pc, #656]	; (10002e64 <_etoa+0x3dc>)
10002bd2:	18f3      	adds	r3, r6, r3
10002bd4:	2600      	movs	r6, #0
10002bd6:	051f      	lsls	r7, r3, #20
10002bd8:	0022      	movs	r2, r4
10002bda:	002b      	movs	r3, r5
10002bdc:	0020      	movs	r0, r4
10002bde:	0029      	movs	r1, r5
10002be0:	f001 f8c4 	bl	10003d6c <__wrap___aeabi_dadd>
10002be4:	900e      	str	r0, [sp, #56]	; 0x38
10002be6:	910f      	str	r1, [sp, #60]	; 0x3c
10002be8:	0022      	movs	r2, r4
10002bea:	002b      	movs	r3, r5
10002bec:	2000      	movs	r0, #0
10002bee:	2180      	movs	r1, #128	; 0x80
10002bf0:	05c9      	lsls	r1, r1, #23
10002bf2:	f001 f8b6 	bl	10003d62 <__wrap___aeabi_dsub>
10002bf6:	0004      	movs	r4, r0
10002bf8:	000d      	movs	r5, r1
10002bfa:	2200      	movs	r2, #0
10002bfc:	4b9a      	ldr	r3, [pc, #616]	; (10002e68 <_etoa+0x3e0>)
10002bfe:	980a      	ldr	r0, [sp, #40]	; 0x28
10002c00:	990b      	ldr	r1, [sp, #44]	; 0x2c
10002c02:	f001 f8b8 	bl	10003d76 <__wrap___aeabi_ddiv>
10002c06:	2200      	movs	r2, #0
10002c08:	4b98      	ldr	r3, [pc, #608]	; (10002e6c <_etoa+0x3e4>)
10002c0a:	f001 f8af 	bl	10003d6c <__wrap___aeabi_dadd>
10002c0e:	0002      	movs	r2, r0
10002c10:	000b      	movs	r3, r1
10002c12:	980a      	ldr	r0, [sp, #40]	; 0x28
10002c14:	990b      	ldr	r1, [sp, #44]	; 0x2c
10002c16:	f001 f8ae 	bl	10003d76 <__wrap___aeabi_ddiv>
10002c1a:	2200      	movs	r2, #0
10002c1c:	4b94      	ldr	r3, [pc, #592]	; (10002e70 <_etoa+0x3e8>)
10002c1e:	f001 f8a5 	bl	10003d6c <__wrap___aeabi_dadd>
10002c22:	0002      	movs	r2, r0
10002c24:	000b      	movs	r3, r1
10002c26:	980a      	ldr	r0, [sp, #40]	; 0x28
10002c28:	990b      	ldr	r1, [sp, #44]	; 0x2c
10002c2a:	f001 f8a4 	bl	10003d76 <__wrap___aeabi_ddiv>
10002c2e:	0002      	movs	r2, r0
10002c30:	000b      	movs	r3, r1
10002c32:	0020      	movs	r0, r4
10002c34:	0029      	movs	r1, r5
10002c36:	f001 f899 	bl	10003d6c <__wrap___aeabi_dadd>
10002c3a:	0002      	movs	r2, r0
10002c3c:	000b      	movs	r3, r1
10002c3e:	980e      	ldr	r0, [sp, #56]	; 0x38
10002c40:	990f      	ldr	r1, [sp, #60]	; 0x3c
10002c42:	f001 f898 	bl	10003d76 <__wrap___aeabi_ddiv>
10002c46:	2200      	movs	r2, #0
10002c48:	4b77      	ldr	r3, [pc, #476]	; (10002e28 <_etoa+0x3a0>)
10002c4a:	f001 f88f 	bl	10003d6c <__wrap___aeabi_dadd>
10002c4e:	0032      	movs	r2, r6
10002c50:	003b      	movs	r3, r7
10002c52:	f001 f8aa 	bl	10003daa <__wrap___aeabi_dmul>
10002c56:	0006      	movs	r6, r0
10002c58:	000f      	movs	r7, r1
10002c5a:	0004      	movs	r4, r0
10002c5c:	000d      	movs	r5, r1
10002c5e:	9a06      	ldr	r2, [sp, #24]
10002c60:	9b07      	ldr	r3, [sp, #28]
10002c62:	f001 f8f7 	bl	10003e54 <__wrap___aeabi_dcmpgt>
10002c66:	2800      	cmp	r0, #0
10002c68:	d030      	beq.n	10002ccc <_etoa+0x244>
10002c6a:	2301      	movs	r3, #1
10002c6c:	425b      	negs	r3, r3
10002c6e:	469c      	mov	ip, r3
10002c70:	44e1      	add	r9, ip
10002c72:	2200      	movs	r2, #0
10002c74:	4b7d      	ldr	r3, [pc, #500]	; (10002e6c <_etoa+0x3e4>)
10002c76:	0030      	movs	r0, r6
10002c78:	0039      	movs	r1, r7
10002c7a:	f001 f87c 	bl	10003d76 <__wrap___aeabi_ddiv>
10002c7e:	0004      	movs	r4, r0
10002c80:	000d      	movs	r5, r1
10002c82:	e023      	b.n	10002ccc <_etoa+0x244>
10002c84:	9b1e      	ldr	r3, [sp, #120]	; 0x78
10002c86:	9304      	str	r3, [sp, #16]
10002c88:	9b1d      	ldr	r3, [sp, #116]	; 0x74
10002c8a:	9303      	str	r3, [sp, #12]
10002c8c:	9b1c      	ldr	r3, [sp, #112]	; 0x70
10002c8e:	9302      	str	r3, [sp, #8]
10002c90:	9a08      	ldr	r2, [sp, #32]
10002c92:	9b09      	ldr	r3, [sp, #36]	; 0x24
10002c94:	9200      	str	r2, [sp, #0]
10002c96:	9301      	str	r3, [sp, #4]
10002c98:	4643      	mov	r3, r8
10002c9a:	9a0c      	ldr	r2, [sp, #48]	; 0x30
10002c9c:	4651      	mov	r1, sl
10002c9e:	4658      	mov	r0, fp
10002ca0:	f000 f8fc 	bl	10002e9c <_ftoa>
10002ca4:	b011      	add	sp, #68	; 0x44
10002ca6:	bcf0      	pop	{r4, r5, r6, r7}
10002ca8:	46bb      	mov	fp, r7
10002caa:	46b2      	mov	sl, r6
10002cac:	46a9      	mov	r9, r5
10002cae:	46a0      	mov	r8, r4
10002cb0:	bdf0      	pop	{r4, r5, r6, r7, pc}
10002cb2:	2300      	movs	r3, #0
10002cb4:	2400      	movs	r4, #0
10002cb6:	9306      	str	r3, [sp, #24]
10002cb8:	9407      	str	r4, [sp, #28]
10002cba:	9606      	str	r6, [sp, #24]
10002cbc:	2380      	movs	r3, #128	; 0x80
10002cbe:	061b      	lsls	r3, r3, #24
10002cc0:	469c      	mov	ip, r3
10002cc2:	4465      	add	r5, ip
10002cc4:	9507      	str	r5, [sp, #28]
10002cc6:	e71a      	b.n	10002afe <_etoa+0x76>
10002cc8:	2300      	movs	r3, #0
10002cca:	4699      	mov	r9, r3
10002ccc:	464b      	mov	r3, r9
10002cce:	3363      	adds	r3, #99	; 0x63
10002cd0:	2bc6      	cmp	r3, #198	; 0xc6
10002cd2:	d81e      	bhi.n	10002d12 <_etoa+0x28a>
10002cd4:	2604      	movs	r6, #4
10002cd6:	9b1e      	ldr	r3, [sp, #120]	; 0x78
10002cd8:	051b      	lsls	r3, r3, #20
10002cda:	d526      	bpl.n	10002d2a <_etoa+0x2a2>
10002cdc:	002b      	movs	r3, r5
10002cde:	4323      	orrs	r3, r4
10002ce0:	d00f      	beq.n	10002d02 <_etoa+0x27a>
10002ce2:	4a64      	ldr	r2, [pc, #400]	; (10002e74 <_etoa+0x3ec>)
10002ce4:	4b64      	ldr	r3, [pc, #400]	; (10002e78 <_etoa+0x3f0>)
10002ce6:	9806      	ldr	r0, [sp, #24]
10002ce8:	9907      	ldr	r1, [sp, #28]
10002cea:	f001 f8ab 	bl	10003e44 <__wrap___aeabi_dcmpge>
10002cee:	2800      	cmp	r0, #0
10002cf0:	d079      	beq.n	10002de6 <_etoa+0x35e>
10002cf2:	2200      	movs	r2, #0
10002cf4:	4b61      	ldr	r3, [pc, #388]	; (10002e7c <_etoa+0x3f4>)
10002cf6:	9806      	ldr	r0, [sp, #24]
10002cf8:	9907      	ldr	r1, [sp, #28]
10002cfa:	f001 f895 	bl	10003e28 <__wrap___aeabi_dcmplt>
10002cfe:	2800      	cmp	r0, #0
10002d00:	d071      	beq.n	10002de6 <_etoa+0x35e>
10002d02:	9b1c      	ldr	r3, [sp, #112]	; 0x70
10002d04:	454b      	cmp	r3, r9
10002d06:	dd06      	ble.n	10002d16 <_etoa+0x28e>
10002d08:	464a      	mov	r2, r9
10002d0a:	1a98      	subs	r0, r3, r2
10002d0c:	1e43      	subs	r3, r0, #1
10002d0e:	931c      	str	r3, [sp, #112]	; 0x70
10002d10:	e003      	b.n	10002d1a <_etoa+0x292>
10002d12:	2605      	movs	r6, #5
10002d14:	e7df      	b.n	10002cd6 <_etoa+0x24e>
10002d16:	2300      	movs	r3, #0
10002d18:	931c      	str	r3, [sp, #112]	; 0x70
10002d1a:	2380      	movs	r3, #128	; 0x80
10002d1c:	00db      	lsls	r3, r3, #3
10002d1e:	9a1e      	ldr	r2, [sp, #120]	; 0x78
10002d20:	431a      	orrs	r2, r3
10002d22:	921e      	str	r2, [sp, #120]	; 0x78
10002d24:	2600      	movs	r6, #0
10002d26:	2300      	movs	r3, #0
10002d28:	4699      	mov	r9, r3
10002d2a:	9b1d      	ldr	r3, [sp, #116]	; 0x74
10002d2c:	429e      	cmp	r6, r3
10002d2e:	d264      	bcs.n	10002dfa <_etoa+0x372>
10002d30:	1b9f      	subs	r7, r3, r6
10002d32:	2302      	movs	r3, #2
10002d34:	9a1e      	ldr	r2, [sp, #120]	; 0x78
10002d36:	401a      	ands	r2, r3
10002d38:	920a      	str	r2, [sp, #40]	; 0x28
10002d3a:	9a1e      	ldr	r2, [sp, #120]	; 0x78
10002d3c:	4213      	tst	r3, r2
10002d3e:	d002      	beq.n	10002d46 <_etoa+0x2be>
10002d40:	2e00      	cmp	r6, #0
10002d42:	d000      	beq.n	10002d46 <_etoa+0x2be>
10002d44:	2700      	movs	r7, #0
10002d46:	464b      	mov	r3, r9
10002d48:	2b00      	cmp	r3, #0
10002d4a:	d007      	beq.n	10002d5c <_etoa+0x2d4>
10002d4c:	0022      	movs	r2, r4
10002d4e:	002b      	movs	r3, r5
10002d50:	9806      	ldr	r0, [sp, #24]
10002d52:	9907      	ldr	r1, [sp, #28]
10002d54:	f001 f80f 	bl	10003d76 <__wrap___aeabi_ddiv>
10002d58:	9006      	str	r0, [sp, #24]
10002d5a:	9107      	str	r1, [sp, #28]
10002d5c:	2200      	movs	r2, #0
10002d5e:	2300      	movs	r3, #0
10002d60:	9808      	ldr	r0, [sp, #32]
10002d62:	9909      	ldr	r1, [sp, #36]	; 0x24
10002d64:	f001 f860 	bl	10003e28 <__wrap___aeabi_dcmplt>
10002d68:	2800      	cmp	r0, #0
10002d6a:	d148      	bne.n	10002dfe <_etoa+0x376>
10002d6c:	4b44      	ldr	r3, [pc, #272]	; (10002e80 <_etoa+0x3f8>)
10002d6e:	9a1e      	ldr	r2, [sp, #120]	; 0x78
10002d70:	4013      	ands	r3, r2
10002d72:	9304      	str	r3, [sp, #16]
10002d74:	9703      	str	r7, [sp, #12]
10002d76:	9b1c      	ldr	r3, [sp, #112]	; 0x70
10002d78:	9302      	str	r3, [sp, #8]
10002d7a:	9b06      	ldr	r3, [sp, #24]
10002d7c:	9c07      	ldr	r4, [sp, #28]
10002d7e:	9300      	str	r3, [sp, #0]
10002d80:	9401      	str	r4, [sp, #4]
10002d82:	4643      	mov	r3, r8
10002d84:	9a0c      	ldr	r2, [sp, #48]	; 0x30
10002d86:	4651      	mov	r1, sl
10002d88:	4658      	mov	r0, fp
10002d8a:	f000 f887 	bl	10002e9c <_ftoa>
10002d8e:	2e00      	cmp	r6, #0
10002d90:	d100      	bne.n	10002d94 <_etoa+0x30c>
10002d92:	e787      	b.n	10002ca4 <_etoa+0x21c>
10002d94:	9b1e      	ldr	r3, [sp, #120]	; 0x78
10002d96:	069b      	lsls	r3, r3, #26
10002d98:	d53d      	bpl.n	10002e16 <_etoa+0x38e>
10002d9a:	2545      	movs	r5, #69	; 0x45
10002d9c:	1c44      	adds	r4, r0, #1
10002d9e:	4643      	mov	r3, r8
10002da0:	0002      	movs	r2, r0
10002da2:	4651      	mov	r1, sl
10002da4:	0028      	movs	r0, r5
10002da6:	47d8      	blx	fp
10002da8:	464b      	mov	r3, r9
10002daa:	17da      	asrs	r2, r3, #31
10002dac:	189b      	adds	r3, r3, r2
10002dae:	4053      	eors	r3, r2
10002db0:	2205      	movs	r2, #5
10002db2:	9205      	str	r2, [sp, #20]
10002db4:	3e01      	subs	r6, #1
10002db6:	9604      	str	r6, [sp, #16]
10002db8:	2200      	movs	r2, #0
10002dba:	9203      	str	r2, [sp, #12]
10002dbc:	320a      	adds	r2, #10
10002dbe:	9202      	str	r2, [sp, #8]
10002dc0:	464a      	mov	r2, r9
10002dc2:	0fd0      	lsrs	r0, r2, #31
10002dc4:	9001      	str	r0, [sp, #4]
10002dc6:	9300      	str	r3, [sp, #0]
10002dc8:	4643      	mov	r3, r8
10002dca:	0022      	movs	r2, r4
10002dcc:	4651      	mov	r1, sl
10002dce:	4658      	mov	r0, fp
10002dd0:	f7ff fd8a 	bl	100028e8 <_ntoa_long>
10002dd4:	9b0a      	ldr	r3, [sp, #40]	; 0x28
10002dd6:	2b00      	cmp	r3, #0
10002dd8:	d100      	bne.n	10002ddc <_etoa+0x354>
10002dda:	e763      	b.n	10002ca4 <_etoa+0x21c>
10002ddc:	0002      	movs	r2, r0
10002dde:	465f      	mov	r7, fp
10002de0:	9e0c      	ldr	r6, [sp, #48]	; 0x30
10002de2:	9d1d      	ldr	r5, [sp, #116]	; 0x74
10002de4:	e054      	b.n	10002e90 <_etoa+0x408>
10002de6:	9b1c      	ldr	r3, [sp, #112]	; 0x70
10002de8:	2b00      	cmp	r3, #0
10002dea:	d09e      	beq.n	10002d2a <_etoa+0x2a2>
10002dec:	9b0d      	ldr	r3, [sp, #52]	; 0x34
10002dee:	2b00      	cmp	r3, #0
10002df0:	d09b      	beq.n	10002d2a <_etoa+0x2a2>
10002df2:	9b1c      	ldr	r3, [sp, #112]	; 0x70
10002df4:	3b01      	subs	r3, #1
10002df6:	931c      	str	r3, [sp, #112]	; 0x70
10002df8:	e797      	b.n	10002d2a <_etoa+0x2a2>
10002dfa:	2700      	movs	r7, #0
10002dfc:	e799      	b.n	10002d32 <_etoa+0x2aa>
10002dfe:	9c06      	ldr	r4, [sp, #24]
10002e00:	9d07      	ldr	r5, [sp, #28]
10002e02:	0022      	movs	r2, r4
10002e04:	0029      	movs	r1, r5
10002e06:	2080      	movs	r0, #128	; 0x80
10002e08:	0600      	lsls	r0, r0, #24
10002e0a:	4684      	mov	ip, r0
10002e0c:	4461      	add	r1, ip
10002e0e:	000b      	movs	r3, r1
10002e10:	9206      	str	r2, [sp, #24]
10002e12:	9307      	str	r3, [sp, #28]
10002e14:	e7aa      	b.n	10002d6c <_etoa+0x2e4>
10002e16:	2565      	movs	r5, #101	; 0x65
10002e18:	e7c0      	b.n	10002d9c <_etoa+0x314>
10002e1a:	46c0      	nop			; (mov r8, r8)
10002e1c:	7fefffff 	.word	0x7fefffff
10002e20:	ffefffff 	.word	0xffefffff
10002e24:	fffffc01 	.word	0xfffffc01
10002e28:	3ff00000 	.word	0x3ff00000
10002e2c:	509f79fb 	.word	0x509f79fb
10002e30:	3fd34413 	.word	0x3fd34413
10002e34:	8b60c8b3 	.word	0x8b60c8b3
10002e38:	3fc68a28 	.word	0x3fc68a28
10002e3c:	3ff80000 	.word	0x3ff80000
10002e40:	636f4361 	.word	0x636f4361
10002e44:	3fd287a7 	.word	0x3fd287a7
10002e48:	0979a371 	.word	0x0979a371
10002e4c:	400a934f 	.word	0x400a934f
10002e50:	3fe00000 	.word	0x3fe00000
10002e54:	bbb55516 	.word	0xbbb55516
10002e58:	40026bb1 	.word	0x40026bb1
10002e5c:	fefa39ef 	.word	0xfefa39ef
10002e60:	3fe62e42 	.word	0x3fe62e42
10002e64:	000003ff 	.word	0x000003ff
10002e68:	402c0000 	.word	0x402c0000
10002e6c:	40240000 	.word	0x40240000
10002e70:	40180000 	.word	0x40180000
10002e74:	eb1c432d 	.word	0xeb1c432d
10002e78:	3f1a36e2 	.word	0x3f1a36e2
10002e7c:	412e8480 	.word	0x412e8480
10002e80:	fffff7ff 	.word	0xfffff7ff
10002e84:	1c54      	adds	r4, r2, #1
10002e86:	4643      	mov	r3, r8
10002e88:	4651      	mov	r1, sl
10002e8a:	2020      	movs	r0, #32
10002e8c:	47b8      	blx	r7
10002e8e:	0022      	movs	r2, r4
10002e90:	1b93      	subs	r3, r2, r6
10002e92:	42ab      	cmp	r3, r5
10002e94:	d3f6      	bcc.n	10002e84 <_etoa+0x3fc>
10002e96:	0010      	movs	r0, r2
10002e98:	e704      	b.n	10002ca4 <_etoa+0x21c>
10002e9a:	46c0      	nop			; (mov r8, r8)

10002e9c <_ftoa>:
10002e9c:	b5f0      	push	{r4, r5, r6, r7, lr}
10002e9e:	46de      	mov	lr, fp
10002ea0:	4657      	mov	r7, sl
10002ea2:	464e      	mov	r6, r9
10002ea4:	4645      	mov	r5, r8
10002ea6:	b5e0      	push	{r5, r6, r7, lr}
10002ea8:	b095      	sub	sp, #84	; 0x54
10002eaa:	9006      	str	r0, [sp, #24]
10002eac:	9107      	str	r1, [sp, #28]
10002eae:	4693      	mov	fp, r2
10002eb0:	4699      	mov	r9, r3
10002eb2:	9f20      	ldr	r7, [sp, #128]	; 0x80
10002eb4:	9a1e      	ldr	r2, [sp, #120]	; 0x78
10002eb6:	9b1f      	ldr	r3, [sp, #124]	; 0x7c
10002eb8:	0010      	movs	r0, r2
10002eba:	0019      	movs	r1, r3
10002ebc:	f000 ffcf 	bl	10003e5e <__wrap___aeabi_dcmpun>
10002ec0:	2800      	cmp	r0, #0
10002ec2:	d131      	bne.n	10002f28 <_ftoa+0x8c>
10002ec4:	2201      	movs	r2, #1
10002ec6:	4252      	negs	r2, r2
10002ec8:	4bbf      	ldr	r3, [pc, #764]	; (100031c8 <_ftoa+0x32c>)
10002eca:	981e      	ldr	r0, [sp, #120]	; 0x78
10002ecc:	991f      	ldr	r1, [sp, #124]	; 0x7c
10002ece:	f000 ffab 	bl	10003e28 <__wrap___aeabi_dcmplt>
10002ed2:	2800      	cmp	r0, #0
10002ed4:	d137      	bne.n	10002f46 <_ftoa+0xaa>
10002ed6:	2201      	movs	r2, #1
10002ed8:	4252      	negs	r2, r2
10002eda:	4bbc      	ldr	r3, [pc, #752]	; (100031cc <_ftoa+0x330>)
10002edc:	981e      	ldr	r0, [sp, #120]	; 0x78
10002ede:	991f      	ldr	r1, [sp, #124]	; 0x7c
10002ee0:	f000 ffb8 	bl	10003e54 <__wrap___aeabi_dcmpgt>
10002ee4:	2800      	cmp	r0, #0
10002ee6:	d13d      	bne.n	10002f64 <_ftoa+0xc8>
10002ee8:	2200      	movs	r2, #0
10002eea:	4bb9      	ldr	r3, [pc, #740]	; (100031d0 <_ftoa+0x334>)
10002eec:	981e      	ldr	r0, [sp, #120]	; 0x78
10002eee:	991f      	ldr	r1, [sp, #124]	; 0x7c
10002ef0:	f000 ffb0 	bl	10003e54 <__wrap___aeabi_dcmpgt>
10002ef4:	2800      	cmp	r0, #0
10002ef6:	d150      	bne.n	10002f9a <_ftoa+0xfe>
10002ef8:	2200      	movs	r2, #0
10002efa:	4bb6      	ldr	r3, [pc, #728]	; (100031d4 <_ftoa+0x338>)
10002efc:	981e      	ldr	r0, [sp, #120]	; 0x78
10002efe:	991f      	ldr	r1, [sp, #124]	; 0x7c
10002f00:	f000 ff92 	bl	10003e28 <__wrap___aeabi_dcmplt>
10002f04:	2800      	cmp	r0, #0
10002f06:	d148      	bne.n	10002f9a <_ftoa+0xfe>
10002f08:	2200      	movs	r2, #0
10002f0a:	2300      	movs	r3, #0
10002f0c:	981e      	ldr	r0, [sp, #120]	; 0x78
10002f0e:	991f      	ldr	r1, [sp, #124]	; 0x7c
10002f10:	f000 ff8a 	bl	10003e28 <__wrap___aeabi_dcmplt>
10002f14:	2800      	cmp	r0, #0
10002f16:	d150      	bne.n	10002fba <_ftoa+0x11e>
10002f18:	2300      	movs	r3, #0
10002f1a:	4698      	mov	r8, r3
10002f1c:	9b22      	ldr	r3, [sp, #136]	; 0x88
10002f1e:	055b      	lsls	r3, r3, #21
10002f20:	d400      	bmi.n	10002f24 <_ftoa+0x88>
10002f22:	e0b6      	b.n	10003092 <_ftoa+0x1f6>
10002f24:	2400      	movs	r4, #0
10002f26:	e058      	b.n	10002fda <_ftoa+0x13e>
10002f28:	9b22      	ldr	r3, [sp, #136]	; 0x88
10002f2a:	9303      	str	r3, [sp, #12]
10002f2c:	9b21      	ldr	r3, [sp, #132]	; 0x84
10002f2e:	9302      	str	r3, [sp, #8]
10002f30:	2303      	movs	r3, #3
10002f32:	9301      	str	r3, [sp, #4]
10002f34:	4ba8      	ldr	r3, [pc, #672]	; (100031d8 <_ftoa+0x33c>)
10002f36:	9300      	str	r3, [sp, #0]
10002f38:	464b      	mov	r3, r9
10002f3a:	465a      	mov	r2, fp
10002f3c:	9907      	ldr	r1, [sp, #28]
10002f3e:	9806      	ldr	r0, [sp, #24]
10002f40:	f7ff fbf2 	bl	10002728 <_out_rev>
10002f44:	e10e      	b.n	10003164 <_ftoa+0x2c8>
10002f46:	9b22      	ldr	r3, [sp, #136]	; 0x88
10002f48:	9303      	str	r3, [sp, #12]
10002f4a:	9b21      	ldr	r3, [sp, #132]	; 0x84
10002f4c:	9302      	str	r3, [sp, #8]
10002f4e:	2304      	movs	r3, #4
10002f50:	9301      	str	r3, [sp, #4]
10002f52:	4ba2      	ldr	r3, [pc, #648]	; (100031dc <_ftoa+0x340>)
10002f54:	9300      	str	r3, [sp, #0]
10002f56:	464b      	mov	r3, r9
10002f58:	465a      	mov	r2, fp
10002f5a:	9907      	ldr	r1, [sp, #28]
10002f5c:	9806      	ldr	r0, [sp, #24]
10002f5e:	f7ff fbe3 	bl	10002728 <_out_rev>
10002f62:	e0ff      	b.n	10003164 <_ftoa+0x2c8>
10002f64:	2304      	movs	r3, #4
10002f66:	9a22      	ldr	r2, [sp, #136]	; 0x88
10002f68:	401a      	ands	r2, r3
10002f6a:	9922      	ldr	r1, [sp, #136]	; 0x88
10002f6c:	420b      	tst	r3, r1
10002f6e:	d010      	beq.n	10002f92 <_ftoa+0xf6>
10002f70:	4b9b      	ldr	r3, [pc, #620]	; (100031e0 <_ftoa+0x344>)
10002f72:	2a00      	cmp	r2, #0
10002f74:	d00f      	beq.n	10002f96 <_ftoa+0xfa>
10002f76:	2204      	movs	r2, #4
10002f78:	9922      	ldr	r1, [sp, #136]	; 0x88
10002f7a:	9103      	str	r1, [sp, #12]
10002f7c:	9921      	ldr	r1, [sp, #132]	; 0x84
10002f7e:	9102      	str	r1, [sp, #8]
10002f80:	9201      	str	r2, [sp, #4]
10002f82:	9300      	str	r3, [sp, #0]
10002f84:	464b      	mov	r3, r9
10002f86:	465a      	mov	r2, fp
10002f88:	9907      	ldr	r1, [sp, #28]
10002f8a:	9806      	ldr	r0, [sp, #24]
10002f8c:	f7ff fbcc 	bl	10002728 <_out_rev>
10002f90:	e0e8      	b.n	10003164 <_ftoa+0x2c8>
10002f92:	4b94      	ldr	r3, [pc, #592]	; (100031e4 <_ftoa+0x348>)
10002f94:	e7ed      	b.n	10002f72 <_ftoa+0xd6>
10002f96:	2203      	movs	r2, #3
10002f98:	e7ee      	b.n	10002f78 <_ftoa+0xdc>
10002f9a:	9b22      	ldr	r3, [sp, #136]	; 0x88
10002f9c:	9304      	str	r3, [sp, #16]
10002f9e:	9b21      	ldr	r3, [sp, #132]	; 0x84
10002fa0:	9303      	str	r3, [sp, #12]
10002fa2:	9702      	str	r7, [sp, #8]
10002fa4:	9b1e      	ldr	r3, [sp, #120]	; 0x78
10002fa6:	9c1f      	ldr	r4, [sp, #124]	; 0x7c
10002fa8:	9300      	str	r3, [sp, #0]
10002faa:	9401      	str	r4, [sp, #4]
10002fac:	464b      	mov	r3, r9
10002fae:	465a      	mov	r2, fp
10002fb0:	9907      	ldr	r1, [sp, #28]
10002fb2:	9806      	ldr	r0, [sp, #24]
10002fb4:	f7ff fd68 	bl	10002a88 <_etoa>
10002fb8:	e0d4      	b.n	10003164 <_ftoa+0x2c8>
10002fba:	9a1e      	ldr	r2, [sp, #120]	; 0x78
10002fbc:	9b1f      	ldr	r3, [sp, #124]	; 0x7c
10002fbe:	2000      	movs	r0, #0
10002fc0:	2100      	movs	r1, #0
10002fc2:	f000 fece 	bl	10003d62 <__wrap___aeabi_dsub>
10002fc6:	901e      	str	r0, [sp, #120]	; 0x78
10002fc8:	911f      	str	r1, [sp, #124]	; 0x7c
10002fca:	2301      	movs	r3, #1
10002fcc:	4698      	mov	r8, r3
10002fce:	e7a5      	b.n	10002f1c <_ftoa+0x80>
10002fd0:	ab0c      	add	r3, sp, #48	; 0x30
10002fd2:	2230      	movs	r2, #48	; 0x30
10002fd4:	551a      	strb	r2, [r3, r4]
10002fd6:	3f01      	subs	r7, #1
10002fd8:	3401      	adds	r4, #1
10002fda:	2c1f      	cmp	r4, #31
10002fdc:	d801      	bhi.n	10002fe2 <_ftoa+0x146>
10002fde:	2f09      	cmp	r7, #9
10002fe0:	d8f6      	bhi.n	10002fd0 <_ftoa+0x134>
10002fe2:	981e      	ldr	r0, [sp, #120]	; 0x78
10002fe4:	991f      	ldr	r1, [sp, #124]	; 0x7c
10002fe6:	f000 ff65 	bl	10003eb4 <__wrap___aeabi_d2iz>
10002fea:	0005      	movs	r5, r0
10002fec:	f000 ff4a 	bl	10003e84 <__wrap___aeabi_i2d>
10002ff0:	0002      	movs	r2, r0
10002ff2:	000b      	movs	r3, r1
10002ff4:	981e      	ldr	r0, [sp, #120]	; 0x78
10002ff6:	991f      	ldr	r1, [sp, #124]	; 0x7c
10002ff8:	f000 feb3 	bl	10003d62 <__wrap___aeabi_dsub>
10002ffc:	00fa      	lsls	r2, r7, #3
10002ffe:	4b7a      	ldr	r3, [pc, #488]	; (100031e8 <_ftoa+0x34c>)
10003000:	189b      	adds	r3, r3, r2
10003002:	681a      	ldr	r2, [r3, #0]
10003004:	685b      	ldr	r3, [r3, #4]
10003006:	920a      	str	r2, [sp, #40]	; 0x28
10003008:	930b      	str	r3, [sp, #44]	; 0x2c
1000300a:	f000 fece 	bl	10003daa <__wrap___aeabi_dmul>
1000300e:	9008      	str	r0, [sp, #32]
10003010:	9109      	str	r1, [sp, #36]	; 0x24
10003012:	f000 ff73 	bl	10003efc <__wrap___aeabi_d2uiz>
10003016:	0006      	movs	r6, r0
10003018:	f000 ff30 	bl	10003e7c <__wrap___aeabi_ui2d>
1000301c:	0002      	movs	r2, r0
1000301e:	000b      	movs	r3, r1
10003020:	9808      	ldr	r0, [sp, #32]
10003022:	9909      	ldr	r1, [sp, #36]	; 0x24
10003024:	f000 fe9d 	bl	10003d62 <__wrap___aeabi_dsub>
10003028:	9008      	str	r0, [sp, #32]
1000302a:	9109      	str	r1, [sp, #36]	; 0x24
1000302c:	2200      	movs	r2, #0
1000302e:	4b6f      	ldr	r3, [pc, #444]	; (100031ec <_ftoa+0x350>)
10003030:	f000 ff10 	bl	10003e54 <__wrap___aeabi_dcmpgt>
10003034:	2800      	cmp	r0, #0
10003036:	d02e      	beq.n	10003096 <_ftoa+0x1fa>
10003038:	3601      	adds	r6, #1
1000303a:	0030      	movs	r0, r6
1000303c:	f000 ff1e 	bl	10003e7c <__wrap___aeabi_ui2d>
10003040:	0002      	movs	r2, r0
10003042:	000b      	movs	r3, r1
10003044:	980a      	ldr	r0, [sp, #40]	; 0x28
10003046:	990b      	ldr	r1, [sp, #44]	; 0x2c
10003048:	f000 fef4 	bl	10003e34 <__wrap___aeabi_dcmple>
1000304c:	2800      	cmp	r0, #0
1000304e:	d001      	beq.n	10003054 <_ftoa+0x1b8>
10003050:	3501      	adds	r5, #1
10003052:	2600      	movs	r6, #0
10003054:	2f00      	cmp	r7, #0
10003056:	d12c      	bne.n	100030b2 <_ftoa+0x216>
10003058:	0028      	movs	r0, r5
1000305a:	f000 ff13 	bl	10003e84 <__wrap___aeabi_i2d>
1000305e:	0002      	movs	r2, r0
10003060:	000b      	movs	r3, r1
10003062:	981e      	ldr	r0, [sp, #120]	; 0x78
10003064:	991f      	ldr	r1, [sp, #124]	; 0x7c
10003066:	f000 fe7c 	bl	10003d62 <__wrap___aeabi_dsub>
1000306a:	0006      	movs	r6, r0
1000306c:	000f      	movs	r7, r1
1000306e:	2200      	movs	r2, #0
10003070:	4b5e      	ldr	r3, [pc, #376]	; (100031ec <_ftoa+0x350>)
10003072:	f000 fed9 	bl	10003e28 <__wrap___aeabi_dcmplt>
10003076:	2800      	cmp	r0, #0
10003078:	d146      	bne.n	10003108 <_ftoa+0x26c>
1000307a:	2200      	movs	r2, #0
1000307c:	4b5b      	ldr	r3, [pc, #364]	; (100031ec <_ftoa+0x350>)
1000307e:	0030      	movs	r0, r6
10003080:	0039      	movs	r1, r7
10003082:	f000 fee7 	bl	10003e54 <__wrap___aeabi_dcmpgt>
10003086:	2800      	cmp	r0, #0
10003088:	d13e      	bne.n	10003108 <_ftoa+0x26c>
1000308a:	07eb      	lsls	r3, r5, #31
1000308c:	d53c      	bpl.n	10003108 <_ftoa+0x26c>
1000308e:	3501      	adds	r5, #1
10003090:	e03a      	b.n	10003108 <_ftoa+0x26c>
10003092:	2706      	movs	r7, #6
10003094:	e746      	b.n	10002f24 <_ftoa+0x88>
10003096:	2200      	movs	r2, #0
10003098:	4b54      	ldr	r3, [pc, #336]	; (100031ec <_ftoa+0x350>)
1000309a:	9808      	ldr	r0, [sp, #32]
1000309c:	9909      	ldr	r1, [sp, #36]	; 0x24
1000309e:	f000 fec3 	bl	10003e28 <__wrap___aeabi_dcmplt>
100030a2:	2800      	cmp	r0, #0
100030a4:	d1d6      	bne.n	10003054 <_ftoa+0x1b8>
100030a6:	2e00      	cmp	r6, #0
100030a8:	d001      	beq.n	100030ae <_ftoa+0x212>
100030aa:	07f3      	lsls	r3, r6, #31
100030ac:	d5d2      	bpl.n	10003054 <_ftoa+0x1b8>
100030ae:	3601      	adds	r6, #1
100030b0:	e7d0      	b.n	10003054 <_ftoa+0x1b8>
100030b2:	46aa      	mov	sl, r5
100030b4:	2c1f      	cmp	r4, #31
100030b6:	d811      	bhi.n	100030dc <_ftoa+0x240>
100030b8:	3f01      	subs	r7, #1
100030ba:	210a      	movs	r1, #10
100030bc:	0030      	movs	r0, r6
100030be:	f000 fc15 	bl	100038ec <__wrap___aeabi_uidiv>
100030c2:	1c65      	adds	r5, r4, #1
100030c4:	3130      	adds	r1, #48	; 0x30
100030c6:	ab0c      	add	r3, sp, #48	; 0x30
100030c8:	5519      	strb	r1, [r3, r4]
100030ca:	210a      	movs	r1, #10
100030cc:	0030      	movs	r0, r6
100030ce:	f000 fc0d 	bl	100038ec <__wrap___aeabi_uidiv>
100030d2:	2e09      	cmp	r6, #9
100030d4:	d90e      	bls.n	100030f4 <_ftoa+0x258>
100030d6:	0006      	movs	r6, r0
100030d8:	002c      	movs	r4, r5
100030da:	e7eb      	b.n	100030b4 <_ftoa+0x218>
100030dc:	4655      	mov	r5, sl
100030de:	2c1f      	cmp	r4, #31
100030e0:	d80c      	bhi.n	100030fc <_ftoa+0x260>
100030e2:	1e7b      	subs	r3, r7, #1
100030e4:	2f00      	cmp	r7, #0
100030e6:	d009      	beq.n	100030fc <_ftoa+0x260>
100030e8:	aa0c      	add	r2, sp, #48	; 0x30
100030ea:	2130      	movs	r1, #48	; 0x30
100030ec:	5511      	strb	r1, [r2, r4]
100030ee:	001f      	movs	r7, r3
100030f0:	3401      	adds	r4, #1
100030f2:	e7f4      	b.n	100030de <_ftoa+0x242>
100030f4:	002b      	movs	r3, r5
100030f6:	4655      	mov	r5, sl
100030f8:	001c      	movs	r4, r3
100030fa:	e7f0      	b.n	100030de <_ftoa+0x242>
100030fc:	2c1f      	cmp	r4, #31
100030fe:	d803      	bhi.n	10003108 <_ftoa+0x26c>
10003100:	ab0c      	add	r3, sp, #48	; 0x30
10003102:	222e      	movs	r2, #46	; 0x2e
10003104:	551a      	strb	r2, [r3, r4]
10003106:	3401      	adds	r4, #1
10003108:	2c1f      	cmp	r4, #31
1000310a:	d810      	bhi.n	1000312e <_ftoa+0x292>
1000310c:	210a      	movs	r1, #10
1000310e:	0028      	movs	r0, r5
10003110:	f000 fbc4 	bl	1000389c <__wrap___aeabi_idiv>
10003114:	1c66      	adds	r6, r4, #1
10003116:	3130      	adds	r1, #48	; 0x30
10003118:	ab0c      	add	r3, sp, #48	; 0x30
1000311a:	5519      	strb	r1, [r3, r4]
1000311c:	210a      	movs	r1, #10
1000311e:	0028      	movs	r0, r5
10003120:	f000 fbbc 	bl	1000389c <__wrap___aeabi_idiv>
10003124:	1e05      	subs	r5, r0, #0
10003126:	d001      	beq.n	1000312c <_ftoa+0x290>
10003128:	0034      	movs	r4, r6
1000312a:	e7ed      	b.n	10003108 <_ftoa+0x26c>
1000312c:	0034      	movs	r4, r6
1000312e:	2303      	movs	r3, #3
10003130:	9a22      	ldr	r2, [sp, #136]	; 0x88
10003132:	4013      	ands	r3, r2
10003134:	2b01      	cmp	r3, #1
10003136:	d01c      	beq.n	10003172 <_ftoa+0x2d6>
10003138:	2c1f      	cmp	r4, #31
1000313a:	d806      	bhi.n	1000314a <_ftoa+0x2ae>
1000313c:	4643      	mov	r3, r8
1000313e:	2b00      	cmp	r3, #0
10003140:	d032      	beq.n	100031a8 <_ftoa+0x30c>
10003142:	ab0c      	add	r3, sp, #48	; 0x30
10003144:	222d      	movs	r2, #45	; 0x2d
10003146:	551a      	strb	r2, [r3, r4]
10003148:	3401      	adds	r4, #1
1000314a:	9b22      	ldr	r3, [sp, #136]	; 0x88
1000314c:	9303      	str	r3, [sp, #12]
1000314e:	9b21      	ldr	r3, [sp, #132]	; 0x84
10003150:	9302      	str	r3, [sp, #8]
10003152:	9401      	str	r4, [sp, #4]
10003154:	ab0c      	add	r3, sp, #48	; 0x30
10003156:	9300      	str	r3, [sp, #0]
10003158:	464b      	mov	r3, r9
1000315a:	465a      	mov	r2, fp
1000315c:	9907      	ldr	r1, [sp, #28]
1000315e:	9806      	ldr	r0, [sp, #24]
10003160:	f7ff fae2 	bl	10002728 <_out_rev>
10003164:	b015      	add	sp, #84	; 0x54
10003166:	bcf0      	pop	{r4, r5, r6, r7}
10003168:	46bb      	mov	fp, r7
1000316a:	46b2      	mov	sl, r6
1000316c:	46a9      	mov	r9, r5
1000316e:	46a0      	mov	r8, r4
10003170:	bdf0      	pop	{r4, r5, r6, r7, pc}
10003172:	9b21      	ldr	r3, [sp, #132]	; 0x84
10003174:	2b00      	cmp	r3, #0
10003176:	d013      	beq.n	100031a0 <_ftoa+0x304>
10003178:	4643      	mov	r3, r8
1000317a:	2b00      	cmp	r3, #0
1000317c:	d102      	bne.n	10003184 <_ftoa+0x2e8>
1000317e:	330c      	adds	r3, #12
10003180:	4213      	tst	r3, r2
10003182:	d00f      	beq.n	100031a4 <_ftoa+0x308>
10003184:	9b21      	ldr	r3, [sp, #132]	; 0x84
10003186:	3b01      	subs	r3, #1
10003188:	9321      	str	r3, [sp, #132]	; 0x84
1000318a:	0019      	movs	r1, r3
1000318c:	e003      	b.n	10003196 <_ftoa+0x2fa>
1000318e:	ab0c      	add	r3, sp, #48	; 0x30
10003190:	2230      	movs	r2, #48	; 0x30
10003192:	551a      	strb	r2, [r3, r4]
10003194:	3401      	adds	r4, #1
10003196:	428c      	cmp	r4, r1
10003198:	d2ce      	bcs.n	10003138 <_ftoa+0x29c>
1000319a:	2c1f      	cmp	r4, #31
1000319c:	d9f7      	bls.n	1000318e <_ftoa+0x2f2>
1000319e:	e7cb      	b.n	10003138 <_ftoa+0x29c>
100031a0:	9921      	ldr	r1, [sp, #132]	; 0x84
100031a2:	e7f8      	b.n	10003196 <_ftoa+0x2fa>
100031a4:	9921      	ldr	r1, [sp, #132]	; 0x84
100031a6:	e7f6      	b.n	10003196 <_ftoa+0x2fa>
100031a8:	9b22      	ldr	r3, [sp, #136]	; 0x88
100031aa:	075b      	lsls	r3, r3, #29
100031ac:	d504      	bpl.n	100031b8 <_ftoa+0x31c>
100031ae:	ab0c      	add	r3, sp, #48	; 0x30
100031b0:	222b      	movs	r2, #43	; 0x2b
100031b2:	551a      	strb	r2, [r3, r4]
100031b4:	3401      	adds	r4, #1
100031b6:	e7c8      	b.n	1000314a <_ftoa+0x2ae>
100031b8:	9b22      	ldr	r3, [sp, #136]	; 0x88
100031ba:	071b      	lsls	r3, r3, #28
100031bc:	d5c5      	bpl.n	1000314a <_ftoa+0x2ae>
100031be:	ab0c      	add	r3, sp, #48	; 0x30
100031c0:	2220      	movs	r2, #32
100031c2:	551a      	strb	r2, [r3, r4]
100031c4:	3401      	adds	r4, #1
100031c6:	e7c0      	b.n	1000314a <_ftoa+0x2ae>
100031c8:	ffefffff 	.word	0xffefffff
100031cc:	7fefffff 	.word	0x7fefffff
100031d0:	41cdcd65 	.word	0x41cdcd65
100031d4:	c1cdcd65 	.word	0xc1cdcd65
100031d8:	10007838 	.word	0x10007838
100031dc:	1000783c 	.word	0x1000783c
100031e0:	10007830 	.word	0x10007830
100031e4:	1000782c 	.word	0x1000782c
100031e8:	10007a28 	.word	0x10007a28
100031ec:	3fe00000 	.word	0x3fe00000

100031f0 <_vsnprintf>:
100031f0:	b5f0      	push	{r4, r5, r6, r7, lr}
100031f2:	46de      	mov	lr, fp
100031f4:	4657      	mov	r7, sl
100031f6:	464e      	mov	r6, r9
100031f8:	4645      	mov	r5, r8
100031fa:	b5e0      	push	{r5, r6, r7, lr}
100031fc:	b093      	sub	sp, #76	; 0x4c
100031fe:	4682      	mov	sl, r0
10003200:	468b      	mov	fp, r1
10003202:	4690      	mov	r8, r2
10003204:	9311      	str	r3, [sp, #68]	; 0x44
10003206:	2900      	cmp	r1, #0
10003208:	d100      	bne.n	1000320c <_vsnprintf+0x1c>
1000320a:	e2eb      	b.n	100037e4 <_vsnprintf+0x5f4>
1000320c:	2700      	movs	r7, #0
1000320e:	4655      	mov	r5, sl
10003210:	9b11      	ldr	r3, [sp, #68]	; 0x44
10003212:	7818      	ldrb	r0, [r3, #0]
10003214:	2800      	cmp	r0, #0
10003216:	d100      	bne.n	1000321a <_vsnprintf+0x2a>
10003218:	e2e7      	b.n	100037ea <_vsnprintf+0x5fa>
1000321a:	2825      	cmp	r0, #37	; 0x25
1000321c:	d009      	beq.n	10003232 <_vsnprintf+0x42>
1000321e:	1c7c      	adds	r4, r7, #1
10003220:	4643      	mov	r3, r8
10003222:	003a      	movs	r2, r7
10003224:	4659      	mov	r1, fp
10003226:	47a8      	blx	r5
10003228:	9b11      	ldr	r3, [sp, #68]	; 0x44
1000322a:	3301      	adds	r3, #1
1000322c:	9311      	str	r3, [sp, #68]	; 0x44
1000322e:	0027      	movs	r7, r4
10003230:	e7ee      	b.n	10003210 <_vsnprintf+0x20>
10003232:	3301      	adds	r3, #1
10003234:	9311      	str	r3, [sp, #68]	; 0x44
10003236:	2400      	movs	r4, #0
10003238:	9a11      	ldr	r2, [sp, #68]	; 0x44
1000323a:	7811      	ldrb	r1, [r2, #0]
1000323c:	000b      	movs	r3, r1
1000323e:	3b20      	subs	r3, #32
10003240:	b2d8      	uxtb	r0, r3
10003242:	2810      	cmp	r0, #16
10003244:	d803      	bhi.n	1000324e <_vsnprintf+0x5e>
10003246:	0083      	lsls	r3, r0, #2
10003248:	48d0      	ldr	r0, [pc, #832]	; (1000358c <_vsnprintf+0x39c>)
1000324a:	58c3      	ldr	r3, [r0, r3]
1000324c:	469f      	mov	pc, r3
1000324e:	000b      	movs	r3, r1
10003250:	3b30      	subs	r3, #48	; 0x30
10003252:	b2db      	uxtb	r3, r3
10003254:	2b09      	cmp	r3, #9
10003256:	d92c      	bls.n	100032b2 <_vsnprintf+0xc2>
10003258:	292a      	cmp	r1, #42	; 0x2a
1000325a:	d02f      	beq.n	100032bc <_vsnprintf+0xcc>
1000325c:	2300      	movs	r3, #0
1000325e:	930a      	str	r3, [sp, #40]	; 0x28
10003260:	9b11      	ldr	r3, [sp, #68]	; 0x44
10003262:	781a      	ldrb	r2, [r3, #0]
10003264:	2a2e      	cmp	r2, #46	; 0x2e
10003266:	d039      	beq.n	100032dc <_vsnprintf+0xec>
10003268:	2300      	movs	r3, #0
1000326a:	469a      	mov	sl, r3
1000326c:	9a11      	ldr	r2, [sp, #68]	; 0x44
1000326e:	7813      	ldrb	r3, [r2, #0]
10003270:	3b68      	subs	r3, #104	; 0x68
10003272:	b2d9      	uxtb	r1, r3
10003274:	2912      	cmp	r1, #18
10003276:	d876      	bhi.n	10003366 <_vsnprintf+0x176>
10003278:	008b      	lsls	r3, r1, #2
1000327a:	49c5      	ldr	r1, [pc, #788]	; (10003590 <_vsnprintf+0x3a0>)
1000327c:	58cb      	ldr	r3, [r1, r3]
1000327e:	469f      	mov	pc, r3
10003280:	2301      	movs	r3, #1
10003282:	431c      	orrs	r4, r3
10003284:	3201      	adds	r2, #1
10003286:	9211      	str	r2, [sp, #68]	; 0x44
10003288:	e7d6      	b.n	10003238 <_vsnprintf+0x48>
1000328a:	2302      	movs	r3, #2
1000328c:	431c      	orrs	r4, r3
1000328e:	3201      	adds	r2, #1
10003290:	9211      	str	r2, [sp, #68]	; 0x44
10003292:	e7d1      	b.n	10003238 <_vsnprintf+0x48>
10003294:	2304      	movs	r3, #4
10003296:	431c      	orrs	r4, r3
10003298:	3201      	adds	r2, #1
1000329a:	9211      	str	r2, [sp, #68]	; 0x44
1000329c:	e7cc      	b.n	10003238 <_vsnprintf+0x48>
1000329e:	2308      	movs	r3, #8
100032a0:	431c      	orrs	r4, r3
100032a2:	3201      	adds	r2, #1
100032a4:	9211      	str	r2, [sp, #68]	; 0x44
100032a6:	e7c7      	b.n	10003238 <_vsnprintf+0x48>
100032a8:	2310      	movs	r3, #16
100032aa:	431c      	orrs	r4, r3
100032ac:	3201      	adds	r2, #1
100032ae:	9211      	str	r2, [sp, #68]	; 0x44
100032b0:	e7c2      	b.n	10003238 <_vsnprintf+0x48>
100032b2:	a811      	add	r0, sp, #68	; 0x44
100032b4:	f7ff fa26 	bl	10002704 <_atoi>
100032b8:	900a      	str	r0, [sp, #40]	; 0x28
100032ba:	e7d1      	b.n	10003260 <_vsnprintf+0x70>
100032bc:	9b1c      	ldr	r3, [sp, #112]	; 0x70
100032be:	1d1a      	adds	r2, r3, #4
100032c0:	921c      	str	r2, [sp, #112]	; 0x70
100032c2:	6818      	ldr	r0, [r3, #0]
100032c4:	2800      	cmp	r0, #0
100032c6:	db04      	blt.n	100032d2 <_vsnprintf+0xe2>
100032c8:	900a      	str	r0, [sp, #40]	; 0x28
100032ca:	9b11      	ldr	r3, [sp, #68]	; 0x44
100032cc:	3301      	adds	r3, #1
100032ce:	9311      	str	r3, [sp, #68]	; 0x44
100032d0:	e7c6      	b.n	10003260 <_vsnprintf+0x70>
100032d2:	2302      	movs	r3, #2
100032d4:	431c      	orrs	r4, r3
100032d6:	4243      	negs	r3, r0
100032d8:	930a      	str	r3, [sp, #40]	; 0x28
100032da:	e7f6      	b.n	100032ca <_vsnprintf+0xda>
100032dc:	2280      	movs	r2, #128	; 0x80
100032de:	00d2      	lsls	r2, r2, #3
100032e0:	4314      	orrs	r4, r2
100032e2:	1c5a      	adds	r2, r3, #1
100032e4:	9211      	str	r2, [sp, #68]	; 0x44
100032e6:	785a      	ldrb	r2, [r3, #1]
100032e8:	0013      	movs	r3, r2
100032ea:	3b30      	subs	r3, #48	; 0x30
100032ec:	b2db      	uxtb	r3, r3
100032ee:	2b09      	cmp	r3, #9
100032f0:	d904      	bls.n	100032fc <_vsnprintf+0x10c>
100032f2:	2a2a      	cmp	r2, #42	; 0x2a
100032f4:	d007      	beq.n	10003306 <_vsnprintf+0x116>
100032f6:	2300      	movs	r3, #0
100032f8:	469a      	mov	sl, r3
100032fa:	e7b7      	b.n	1000326c <_vsnprintf+0x7c>
100032fc:	a811      	add	r0, sp, #68	; 0x44
100032fe:	f7ff fa01 	bl	10002704 <_atoi>
10003302:	4682      	mov	sl, r0
10003304:	e7b2      	b.n	1000326c <_vsnprintf+0x7c>
10003306:	9b1c      	ldr	r3, [sp, #112]	; 0x70
10003308:	1d1a      	adds	r2, r3, #4
1000330a:	921c      	str	r2, [sp, #112]	; 0x70
1000330c:	6818      	ldr	r0, [r3, #0]
1000330e:	2800      	cmp	r0, #0
10003310:	db04      	blt.n	1000331c <_vsnprintf+0x12c>
10003312:	4682      	mov	sl, r0
10003314:	9b11      	ldr	r3, [sp, #68]	; 0x44
10003316:	3301      	adds	r3, #1
10003318:	9311      	str	r3, [sp, #68]	; 0x44
1000331a:	e7a7      	b.n	1000326c <_vsnprintf+0x7c>
1000331c:	2000      	movs	r0, #0
1000331e:	e7f8      	b.n	10003312 <_vsnprintf+0x122>
10003320:	2380      	movs	r3, #128	; 0x80
10003322:	005b      	lsls	r3, r3, #1
10003324:	4323      	orrs	r3, r4
10003326:	1c51      	adds	r1, r2, #1
10003328:	9111      	str	r1, [sp, #68]	; 0x44
1000332a:	7852      	ldrb	r2, [r2, #1]
1000332c:	2a6c      	cmp	r2, #108	; 0x6c
1000332e:	d001      	beq.n	10003334 <_vsnprintf+0x144>
10003330:	001c      	movs	r4, r3
10003332:	e018      	b.n	10003366 <_vsnprintf+0x176>
10003334:	23c0      	movs	r3, #192	; 0xc0
10003336:	009b      	lsls	r3, r3, #2
10003338:	431c      	orrs	r4, r3
1000333a:	3101      	adds	r1, #1
1000333c:	9111      	str	r1, [sp, #68]	; 0x44
1000333e:	e012      	b.n	10003366 <_vsnprintf+0x176>
10003340:	2380      	movs	r3, #128	; 0x80
10003342:	4323      	orrs	r3, r4
10003344:	1c51      	adds	r1, r2, #1
10003346:	9111      	str	r1, [sp, #68]	; 0x44
10003348:	7852      	ldrb	r2, [r2, #1]
1000334a:	2a68      	cmp	r2, #104	; 0x68
1000334c:	d001      	beq.n	10003352 <_vsnprintf+0x162>
1000334e:	001c      	movs	r4, r3
10003350:	e009      	b.n	10003366 <_vsnprintf+0x176>
10003352:	23c0      	movs	r3, #192	; 0xc0
10003354:	431c      	orrs	r4, r3
10003356:	3101      	adds	r1, #1
10003358:	9111      	str	r1, [sp, #68]	; 0x44
1000335a:	e004      	b.n	10003366 <_vsnprintf+0x176>
1000335c:	2380      	movs	r3, #128	; 0x80
1000335e:	005b      	lsls	r3, r3, #1
10003360:	431c      	orrs	r4, r3
10003362:	3201      	adds	r2, #1
10003364:	9211      	str	r2, [sp, #68]	; 0x44
10003366:	9b11      	ldr	r3, [sp, #68]	; 0x44
10003368:	7818      	ldrb	r0, [r3, #0]
1000336a:	0003      	movs	r3, r0
1000336c:	3b25      	subs	r3, #37	; 0x25
1000336e:	b2da      	uxtb	r2, r3
10003370:	2a53      	cmp	r2, #83	; 0x53
10003372:	d900      	bls.n	10003376 <_vsnprintf+0x186>
10003374:	e22c      	b.n	100037d0 <_vsnprintf+0x5e0>
10003376:	0093      	lsls	r3, r2, #2
10003378:	4a86      	ldr	r2, [pc, #536]	; (10003594 <_vsnprintf+0x3a4>)
1000337a:	58d3      	ldr	r3, [r2, r3]
1000337c:	469f      	mov	pc, r3
1000337e:	2380      	movs	r3, #128	; 0x80
10003380:	009b      	lsls	r3, r3, #2
10003382:	431c      	orrs	r4, r3
10003384:	3201      	adds	r2, #1
10003386:	9211      	str	r2, [sp, #68]	; 0x44
10003388:	e7ed      	b.n	10003366 <_vsnprintf+0x176>
1000338a:	2380      	movs	r3, #128	; 0x80
1000338c:	005b      	lsls	r3, r3, #1
1000338e:	431c      	orrs	r4, r3
10003390:	3201      	adds	r2, #1
10003392:	9211      	str	r2, [sp, #68]	; 0x44
10003394:	e7e7      	b.n	10003366 <_vsnprintf+0x176>
10003396:	2878      	cmp	r0, #120	; 0x78
10003398:	d009      	beq.n	100033ae <_vsnprintf+0x1be>
1000339a:	2858      	cmp	r0, #88	; 0x58
1000339c:	d038      	beq.n	10003410 <_vsnprintf+0x220>
1000339e:	286f      	cmp	r0, #111	; 0x6f
100033a0:	d038      	beq.n	10003414 <_vsnprintf+0x224>
100033a2:	2862      	cmp	r0, #98	; 0x62
100033a4:	d038      	beq.n	10003418 <_vsnprintf+0x228>
100033a6:	2310      	movs	r3, #16
100033a8:	439c      	bics	r4, r3
100033aa:	260a      	movs	r6, #10
100033ac:	e000      	b.n	100033b0 <_vsnprintf+0x1c0>
100033ae:	2610      	movs	r6, #16
100033b0:	2858      	cmp	r0, #88	; 0x58
100033b2:	d033      	beq.n	1000341c <_vsnprintf+0x22c>
100033b4:	2869      	cmp	r0, #105	; 0x69
100033b6:	d003      	beq.n	100033c0 <_vsnprintf+0x1d0>
100033b8:	2864      	cmp	r0, #100	; 0x64
100033ba:	d001      	beq.n	100033c0 <_vsnprintf+0x1d0>
100033bc:	220c      	movs	r2, #12
100033be:	4394      	bics	r4, r2
100033c0:	0563      	lsls	r3, r4, #21
100033c2:	d501      	bpl.n	100033c8 <_vsnprintf+0x1d8>
100033c4:	2201      	movs	r2, #1
100033c6:	4394      	bics	r4, r2
100033c8:	2869      	cmp	r0, #105	; 0x69
100033ca:	d02a      	beq.n	10003422 <_vsnprintf+0x232>
100033cc:	2864      	cmp	r0, #100	; 0x64
100033ce:	d028      	beq.n	10003422 <_vsnprintf+0x232>
100033d0:	05a3      	lsls	r3, r4, #22
100033d2:	d500      	bpl.n	100033d6 <_vsnprintf+0x1e6>
100033d4:	e09f      	b.n	10003516 <_vsnprintf+0x326>
100033d6:	05e3      	lsls	r3, r4, #23
100033d8:	d500      	bpl.n	100033dc <_vsnprintf+0x1ec>
100033da:	e0b8      	b.n	1000354e <_vsnprintf+0x35e>
100033dc:	0663      	lsls	r3, r4, #25
100033de:	d400      	bmi.n	100033e2 <_vsnprintf+0x1f2>
100033e0:	e0ca      	b.n	10003578 <_vsnprintf+0x388>
100033e2:	9a1c      	ldr	r2, [sp, #112]	; 0x70
100033e4:	1d11      	adds	r1, r2, #4
100033e6:	911c      	str	r1, [sp, #112]	; 0x70
100033e8:	6811      	ldr	r1, [r2, #0]
100033ea:	22ff      	movs	r2, #255	; 0xff
100033ec:	400a      	ands	r2, r1
100033ee:	9405      	str	r4, [sp, #20]
100033f0:	9b0a      	ldr	r3, [sp, #40]	; 0x28
100033f2:	9304      	str	r3, [sp, #16]
100033f4:	4653      	mov	r3, sl
100033f6:	9303      	str	r3, [sp, #12]
100033f8:	9602      	str	r6, [sp, #8]
100033fa:	2300      	movs	r3, #0
100033fc:	9301      	str	r3, [sp, #4]
100033fe:	9200      	str	r2, [sp, #0]
10003400:	4643      	mov	r3, r8
10003402:	003a      	movs	r2, r7
10003404:	4659      	mov	r1, fp
10003406:	0028      	movs	r0, r5
10003408:	f7ff fa6e 	bl	100028e8 <_ntoa_long>
1000340c:	0007      	movs	r7, r0
1000340e:	e027      	b.n	10003460 <_vsnprintf+0x270>
10003410:	2610      	movs	r6, #16
10003412:	e7cd      	b.n	100033b0 <_vsnprintf+0x1c0>
10003414:	2608      	movs	r6, #8
10003416:	e7cb      	b.n	100033b0 <_vsnprintf+0x1c0>
10003418:	2602      	movs	r6, #2
1000341a:	e7c9      	b.n	100033b0 <_vsnprintf+0x1c0>
1000341c:	2220      	movs	r2, #32
1000341e:	4314      	orrs	r4, r2
10003420:	e7c8      	b.n	100033b4 <_vsnprintf+0x1c4>
10003422:	05a3      	lsls	r3, r4, #22
10003424:	d420      	bmi.n	10003468 <_vsnprintf+0x278>
10003426:	05e3      	lsls	r3, r4, #23
10003428:	d450      	bmi.n	100034cc <_vsnprintf+0x2dc>
1000342a:	0663      	lsls	r3, r4, #25
1000342c:	d566      	bpl.n	100034fc <_vsnprintf+0x30c>
1000342e:	9a1c      	ldr	r2, [sp, #112]	; 0x70
10003430:	1d11      	adds	r1, r2, #4
10003432:	911c      	str	r1, [sp, #112]	; 0x70
10003434:	6811      	ldr	r1, [r2, #0]
10003436:	22ff      	movs	r2, #255	; 0xff
10003438:	400a      	ands	r2, r1
1000343a:	17d3      	asrs	r3, r2, #31
1000343c:	18d1      	adds	r1, r2, r3
1000343e:	4059      	eors	r1, r3
10003440:	9405      	str	r4, [sp, #20]
10003442:	9b0a      	ldr	r3, [sp, #40]	; 0x28
10003444:	9304      	str	r3, [sp, #16]
10003446:	4653      	mov	r3, sl
10003448:	9303      	str	r3, [sp, #12]
1000344a:	9602      	str	r6, [sp, #8]
1000344c:	0fd2      	lsrs	r2, r2, #31
1000344e:	9201      	str	r2, [sp, #4]
10003450:	9100      	str	r1, [sp, #0]
10003452:	4643      	mov	r3, r8
10003454:	003a      	movs	r2, r7
10003456:	4659      	mov	r1, fp
10003458:	0028      	movs	r0, r5
1000345a:	f7ff fa45 	bl	100028e8 <_ntoa_long>
1000345e:	0007      	movs	r7, r0
10003460:	9b11      	ldr	r3, [sp, #68]	; 0x44
10003462:	3301      	adds	r3, #1
10003464:	9311      	str	r3, [sp, #68]	; 0x44
10003466:	e6d3      	b.n	10003210 <_vsnprintf+0x20>
10003468:	9b1c      	ldr	r3, [sp, #112]	; 0x70
1000346a:	1dda      	adds	r2, r3, #7
1000346c:	2107      	movs	r1, #7
1000346e:	438a      	bics	r2, r1
10003470:	0011      	movs	r1, r2
10003472:	3108      	adds	r1, #8
10003474:	911c      	str	r1, [sp, #112]	; 0x70
10003476:	6811      	ldr	r1, [r2, #0]
10003478:	6853      	ldr	r3, [r2, #4]
1000347a:	469c      	mov	ip, r3
1000347c:	17db      	asrs	r3, r3, #31
1000347e:	930c      	str	r3, [sp, #48]	; 0x30
10003480:	930d      	str	r3, [sp, #52]	; 0x34
10003482:	9a0c      	ldr	r2, [sp, #48]	; 0x30
10003484:	9b0d      	ldr	r3, [sp, #52]	; 0x34
10003486:	0010      	movs	r0, r2
10003488:	4048      	eors	r0, r1
1000348a:	900e      	str	r0, [sp, #56]	; 0x38
1000348c:	4662      	mov	r2, ip
1000348e:	4053      	eors	r3, r2
10003490:	930f      	str	r3, [sp, #60]	; 0x3c
10003492:	980e      	ldr	r0, [sp, #56]	; 0x38
10003494:	990f      	ldr	r1, [sp, #60]	; 0x3c
10003496:	9a0c      	ldr	r2, [sp, #48]	; 0x30
10003498:	9b0d      	ldr	r3, [sp, #52]	; 0x34
1000349a:	1a80      	subs	r0, r0, r2
1000349c:	4199      	sbcs	r1, r3
1000349e:	900e      	str	r0, [sp, #56]	; 0x38
100034a0:	910f      	str	r1, [sp, #60]	; 0x3c
100034a2:	9408      	str	r4, [sp, #32]
100034a4:	9b0a      	ldr	r3, [sp, #40]	; 0x28
100034a6:	9307      	str	r3, [sp, #28]
100034a8:	4653      	mov	r3, sl
100034aa:	9306      	str	r3, [sp, #24]
100034ac:	9604      	str	r6, [sp, #16]
100034ae:	2300      	movs	r3, #0
100034b0:	9305      	str	r3, [sp, #20]
100034b2:	4663      	mov	r3, ip
100034b4:	0fda      	lsrs	r2, r3, #31
100034b6:	9202      	str	r2, [sp, #8]
100034b8:	9000      	str	r0, [sp, #0]
100034ba:	9101      	str	r1, [sp, #4]
100034bc:	4643      	mov	r3, r8
100034be:	003a      	movs	r2, r7
100034c0:	4659      	mov	r1, fp
100034c2:	0028      	movs	r0, r5
100034c4:	f7ff fa6e 	bl	100029a4 <_ntoa_long_long>
100034c8:	0007      	movs	r7, r0
100034ca:	e7c9      	b.n	10003460 <_vsnprintf+0x270>
100034cc:	9a1c      	ldr	r2, [sp, #112]	; 0x70
100034ce:	1d11      	adds	r1, r2, #4
100034d0:	911c      	str	r1, [sp, #112]	; 0x70
100034d2:	6812      	ldr	r2, [r2, #0]
100034d4:	17d3      	asrs	r3, r2, #31
100034d6:	18d1      	adds	r1, r2, r3
100034d8:	4059      	eors	r1, r3
100034da:	9405      	str	r4, [sp, #20]
100034dc:	9b0a      	ldr	r3, [sp, #40]	; 0x28
100034de:	9304      	str	r3, [sp, #16]
100034e0:	4653      	mov	r3, sl
100034e2:	9303      	str	r3, [sp, #12]
100034e4:	9602      	str	r6, [sp, #8]
100034e6:	0fd2      	lsrs	r2, r2, #31
100034e8:	9201      	str	r2, [sp, #4]
100034ea:	9100      	str	r1, [sp, #0]
100034ec:	4643      	mov	r3, r8
100034ee:	003a      	movs	r2, r7
100034f0:	4659      	mov	r1, fp
100034f2:	0028      	movs	r0, r5
100034f4:	f7ff f9f8 	bl	100028e8 <_ntoa_long>
100034f8:	0007      	movs	r7, r0
100034fa:	e7b1      	b.n	10003460 <_vsnprintf+0x270>
100034fc:	0623      	lsls	r3, r4, #24
100034fe:	d505      	bpl.n	1000350c <_vsnprintf+0x31c>
10003500:	9a1c      	ldr	r2, [sp, #112]	; 0x70
10003502:	1d11      	adds	r1, r2, #4
10003504:	911c      	str	r1, [sp, #112]	; 0x70
10003506:	2300      	movs	r3, #0
10003508:	5ed2      	ldrsh	r2, [r2, r3]
1000350a:	e796      	b.n	1000343a <_vsnprintf+0x24a>
1000350c:	9a1c      	ldr	r2, [sp, #112]	; 0x70
1000350e:	1d11      	adds	r1, r2, #4
10003510:	911c      	str	r1, [sp, #112]	; 0x70
10003512:	6812      	ldr	r2, [r2, #0]
10003514:	e791      	b.n	1000343a <_vsnprintf+0x24a>
10003516:	9b1c      	ldr	r3, [sp, #112]	; 0x70
10003518:	1dda      	adds	r2, r3, #7
1000351a:	2107      	movs	r1, #7
1000351c:	438a      	bics	r2, r1
1000351e:	0011      	movs	r1, r2
10003520:	3108      	adds	r1, #8
10003522:	911c      	str	r1, [sp, #112]	; 0x70
10003524:	9408      	str	r4, [sp, #32]
10003526:	9b0a      	ldr	r3, [sp, #40]	; 0x28
10003528:	9307      	str	r3, [sp, #28]
1000352a:	4653      	mov	r3, sl
1000352c:	9306      	str	r3, [sp, #24]
1000352e:	9604      	str	r6, [sp, #16]
10003530:	2300      	movs	r3, #0
10003532:	9305      	str	r3, [sp, #20]
10003534:	9302      	str	r3, [sp, #8]
10003536:	6813      	ldr	r3, [r2, #0]
10003538:	6854      	ldr	r4, [r2, #4]
1000353a:	9300      	str	r3, [sp, #0]
1000353c:	9401      	str	r4, [sp, #4]
1000353e:	4643      	mov	r3, r8
10003540:	003a      	movs	r2, r7
10003542:	4659      	mov	r1, fp
10003544:	0028      	movs	r0, r5
10003546:	f7ff fa2d 	bl	100029a4 <_ntoa_long_long>
1000354a:	0007      	movs	r7, r0
1000354c:	e788      	b.n	10003460 <_vsnprintf+0x270>
1000354e:	9a1c      	ldr	r2, [sp, #112]	; 0x70
10003550:	1d11      	adds	r1, r2, #4
10003552:	911c      	str	r1, [sp, #112]	; 0x70
10003554:	9405      	str	r4, [sp, #20]
10003556:	9b0a      	ldr	r3, [sp, #40]	; 0x28
10003558:	9304      	str	r3, [sp, #16]
1000355a:	4653      	mov	r3, sl
1000355c:	9303      	str	r3, [sp, #12]
1000355e:	9602      	str	r6, [sp, #8]
10003560:	2300      	movs	r3, #0
10003562:	9301      	str	r3, [sp, #4]
10003564:	6813      	ldr	r3, [r2, #0]
10003566:	9300      	str	r3, [sp, #0]
10003568:	4643      	mov	r3, r8
1000356a:	003a      	movs	r2, r7
1000356c:	4659      	mov	r1, fp
1000356e:	0028      	movs	r0, r5
10003570:	f7ff f9ba 	bl	100028e8 <_ntoa_long>
10003574:	0007      	movs	r7, r0
10003576:	e773      	b.n	10003460 <_vsnprintf+0x270>
10003578:	0623      	lsls	r3, r4, #24
1000357a:	d50d      	bpl.n	10003598 <_vsnprintf+0x3a8>
1000357c:	9a1c      	ldr	r2, [sp, #112]	; 0x70
1000357e:	1d11      	adds	r1, r2, #4
10003580:	911c      	str	r1, [sp, #112]	; 0x70
10003582:	6812      	ldr	r2, [r2, #0]
10003584:	0412      	lsls	r2, r2, #16
10003586:	0c12      	lsrs	r2, r2, #16
10003588:	e731      	b.n	100033ee <_vsnprintf+0x1fe>
1000358a:	46c0      	nop			; (mov r8, r8)
1000358c:	10007844 	.word	0x10007844
10003590:	10007888 	.word	0x10007888
10003594:	100078d4 	.word	0x100078d4
10003598:	9a1c      	ldr	r2, [sp, #112]	; 0x70
1000359a:	1d11      	adds	r1, r2, #4
1000359c:	911c      	str	r1, [sp, #112]	; 0x70
1000359e:	6812      	ldr	r2, [r2, #0]
100035a0:	e725      	b.n	100033ee <_vsnprintf+0x1fe>
100035a2:	2846      	cmp	r0, #70	; 0x46
100035a4:	d01a      	beq.n	100035dc <_vsnprintf+0x3ec>
100035a6:	9b1c      	ldr	r3, [sp, #112]	; 0x70
100035a8:	3307      	adds	r3, #7
100035aa:	2207      	movs	r2, #7
100035ac:	4393      	bics	r3, r2
100035ae:	001a      	movs	r2, r3
100035b0:	3208      	adds	r2, #8
100035b2:	921c      	str	r2, [sp, #112]	; 0x70
100035b4:	9404      	str	r4, [sp, #16]
100035b6:	9a0a      	ldr	r2, [sp, #40]	; 0x28
100035b8:	9203      	str	r2, [sp, #12]
100035ba:	4652      	mov	r2, sl
100035bc:	9202      	str	r2, [sp, #8]
100035be:	685c      	ldr	r4, [r3, #4]
100035c0:	681b      	ldr	r3, [r3, #0]
100035c2:	9300      	str	r3, [sp, #0]
100035c4:	9401      	str	r4, [sp, #4]
100035c6:	4643      	mov	r3, r8
100035c8:	003a      	movs	r2, r7
100035ca:	4659      	mov	r1, fp
100035cc:	0028      	movs	r0, r5
100035ce:	f7ff fc65 	bl	10002e9c <_ftoa>
100035d2:	0007      	movs	r7, r0
100035d4:	9b11      	ldr	r3, [sp, #68]	; 0x44
100035d6:	3301      	adds	r3, #1
100035d8:	9311      	str	r3, [sp, #68]	; 0x44
100035da:	e619      	b.n	10003210 <_vsnprintf+0x20>
100035dc:	2320      	movs	r3, #32
100035de:	431c      	orrs	r4, r3
100035e0:	e7e1      	b.n	100035a6 <_vsnprintf+0x3b6>
100035e2:	2867      	cmp	r0, #103	; 0x67
100035e4:	d001      	beq.n	100035ea <_vsnprintf+0x3fa>
100035e6:	2847      	cmp	r0, #71	; 0x47
100035e8:	d102      	bne.n	100035f0 <_vsnprintf+0x400>
100035ea:	2380      	movs	r3, #128	; 0x80
100035ec:	011b      	lsls	r3, r3, #4
100035ee:	431c      	orrs	r4, r3
100035f0:	2845      	cmp	r0, #69	; 0x45
100035f2:	d001      	beq.n	100035f8 <_vsnprintf+0x408>
100035f4:	2847      	cmp	r0, #71	; 0x47
100035f6:	d101      	bne.n	100035fc <_vsnprintf+0x40c>
100035f8:	2320      	movs	r3, #32
100035fa:	431c      	orrs	r4, r3
100035fc:	9b1c      	ldr	r3, [sp, #112]	; 0x70
100035fe:	3307      	adds	r3, #7
10003600:	2207      	movs	r2, #7
10003602:	4393      	bics	r3, r2
10003604:	001a      	movs	r2, r3
10003606:	3208      	adds	r2, #8
10003608:	921c      	str	r2, [sp, #112]	; 0x70
1000360a:	9404      	str	r4, [sp, #16]
1000360c:	9a0a      	ldr	r2, [sp, #40]	; 0x28
1000360e:	9203      	str	r2, [sp, #12]
10003610:	4652      	mov	r2, sl
10003612:	9202      	str	r2, [sp, #8]
10003614:	685c      	ldr	r4, [r3, #4]
10003616:	681b      	ldr	r3, [r3, #0]
10003618:	9300      	str	r3, [sp, #0]
1000361a:	9401      	str	r4, [sp, #4]
1000361c:	4643      	mov	r3, r8
1000361e:	003a      	movs	r2, r7
10003620:	4659      	mov	r1, fp
10003622:	0028      	movs	r0, r5
10003624:	f7ff fa30 	bl	10002a88 <_etoa>
10003628:	0007      	movs	r7, r0
1000362a:	9b11      	ldr	r3, [sp, #68]	; 0x44
1000362c:	3301      	adds	r3, #1
1000362e:	9311      	str	r3, [sp, #68]	; 0x44
10003630:	e5ee      	b.n	10003210 <_vsnprintf+0x20>
10003632:	2302      	movs	r3, #2
10003634:	001a      	movs	r2, r3
10003636:	4022      	ands	r2, r4
10003638:	4692      	mov	sl, r2
1000363a:	4223      	tst	r3, r4
1000363c:	d01f      	beq.n	1000367e <_vsnprintf+0x48e>
1000363e:	2401      	movs	r4, #1
10003640:	9b1c      	ldr	r3, [sp, #112]	; 0x70
10003642:	1d1a      	adds	r2, r3, #4
10003644:	921c      	str	r2, [sp, #112]	; 0x70
10003646:	1c7a      	adds	r2, r7, #1
10003648:	4691      	mov	r9, r2
1000364a:	7818      	ldrb	r0, [r3, #0]
1000364c:	4643      	mov	r3, r8
1000364e:	003a      	movs	r2, r7
10003650:	4659      	mov	r1, fp
10003652:	47a8      	blx	r5
10003654:	4653      	mov	r3, sl
10003656:	2b00      	cmp	r3, #0
10003658:	d116      	bne.n	10003688 <_vsnprintf+0x498>
1000365a:	9b11      	ldr	r3, [sp, #68]	; 0x44
1000365c:	3301      	adds	r3, #1
1000365e:	9311      	str	r3, [sp, #68]	; 0x44
10003660:	464f      	mov	r7, r9
10003662:	e5d5      	b.n	10003210 <_vsnprintf+0x20>
10003664:	1c56      	adds	r6, r2, #1
10003666:	4643      	mov	r3, r8
10003668:	4659      	mov	r1, fp
1000366a:	2020      	movs	r0, #32
1000366c:	47b8      	blx	r7
1000366e:	0023      	movs	r3, r4
10003670:	0032      	movs	r2, r6
10003672:	1c5c      	adds	r4, r3, #1
10003674:	429d      	cmp	r5, r3
10003676:	d8f5      	bhi.n	10003664 <_vsnprintf+0x474>
10003678:	003d      	movs	r5, r7
1000367a:	0017      	movs	r7, r2
1000367c:	e7e0      	b.n	10003640 <_vsnprintf+0x450>
1000367e:	2301      	movs	r3, #1
10003680:	003a      	movs	r2, r7
10003682:	002f      	movs	r7, r5
10003684:	9d0a      	ldr	r5, [sp, #40]	; 0x28
10003686:	e7f4      	b.n	10003672 <_vsnprintf+0x482>
10003688:	464a      	mov	r2, r9
1000368a:	46a9      	mov	r9, r5
1000368c:	9d0a      	ldr	r5, [sp, #40]	; 0x28
1000368e:	e006      	b.n	1000369e <_vsnprintf+0x4ae>
10003690:	1c57      	adds	r7, r2, #1
10003692:	4643      	mov	r3, r8
10003694:	4659      	mov	r1, fp
10003696:	2020      	movs	r0, #32
10003698:	47c8      	blx	r9
1000369a:	0034      	movs	r4, r6
1000369c:	003a      	movs	r2, r7
1000369e:	1c66      	adds	r6, r4, #1
100036a0:	42a5      	cmp	r5, r4
100036a2:	d8f5      	bhi.n	10003690 <_vsnprintf+0x4a0>
100036a4:	464d      	mov	r5, r9
100036a6:	4691      	mov	r9, r2
100036a8:	e7d7      	b.n	1000365a <_vsnprintf+0x46a>
100036aa:	9b1c      	ldr	r3, [sp, #112]	; 0x70
100036ac:	1d1a      	adds	r2, r3, #4
100036ae:	921c      	str	r2, [sp, #112]	; 0x70
100036b0:	681b      	ldr	r3, [r3, #0]
100036b2:	4699      	mov	r9, r3
100036b4:	4653      	mov	r3, sl
100036b6:	2b00      	cmp	r3, #0
100036b8:	d100      	bne.n	100036bc <_vsnprintf+0x4cc>
100036ba:	3b01      	subs	r3, #1
100036bc:	464e      	mov	r6, r9
100036be:	e001      	b.n	100036c4 <_vsnprintf+0x4d4>
100036c0:	3601      	adds	r6, #1
100036c2:	0013      	movs	r3, r2
100036c4:	7832      	ldrb	r2, [r6, #0]
100036c6:	2a00      	cmp	r2, #0
100036c8:	d002      	beq.n	100036d0 <_vsnprintf+0x4e0>
100036ca:	1e5a      	subs	r2, r3, #1
100036cc:	2b00      	cmp	r3, #0
100036ce:	d1f7      	bne.n	100036c0 <_vsnprintf+0x4d0>
100036d0:	464b      	mov	r3, r9
100036d2:	1af2      	subs	r2, r6, r3
100036d4:	9210      	str	r2, [sp, #64]	; 0x40
100036d6:	2380      	movs	r3, #128	; 0x80
100036d8:	00db      	lsls	r3, r3, #3
100036da:	0026      	movs	r6, r4
100036dc:	401e      	ands	r6, r3
100036de:	421c      	tst	r4, r3
100036e0:	d003      	beq.n	100036ea <_vsnprintf+0x4fa>
100036e2:	4552      	cmp	r2, sl
100036e4:	d901      	bls.n	100036ea <_vsnprintf+0x4fa>
100036e6:	4653      	mov	r3, sl
100036e8:	9310      	str	r3, [sp, #64]	; 0x40
100036ea:	2302      	movs	r3, #2
100036ec:	001a      	movs	r2, r3
100036ee:	4022      	ands	r2, r4
100036f0:	920b      	str	r2, [sp, #44]	; 0x2c
100036f2:	4223      	tst	r3, r4
100036f4:	d005      	beq.n	10003702 <_vsnprintf+0x512>
100036f6:	003a      	movs	r2, r7
100036f8:	0037      	movs	r7, r6
100036fa:	464c      	mov	r4, r9
100036fc:	46a9      	mov	r9, r5
100036fe:	4655      	mov	r5, sl
10003700:	e020      	b.n	10003744 <_vsnprintf+0x554>
10003702:	003a      	movs	r2, r7
10003704:	9b10      	ldr	r3, [sp, #64]	; 0x40
10003706:	465f      	mov	r7, fp
10003708:	46b3      	mov	fp, r6
1000370a:	002e      	movs	r6, r5
1000370c:	e006      	b.n	1000371c <_vsnprintf+0x52c>
1000370e:	1c55      	adds	r5, r2, #1
10003710:	4643      	mov	r3, r8
10003712:	0039      	movs	r1, r7
10003714:	2020      	movs	r0, #32
10003716:	47b0      	blx	r6
10003718:	0023      	movs	r3, r4
1000371a:	002a      	movs	r2, r5
1000371c:	1c5c      	adds	r4, r3, #1
1000371e:	990a      	ldr	r1, [sp, #40]	; 0x28
10003720:	4299      	cmp	r1, r3
10003722:	d8f4      	bhi.n	1000370e <_vsnprintf+0x51e>
10003724:	0035      	movs	r5, r6
10003726:	465e      	mov	r6, fp
10003728:	46bb      	mov	fp, r7
1000372a:	9410      	str	r4, [sp, #64]	; 0x40
1000372c:	0037      	movs	r7, r6
1000372e:	464c      	mov	r4, r9
10003730:	46a9      	mov	r9, r5
10003732:	4655      	mov	r5, sl
10003734:	e006      	b.n	10003744 <_vsnprintf+0x554>
10003736:	001d      	movs	r5, r3
10003738:	3401      	adds	r4, #1
1000373a:	1c56      	adds	r6, r2, #1
1000373c:	4643      	mov	r3, r8
1000373e:	4659      	mov	r1, fp
10003740:	47c8      	blx	r9
10003742:	0032      	movs	r2, r6
10003744:	7820      	ldrb	r0, [r4, #0]
10003746:	2800      	cmp	r0, #0
10003748:	d004      	beq.n	10003754 <_vsnprintf+0x564>
1000374a:	2f00      	cmp	r7, #0
1000374c:	d0f4      	beq.n	10003738 <_vsnprintf+0x548>
1000374e:	1e6b      	subs	r3, r5, #1
10003750:	2d00      	cmp	r5, #0
10003752:	d1f0      	bne.n	10003736 <_vsnprintf+0x546>
10003754:	0017      	movs	r7, r2
10003756:	464d      	mov	r5, r9
10003758:	9b0b      	ldr	r3, [sp, #44]	; 0x2c
1000375a:	2b00      	cmp	r3, #0
1000375c:	d103      	bne.n	10003766 <_vsnprintf+0x576>
1000375e:	9b11      	ldr	r3, [sp, #68]	; 0x44
10003760:	3301      	adds	r3, #1
10003762:	9311      	str	r3, [sp, #68]	; 0x44
10003764:	e554      	b.n	10003210 <_vsnprintf+0x20>
10003766:	9f0a      	ldr	r7, [sp, #40]	; 0x28
10003768:	9b10      	ldr	r3, [sp, #64]	; 0x40
1000376a:	e006      	b.n	1000377a <_vsnprintf+0x58a>
1000376c:	1c56      	adds	r6, r2, #1
1000376e:	4643      	mov	r3, r8
10003770:	4659      	mov	r1, fp
10003772:	2020      	movs	r0, #32
10003774:	47a8      	blx	r5
10003776:	0023      	movs	r3, r4
10003778:	0032      	movs	r2, r6
1000377a:	1c5c      	adds	r4, r3, #1
1000377c:	429f      	cmp	r7, r3
1000377e:	d8f5      	bhi.n	1000376c <_vsnprintf+0x57c>
10003780:	0017      	movs	r7, r2
10003782:	e7ec      	b.n	1000375e <_vsnprintf+0x56e>
10003784:	2321      	movs	r3, #33	; 0x21
10003786:	431c      	orrs	r4, r3
10003788:	9b1c      	ldr	r3, [sp, #112]	; 0x70
1000378a:	1d1a      	adds	r2, r3, #4
1000378c:	921c      	str	r2, [sp, #112]	; 0x70
1000378e:	681b      	ldr	r3, [r3, #0]
10003790:	9300      	str	r3, [sp, #0]
10003792:	9405      	str	r4, [sp, #20]
10003794:	2308      	movs	r3, #8
10003796:	9304      	str	r3, [sp, #16]
10003798:	4653      	mov	r3, sl
1000379a:	9303      	str	r3, [sp, #12]
1000379c:	2310      	movs	r3, #16
1000379e:	9302      	str	r3, [sp, #8]
100037a0:	2300      	movs	r3, #0
100037a2:	9301      	str	r3, [sp, #4]
100037a4:	4643      	mov	r3, r8
100037a6:	003a      	movs	r2, r7
100037a8:	4659      	mov	r1, fp
100037aa:	0028      	movs	r0, r5
100037ac:	f7ff f89c 	bl	100028e8 <_ntoa_long>
100037b0:	0007      	movs	r7, r0
100037b2:	9b11      	ldr	r3, [sp, #68]	; 0x44
100037b4:	3301      	adds	r3, #1
100037b6:	9311      	str	r3, [sp, #68]	; 0x44
100037b8:	e52a      	b.n	10003210 <_vsnprintf+0x20>
100037ba:	1c7c      	adds	r4, r7, #1
100037bc:	4643      	mov	r3, r8
100037be:	003a      	movs	r2, r7
100037c0:	4659      	mov	r1, fp
100037c2:	2025      	movs	r0, #37	; 0x25
100037c4:	47a8      	blx	r5
100037c6:	9b11      	ldr	r3, [sp, #68]	; 0x44
100037c8:	3301      	adds	r3, #1
100037ca:	9311      	str	r3, [sp, #68]	; 0x44
100037cc:	0027      	movs	r7, r4
100037ce:	e51f      	b.n	10003210 <_vsnprintf+0x20>
100037d0:	1c7c      	adds	r4, r7, #1
100037d2:	4643      	mov	r3, r8
100037d4:	003a      	movs	r2, r7
100037d6:	4659      	mov	r1, fp
100037d8:	47a8      	blx	r5
100037da:	9b11      	ldr	r3, [sp, #68]	; 0x44
100037dc:	3301      	adds	r3, #1
100037de:	9311      	str	r3, [sp, #68]	; 0x44
100037e0:	0027      	movs	r7, r4
100037e2:	e515      	b.n	10003210 <_vsnprintf+0x20>
100037e4:	4b0a      	ldr	r3, [pc, #40]	; (10003810 <_vsnprintf+0x620>)
100037e6:	469a      	mov	sl, r3
100037e8:	e510      	b.n	1000320c <_vsnprintf+0x1c>
100037ea:	46aa      	mov	sl, r5
100037ec:	4547      	cmp	r7, r8
100037ee:	d302      	bcc.n	100037f6 <_vsnprintf+0x606>
100037f0:	4643      	mov	r3, r8
100037f2:	1e5a      	subs	r2, r3, #1
100037f4:	e000      	b.n	100037f8 <_vsnprintf+0x608>
100037f6:	003a      	movs	r2, r7
100037f8:	4643      	mov	r3, r8
100037fa:	4659      	mov	r1, fp
100037fc:	2000      	movs	r0, #0
100037fe:	47d0      	blx	sl
10003800:	0038      	movs	r0, r7
10003802:	b013      	add	sp, #76	; 0x4c
10003804:	bcf0      	pop	{r4, r5, r6, r7}
10003806:	46bb      	mov	fp, r7
10003808:	46b2      	mov	sl, r6
1000380a:	46a9      	mov	r9, r5
1000380c:	46a0      	mov	r8, r4
1000380e:	bdf0      	pop	{r4, r5, r6, r7, pc}
10003810:	100026f5 	.word	0x100026f5

10003814 <vfctprintf>:
10003814:	b500      	push	{lr}
10003816:	b085      	sub	sp, #20
10003818:	9002      	str	r0, [sp, #8]
1000381a:	9103      	str	r1, [sp, #12]
1000381c:	2101      	movs	r1, #1
1000381e:	9300      	str	r3, [sp, #0]
10003820:	0013      	movs	r3, r2
10003822:	424a      	negs	r2, r1
10003824:	a902      	add	r1, sp, #8
10003826:	4802      	ldr	r0, [pc, #8]	; (10003830 <vfctprintf+0x1c>)
10003828:	f7ff fce2 	bl	100031f0 <_vsnprintf>
1000382c:	b005      	add	sp, #20
1000382e:	bd00      	pop	{pc}
10003830:	100026f7 	.word	0x100026f7

10003834 <__aeabi_bits_init>:
10003834:	4801      	ldr	r0, [pc, #4]	; (1000383c <__aeabi_bits_init+0x8>)
10003836:	2104      	movs	r1, #4
10003838:	4b01      	ldr	r3, [pc, #4]	; (10003840 <__aeabi_bits_init+0xc>)
1000383a:	4718      	bx	r3
1000383c:	20000c30 	.word	0x20000c30
10003840:	10003865 	.word	0x10003865

10003844 <rom_func_lookup>:
10003844:	b510      	push	{r4, lr}
10003846:	0001      	movs	r1, r0
10003848:	2318      	movs	r3, #24
1000384a:	881b      	ldrh	r3, [r3, #0]
1000384c:	2214      	movs	r2, #20
1000384e:	8810      	ldrh	r0, [r2, #0]
10003850:	4798      	blx	r3
10003852:	bd10      	pop	{r4, pc}

10003854 <rom_data_lookup>:
10003854:	b510      	push	{r4, lr}
10003856:	0001      	movs	r1, r0
10003858:	2318      	movs	r3, #24
1000385a:	881b      	ldrh	r3, [r3, #0]
1000385c:	2216      	movs	r2, #22
1000385e:	8810      	ldrh	r0, [r2, #0]
10003860:	4798      	blx	r3
10003862:	bd10      	pop	{r4, pc}

10003864 <rom_funcs_lookup>:
10003864:	b5f0      	push	{r4, r5, r6, r7, lr}
10003866:	46c6      	mov	lr, r8
10003868:	b500      	push	{lr}
1000386a:	0007      	movs	r7, r0
1000386c:	000e      	movs	r6, r1
1000386e:	2500      	movs	r5, #0
10003870:	2301      	movs	r3, #1
10003872:	4698      	mov	r8, r3
10003874:	e000      	b.n	10003878 <rom_funcs_lookup+0x14>
10003876:	3501      	adds	r5, #1
10003878:	42b5      	cmp	r5, r6
1000387a:	d20a      	bcs.n	10003892 <rom_funcs_lookup+0x2e>
1000387c:	00ac      	lsls	r4, r5, #2
1000387e:	193c      	adds	r4, r7, r4
10003880:	6820      	ldr	r0, [r4, #0]
10003882:	f7ff ffdf 	bl	10003844 <rom_func_lookup>
10003886:	6020      	str	r0, [r4, #0]
10003888:	2800      	cmp	r0, #0
1000388a:	d1f4      	bne.n	10003876 <rom_funcs_lookup+0x12>
1000388c:	2300      	movs	r3, #0
1000388e:	4698      	mov	r8, r3
10003890:	e7f1      	b.n	10003876 <rom_funcs_lookup+0x12>
10003892:	4640      	mov	r0, r8
10003894:	bc80      	pop	{r7}
10003896:	46b8      	mov	r8, r7
10003898:	bdf0      	pop	{r4, r5, r6, r7, pc}
	...

1000389c <__wrap___aeabi_idiv>:
1000389c:	4a12      	ldr	r2, [pc, #72]	; (100038e8 <divmod_s32s32_savestate+0x18>)
1000389e:	6f93      	ldr	r3, [r2, #120]	; 0x78
100038a0:	089b      	lsrs	r3, r3, #2
100038a2:	d215      	bcs.n	100038d0 <divmod_s32s32_savestate>

100038a4 <divmod_s32s32_unsafe>:
100038a4:	6690      	str	r0, [r2, #104]	; 0x68
100038a6:	66d1      	str	r1, [r2, #108]	; 0x6c
100038a8:	2900      	cmp	r1, #0
100038aa:	d005      	beq.n	100038b8 <divmod_s32s32_unsafe+0x14>
100038ac:	e7ff      	b.n	100038ae <divmod_s32s32_unsafe+0xa>
100038ae:	e7ff      	b.n	100038b0 <divmod_s32s32_unsafe+0xc>
100038b0:	e7ff      	b.n	100038b2 <divmod_s32s32_unsafe+0xe>
100038b2:	6f51      	ldr	r1, [r2, #116]	; 0x74
100038b4:	6f10      	ldr	r0, [r2, #112]	; 0x70
100038b6:	4770      	bx	lr
100038b8:	b504      	push	{r2, lr}
100038ba:	2180      	movs	r1, #128	; 0x80
100038bc:	0609      	lsls	r1, r1, #24
100038be:	17c2      	asrs	r2, r0, #31
100038c0:	4051      	eors	r1, r2
100038c2:	2800      	cmp	r0, #0
100038c4:	d000      	beq.n	100038c8 <divmod_s32s32_unsafe+0x24>
100038c6:	43c8      	mvns	r0, r1
100038c8:	f003 f926 	bl	10006b18 <____aeabi_idiv0_veneer>
100038cc:	2100      	movs	r1, #0
100038ce:	bd04      	pop	{r2, pc}

100038d0 <divmod_s32s32_savestate>:
100038d0:	b5f0      	push	{r4, r5, r6, r7, lr}
100038d2:	6e14      	ldr	r4, [r2, #96]	; 0x60
100038d4:	6e55      	ldr	r5, [r2, #100]	; 0x64
100038d6:	6f57      	ldr	r7, [r2, #116]	; 0x74
100038d8:	6f16      	ldr	r6, [r2, #112]	; 0x70
100038da:	f7ff ffe3 	bl	100038a4 <divmod_s32s32_unsafe>
100038de:	6614      	str	r4, [r2, #96]	; 0x60
100038e0:	6655      	str	r5, [r2, #100]	; 0x64
100038e2:	6757      	str	r7, [r2, #116]	; 0x74
100038e4:	6716      	str	r6, [r2, #112]	; 0x70
100038e6:	bdf0      	pop	{r4, r5, r6, r7, pc}
100038e8:	d0000000 	.word	0xd0000000

100038ec <__wrap___aeabi_uidiv>:
100038ec:	4a11      	ldr	r2, [pc, #68]	; (10003934 <divmod_u32u32_savestate+0x18>)
100038ee:	6f93      	ldr	r3, [r2, #120]	; 0x78
100038f0:	089b      	lsrs	r3, r3, #2
100038f2:	d213      	bcs.n	1000391c <divmod_u32u32_savestate>

100038f4 <divmod_u32u32_unsafe>:
100038f4:	6610      	str	r0, [r2, #96]	; 0x60
100038f6:	6651      	str	r1, [r2, #100]	; 0x64
100038f8:	2900      	cmp	r1, #0
100038fa:	d005      	beq.n	10003908 <divmod_u32u32_unsafe+0x14>
100038fc:	e7ff      	b.n	100038fe <divmod_u32u32_unsafe+0xa>
100038fe:	e7ff      	b.n	10003900 <divmod_u32u32_unsafe+0xc>
10003900:	e7ff      	b.n	10003902 <divmod_u32u32_unsafe+0xe>
10003902:	6f51      	ldr	r1, [r2, #116]	; 0x74
10003904:	6f10      	ldr	r0, [r2, #112]	; 0x70
10003906:	4770      	bx	lr
10003908:	b504      	push	{r2, lr}
1000390a:	2800      	cmp	r0, #0
1000390c:	d001      	beq.n	10003912 <divmod_u32u32_unsafe+0x1e>
1000390e:	2000      	movs	r0, #0
10003910:	43c0      	mvns	r0, r0
10003912:	f003 f901 	bl	10006b18 <____aeabi_idiv0_veneer>
10003916:	2100      	movs	r1, #0
10003918:	bd04      	pop	{r2, pc}
1000391a:	46c0      	nop			; (mov r8, r8)

1000391c <divmod_u32u32_savestate>:
1000391c:	b5f0      	push	{r4, r5, r6, r7, lr}
1000391e:	6e14      	ldr	r4, [r2, #96]	; 0x60
10003920:	6e55      	ldr	r5, [r2, #100]	; 0x64
10003922:	6f57      	ldr	r7, [r2, #116]	; 0x74
10003924:	6f16      	ldr	r6, [r2, #112]	; 0x70
10003926:	f7ff ffe5 	bl	100038f4 <divmod_u32u32_unsafe>
1000392a:	6614      	str	r4, [r2, #96]	; 0x60
1000392c:	6655      	str	r5, [r2, #100]	; 0x64
1000392e:	6757      	str	r7, [r2, #116]	; 0x74
10003930:	6716      	str	r6, [r2, #112]	; 0x70
10003932:	bdf0      	pop	{r4, r5, r6, r7, pc}
10003934:	d0000000 	.word	0xd0000000

10003938 <__wrap___aeabi_ldivmod>:
10003938:	4694      	mov	ip, r2
1000393a:	4a4a      	ldr	r2, [pc, #296]	; (10003a64 <udiv0+0x1a>)
1000393c:	6f92      	ldr	r2, [r2, #120]	; 0x78
1000393e:	0892      	lsrs	r2, r2, #2
10003940:	4662      	mov	r2, ip
10003942:	d201      	bcs.n	10003948 <divmod_s64s64_savestate>
10003944:	e028      	b.n	10003998 <divmod_s64s64_unsafe>
10003946:	46c0      	nop			; (mov r8, r8)

10003948 <divmod_s64s64_savestate>:
10003948:	b5f0      	push	{r4, r5, r6, r7, lr}
1000394a:	4e46      	ldr	r6, [pc, #280]	; (10003a64 <udiv0+0x1a>)
1000394c:	6e34      	ldr	r4, [r6, #96]	; 0x60
1000394e:	6e75      	ldr	r5, [r6, #100]	; 0x64
10003950:	6f77      	ldr	r7, [r6, #116]	; 0x74
10003952:	6f36      	ldr	r6, [r6, #112]	; 0x70
10003954:	f000 f820 	bl	10003998 <divmod_s64s64_unsafe>
10003958:	4694      	mov	ip, r2
1000395a:	4a42      	ldr	r2, [pc, #264]	; (10003a64 <udiv0+0x1a>)
1000395c:	6614      	str	r4, [r2, #96]	; 0x60
1000395e:	6655      	str	r5, [r2, #100]	; 0x64
10003960:	6757      	str	r7, [r2, #116]	; 0x74
10003962:	6716      	str	r6, [r2, #112]	; 0x70
10003964:	4662      	mov	r2, ip
10003966:	bdf0      	pop	{r4, r5, r6, r7, pc}

10003968 <__wrap___aeabi_uldivmod>:
10003968:	4694      	mov	ip, r2
1000396a:	4a3e      	ldr	r2, [pc, #248]	; (10003a64 <udiv0+0x1a>)
1000396c:	6f92      	ldr	r2, [r2, #120]	; 0x78
1000396e:	0892      	lsrs	r2, r2, #2
10003970:	4662      	mov	r2, ip
10003972:	d201      	bcs.n	10003978 <divmod_u64u64_savestate>
10003974:	e054      	b.n	10003a20 <divmod_u64u64_unsafe>
10003976:	46c0      	nop			; (mov r8, r8)

10003978 <divmod_u64u64_savestate>:
10003978:	b5f0      	push	{r4, r5, r6, r7, lr}
1000397a:	4e3a      	ldr	r6, [pc, #232]	; (10003a64 <udiv0+0x1a>)
1000397c:	6e34      	ldr	r4, [r6, #96]	; 0x60
1000397e:	6e75      	ldr	r5, [r6, #100]	; 0x64
10003980:	6f77      	ldr	r7, [r6, #116]	; 0x74
10003982:	6f36      	ldr	r6, [r6, #112]	; 0x70
10003984:	f000 f84c 	bl	10003a20 <divmod_u64u64_unsafe>
10003988:	4694      	mov	ip, r2
1000398a:	4a36      	ldr	r2, [pc, #216]	; (10003a64 <udiv0+0x1a>)
1000398c:	6614      	str	r4, [r2, #96]	; 0x60
1000398e:	6655      	str	r5, [r2, #100]	; 0x64
10003990:	6757      	str	r7, [r2, #116]	; 0x74
10003992:	6716      	str	r6, [r2, #112]	; 0x70
10003994:	4662      	mov	r2, ip
10003996:	bdf0      	pop	{r4, r5, r6, r7, pc}

10003998 <divmod_s64s64_unsafe>:
10003998:	2b00      	cmp	r3, #0
1000399a:	db24      	blt.n	100039e6 <l42_1+0x26>
1000399c:	d011      	beq.n	100039c2 <l42_1+0x2>
1000399e:	2900      	cmp	r1, #0
100039a0:	da3e      	bge.n	10003a20 <divmod_u64u64_unsafe>
100039a2:	b500      	push	{lr}
100039a4:	43c9      	mvns	r1, r1
100039a6:	4240      	negs	r0, r0
100039a8:	d100      	bne.n	100039ac <l40_1>
100039aa:	3101      	adds	r1, #1

100039ac <l40_1>:
100039ac:	f000 f838 	bl	10003a20 <divmod_u64u64_unsafe>
100039b0:	43c9      	mvns	r1, r1
100039b2:	4240      	negs	r0, r0
100039b4:	d100      	bne.n	100039b8 <l41_1>
100039b6:	3101      	adds	r1, #1

100039b8 <l41_1>:
100039b8:	43db      	mvns	r3, r3
100039ba:	4252      	negs	r2, r2
100039bc:	d100      	bne.n	100039c0 <l42_1>
100039be:	3301      	adds	r3, #1

100039c0 <l42_1>:
100039c0:	bd00      	pop	{pc}
100039c2:	2a00      	cmp	r2, #0
100039c4:	d1eb      	bne.n	1000399e <divmod_s64s64_unsafe+0x6>
100039c6:	2800      	cmp	r0, #0
100039c8:	d101      	bne.n	100039ce <l42_1+0xe>
100039ca:	2900      	cmp	r1, #0
100039cc:	d005      	beq.n	100039da <l42_1+0x1a>
100039ce:	2000      	movs	r0, #0
100039d0:	0fc9      	lsrs	r1, r1, #31
100039d2:	07c9      	lsls	r1, r1, #31
100039d4:	d101      	bne.n	100039da <l42_1+0x1a>
100039d6:	43c0      	mvns	r0, r0
100039d8:	0841      	lsrs	r1, r0, #1
100039da:	b500      	push	{lr}
100039dc:	f003 f894 	bl	10006b08 <____aeabi_ldiv0_veneer>
100039e0:	2200      	movs	r2, #0
100039e2:	2300      	movs	r3, #0
100039e4:	bd00      	pop	{pc}
100039e6:	b500      	push	{lr}
100039e8:	2900      	cmp	r1, #0
100039ea:	db0a      	blt.n	10003a02 <l44_1+0x2>
100039ec:	43db      	mvns	r3, r3
100039ee:	4252      	negs	r2, r2
100039f0:	d100      	bne.n	100039f4 <l43_1>
100039f2:	3301      	adds	r3, #1

100039f4 <l43_1>:
100039f4:	f000 f814 	bl	10003a20 <divmod_u64u64_unsafe>
100039f8:	43c9      	mvns	r1, r1
100039fa:	4240      	negs	r0, r0
100039fc:	d100      	bne.n	10003a00 <l44_1>
100039fe:	3101      	adds	r1, #1

10003a00 <l44_1>:
10003a00:	bd00      	pop	{pc}
10003a02:	43c9      	mvns	r1, r1
10003a04:	4240      	negs	r0, r0
10003a06:	d100      	bne.n	10003a0a <l45_1>
10003a08:	3101      	adds	r1, #1

10003a0a <l45_1>:
10003a0a:	43db      	mvns	r3, r3
10003a0c:	4252      	negs	r2, r2
10003a0e:	d100      	bne.n	10003a12 <l46_1>
10003a10:	3301      	adds	r3, #1

10003a12 <l46_1>:
10003a12:	f000 f805 	bl	10003a20 <divmod_u64u64_unsafe>
10003a16:	43db      	mvns	r3, r3
10003a18:	4252      	negs	r2, r2
10003a1a:	d100      	bne.n	10003a1e <l47_1>
10003a1c:	3301      	adds	r3, #1

10003a1e <l47_1>:
10003a1e:	bd00      	pop	{pc}

10003a20 <divmod_u64u64_unsafe>:
10003a20:	2900      	cmp	r1, #0
10003a22:	d123      	bne.n	10003a6c <y64>
10003a24:	2b00      	cmp	r3, #0
10003a26:	d118      	bne.n	10003a5a <udiv0+0x10>
10003a28:	2a00      	cmp	r2, #0
10003a2a:	d00c      	beq.n	10003a46 <divmod_u64u64_unsafe+0x26>
10003a2c:	46bc      	mov	ip, r7
10003a2e:	4f0d      	ldr	r7, [pc, #52]	; (10003a64 <udiv0+0x1a>)
10003a30:	6638      	str	r0, [r7, #96]	; 0x60
10003a32:	667a      	str	r2, [r7, #100]	; 0x64
10003a34:	2100      	movs	r1, #0
10003a36:	2300      	movs	r3, #0
10003a38:	e7ff      	b.n	10003a3a <divmod_u64u64_unsafe+0x1a>
10003a3a:	e7ff      	b.n	10003a3c <divmod_u64u64_unsafe+0x1c>
10003a3c:	e7ff      	b.n	10003a3e <divmod_u64u64_unsafe+0x1e>
10003a3e:	6f7a      	ldr	r2, [r7, #116]	; 0x74
10003a40:	6f38      	ldr	r0, [r7, #112]	; 0x70
10003a42:	4667      	mov	r7, ip
10003a44:	4770      	bx	lr
10003a46:	2800      	cmp	r0, #0
10003a48:	d001      	beq.n	10003a4e <udiv0+0x4>

10003a4a <udiv0>:
10003a4a:	4807      	ldr	r0, [pc, #28]	; (10003a68 <udiv0+0x1e>)
10003a4c:	0001      	movs	r1, r0
10003a4e:	b500      	push	{lr}
10003a50:	f003 f85a 	bl	10006b08 <____aeabi_ldiv0_veneer>
10003a54:	2200      	movs	r2, #0
10003a56:	2300      	movs	r3, #0
10003a58:	bd00      	pop	{pc}
10003a5a:	0002      	movs	r2, r0
10003a5c:	000b      	movs	r3, r1
10003a5e:	2000      	movs	r0, #0
10003a60:	2100      	movs	r1, #0
10003a62:	4770      	bx	lr
10003a64:	d0000000 	.word	0xd0000000
10003a68:	ffffffff 	.word	0xffffffff

10003a6c <y64>:
10003a6c:	2b00      	cmp	r3, #0
10003a6e:	d000      	beq.n	10003a72 <y64+0x6>
10003a70:	e0bf      	b.n	10003bf2 <y64_x48>
10003a72:	0c13      	lsrs	r3, r2, #16
10003a74:	d128      	bne.n	10003ac8 <y64_x32>
10003a76:	2a00      	cmp	r2, #0
10003a78:	d0e7      	beq.n	10003a4a <udiv0>
10003a7a:	b480      	push	{r7}
10003a7c:	4f11      	ldr	r7, [pc, #68]	; (10003ac4 <y64+0x58>)
10003a7e:	6639      	str	r1, [r7, #96]	; 0x60
10003a80:	667a      	str	r2, [r7, #100]	; 0x64
10003a82:	e7ff      	b.n	10003a84 <y64+0x18>
10003a84:	e7ff      	b.n	10003a86 <y64+0x1a>
10003a86:	b430      	push	{r4, r5}
10003a88:	0c04      	lsrs	r4, r0, #16
10003a8a:	6f7b      	ldr	r3, [r7, #116]	; 0x74
10003a8c:	6f39      	ldr	r1, [r7, #112]	; 0x70
10003a8e:	041b      	lsls	r3, r3, #16
10003a90:	4323      	orrs	r3, r4
10003a92:	663b      	str	r3, [r7, #96]	; 0x60
10003a94:	667a      	str	r2, [r7, #100]	; 0x64
10003a96:	e7ff      	b.n	10003a98 <y64+0x2c>
10003a98:	e7ff      	b.n	10003a9a <y64+0x2e>
10003a9a:	e7ff      	b.n	10003a9c <y64+0x30>
10003a9c:	46c0      	nop			; (mov r8, r8)
10003a9e:	b284      	uxth	r4, r0
10003aa0:	6f7b      	ldr	r3, [r7, #116]	; 0x74
10003aa2:	6f3d      	ldr	r5, [r7, #112]	; 0x70
10003aa4:	041b      	lsls	r3, r3, #16
10003aa6:	4323      	orrs	r3, r4
10003aa8:	663b      	str	r3, [r7, #96]	; 0x60
10003aaa:	667a      	str	r2, [r7, #100]	; 0x64
10003aac:	e7ff      	b.n	10003aae <y64+0x42>
10003aae:	e7ff      	b.n	10003ab0 <y64+0x44>
10003ab0:	46c0      	nop			; (mov r8, r8)
10003ab2:	2300      	movs	r3, #0
10003ab4:	042c      	lsls	r4, r5, #16
10003ab6:	0c2d      	lsrs	r5, r5, #16
10003ab8:	6f7a      	ldr	r2, [r7, #116]	; 0x74
10003aba:	6f38      	ldr	r0, [r7, #112]	; 0x70
10003abc:	1900      	adds	r0, r0, r4
10003abe:	4169      	adcs	r1, r5
10003ac0:	bcb0      	pop	{r4, r5, r7}
10003ac2:	4770      	bx	lr
10003ac4:	d0000000 	.word	0xd0000000

10003ac8 <y64_x32>:
10003ac8:	b5f0      	push	{r4, r5, r6, r7, lr}
10003aca:	4694      	mov	ip, r2
10003acc:	2500      	movs	r5, #0
10003ace:	0e14      	lsrs	r4, r2, #24
10003ad0:	d101      	bne.n	10003ad6 <y64_x32+0xe>
10003ad2:	0212      	lsls	r2, r2, #8
10003ad4:	3508      	adds	r5, #8
10003ad6:	0f14      	lsrs	r4, r2, #28
10003ad8:	d101      	bne.n	10003ade <y64_x32+0x16>
10003ada:	0112      	lsls	r2, r2, #4
10003adc:	3504      	adds	r5, #4
10003ade:	0f94      	lsrs	r4, r2, #30
10003ae0:	d101      	bne.n	10003ae6 <y64_x32+0x1e>
10003ae2:	0092      	lsls	r2, r2, #2
10003ae4:	3502      	adds	r5, #2
10003ae6:	0fd4      	lsrs	r4, r2, #31
10003ae8:	d101      	bne.n	10003aee <y64_x32+0x26>
10003aea:	0052      	lsls	r2, r2, #1
10003aec:	3501      	adds	r5, #1
10003aee:	0bd4      	lsrs	r4, r2, #15
10003af0:	3401      	adds	r4, #1
10003af2:	4f25      	ldr	r7, [pc, #148]	; (10003b88 <y64_x32+0xc0>)
10003af4:	667c      	str	r4, [r7, #100]	; 0x64
10003af6:	4c25      	ldr	r4, [pc, #148]	; (10003b8c <y64_x32+0xc4>)
10003af8:	663c      	str	r4, [r7, #96]	; 0x60
10003afa:	0c0e      	lsrs	r6, r1, #16
10003afc:	b293      	uxth	r3, r2
10003afe:	e7ff      	b.n	10003b00 <y64_x32+0x38>
10003b00:	e7ff      	b.n	10003b02 <y64_x32+0x3a>
10003b02:	e7ff      	b.n	10003b04 <y64_x32+0x3c>
10003b04:	6f3c      	ldr	r4, [r7, #112]	; 0x70
10003b06:	4366      	muls	r6, r4
10003b08:	0c36      	lsrs	r6, r6, #16
10003b0a:	0377      	lsls	r7, r6, #13
10003b0c:	46be      	mov	lr, r7
10003b0e:	4373      	muls	r3, r6
10003b10:	0bdf      	lsrs	r7, r3, #15
10003b12:	045b      	lsls	r3, r3, #17
10003b14:	1ac0      	subs	r0, r0, r3
10003b16:	41b9      	sbcs	r1, r7
10003b18:	0c13      	lsrs	r3, r2, #16
10003b1a:	4373      	muls	r3, r6
10003b1c:	18db      	adds	r3, r3, r3
10003b1e:	1ac9      	subs	r1, r1, r3
10003b20:	08ce      	lsrs	r6, r1, #3
10003b22:	4366      	muls	r6, r4
10003b24:	0c36      	lsrs	r6, r6, #16
10003b26:	44b6      	add	lr, r6
10003b28:	b293      	uxth	r3, r2
10003b2a:	4373      	muls	r3, r6
10003b2c:	0f1f      	lsrs	r7, r3, #28
10003b2e:	011b      	lsls	r3, r3, #4
10003b30:	1ac0      	subs	r0, r0, r3
10003b32:	41b9      	sbcs	r1, r7
10003b34:	0c13      	lsrs	r3, r2, #16
10003b36:	4373      	muls	r3, r6
10003b38:	0b1f      	lsrs	r7, r3, #12
10003b3a:	051b      	lsls	r3, r3, #20
10003b3c:	1ac0      	subs	r0, r0, r3
10003b3e:	41b9      	sbcs	r1, r7
10003b40:	0d86      	lsrs	r6, r0, #22
10003b42:	028f      	lsls	r7, r1, #10
10003b44:	433e      	orrs	r6, r7
10003b46:	4366      	muls	r6, r4
10003b48:	0c36      	lsrs	r6, r6, #16
10003b4a:	2d09      	cmp	r5, #9
10003b4c:	db24      	blt.n	10003b98 <last0>
10003b4e:	0a52      	lsrs	r2, r2, #9
10003b50:	4372      	muls	r2, r6
10003b52:	1a80      	subs	r0, r0, r2
10003b54:	0377      	lsls	r7, r6, #13
10003b56:	0a46      	lsrs	r6, r0, #9
10003b58:	4366      	muls	r6, r4
10003b5a:	0c36      	lsrs	r6, r6, #16
10003b5c:	2316      	movs	r3, #22
10003b5e:	1b5b      	subs	r3, r3, r5
10003b60:	40de      	lsrs	r6, r3
10003b62:	40df      	lsrs	r7, r3
10003b64:	19bf      	adds	r7, r7, r6
10003b66:	4664      	mov	r4, ip
10003b68:	4366      	muls	r6, r4
10003b6a:	1b82      	subs	r2, r0, r6
10003b6c:	4670      	mov	r0, lr
10003b6e:	3504      	adds	r5, #4
10003b70:	3306      	adds	r3, #6
10003b72:	0001      	movs	r1, r0
10003b74:	40d9      	lsrs	r1, r3
10003b76:	40a8      	lsls	r0, r5
10003b78:	19c0      	adds	r0, r0, r7
10003b7a:	d300      	bcc.n	10003b7e <y64_x32+0xb6>
10003b7c:	3101      	adds	r1, #1
10003b7e:	42a2      	cmp	r2, r4
10003b80:	d206      	bcs.n	10003b90 <y64_x32+0xc8>
10003b82:	2300      	movs	r3, #0
10003b84:	bdf0      	pop	{r4, r5, r6, r7, pc}
10003b86:	0000      	.short	0x0000
10003b88:	d0000000 	.word	0xd0000000
10003b8c:	ffffffff 	.word	0xffffffff
10003b90:	1b12      	subs	r2, r2, r4
10003b92:	3001      	adds	r0, #1
10003b94:	d3f3      	bcc.n	10003b7e <y64_x32+0xb6>
10003b96:	e7f1      	b.n	10003b7c <y64_x32+0xb4>

10003b98 <last0>:
10003b98:	2709      	movs	r7, #9
10003b9a:	1b7f      	subs	r7, r7, r5
10003b9c:	40fe      	lsrs	r6, r7
10003b9e:	4664      	mov	r4, ip
10003ba0:	b2a2      	uxth	r2, r4
10003ba2:	4372      	muls	r2, r6
10003ba4:	1a80      	subs	r0, r0, r2
10003ba6:	d200      	bcs.n	10003baa <last0+0x12>
10003ba8:	3901      	subs	r1, #1
10003baa:	0c22      	lsrs	r2, r4, #16
10003bac:	4372      	muls	r2, r6
10003bae:	0c13      	lsrs	r3, r2, #16
10003bb0:	0412      	lsls	r2, r2, #16
10003bb2:	1a82      	subs	r2, r0, r2
10003bb4:	4199      	sbcs	r1, r3
10003bb6:	000b      	movs	r3, r1
10003bb8:	4670      	mov	r0, lr
10003bba:	3504      	adds	r5, #4
10003bbc:	3713      	adds	r7, #19
10003bbe:	0001      	movs	r1, r0
10003bc0:	40f9      	lsrs	r1, r7
10003bc2:	40a8      	lsls	r0, r5
10003bc4:	1980      	adds	r0, r0, r6
10003bc6:	d300      	bcc.n	10003bca <last0+0x32>
10003bc8:	3101      	adds	r1, #1
10003bca:	2b00      	cmp	r3, #0
10003bcc:	d102      	bne.n	10003bd4 <last0+0x3c>
10003bce:	42a2      	cmp	r2, r4
10003bd0:	d20a      	bcs.n	10003be8 <last0+0x50>
10003bd2:	bdf0      	pop	{r4, r5, r6, r7, pc}
10003bd4:	3001      	adds	r0, #1
10003bd6:	d300      	bcc.n	10003bda <last0+0x42>
10003bd8:	3101      	adds	r1, #1
10003bda:	1b12      	subs	r2, r2, r4
10003bdc:	d2fa      	bcs.n	10003bd4 <last0+0x3c>
10003bde:	3b01      	subs	r3, #1
10003be0:	d1f8      	bne.n	10003bd4 <last0+0x3c>
10003be2:	42a2      	cmp	r2, r4
10003be4:	d200      	bcs.n	10003be8 <last0+0x50>
10003be6:	bdf0      	pop	{r4, r5, r6, r7, pc}
10003be8:	3001      	adds	r0, #1
10003bea:	d300      	bcc.n	10003bee <last0+0x56>
10003bec:	3101      	adds	r1, #1
10003bee:	1b12      	subs	r2, r2, r4
10003bf0:	e7f7      	b.n	10003be2 <last0+0x4a>

10003bf2 <y64_x48>:
10003bf2:	b5f0      	push	{r4, r5, r6, r7, lr}
10003bf4:	0c1c      	lsrs	r4, r3, #16
10003bf6:	d000      	beq.n	10003bfa <y64_x48+0x8>
10003bf8:	e080      	b.n	10003cfc <y64_x64>
10003bfa:	b40c      	push	{r2, r3}
10003bfc:	2500      	movs	r5, #0
10003bfe:	0a1c      	lsrs	r4, r3, #8
10003c00:	d104      	bne.n	10003c0c <y64_x48+0x1a>
10003c02:	021b      	lsls	r3, r3, #8
10003c04:	0e16      	lsrs	r6, r2, #24
10003c06:	4333      	orrs	r3, r6
10003c08:	0212      	lsls	r2, r2, #8
10003c0a:	3508      	adds	r5, #8
10003c0c:	0b1c      	lsrs	r4, r3, #12
10003c0e:	d104      	bne.n	10003c1a <y64_x48+0x28>
10003c10:	011b      	lsls	r3, r3, #4
10003c12:	0f16      	lsrs	r6, r2, #28
10003c14:	4333      	orrs	r3, r6
10003c16:	0112      	lsls	r2, r2, #4
10003c18:	3504      	adds	r5, #4
10003c1a:	0b9c      	lsrs	r4, r3, #14
10003c1c:	d104      	bne.n	10003c28 <y64_x48+0x36>
10003c1e:	009b      	lsls	r3, r3, #2
10003c20:	0f96      	lsrs	r6, r2, #30
10003c22:	4333      	orrs	r3, r6
10003c24:	0092      	lsls	r2, r2, #2
10003c26:	3502      	adds	r5, #2
10003c28:	0bdc      	lsrs	r4, r3, #15
10003c2a:	d102      	bne.n	10003c32 <y64_x48+0x40>
10003c2c:	1892      	adds	r2, r2, r2
10003c2e:	415b      	adcs	r3, r3
10003c30:	3501      	adds	r5, #1
10003c32:	001c      	movs	r4, r3
10003c34:	1897      	adds	r7, r2, r2
10003c36:	4164      	adcs	r4, r4
10003c38:	3401      	adds	r4, #1
10003c3a:	4f46      	ldr	r7, [pc, #280]	; (10003d54 <y64_x64+0x58>)
10003c3c:	667c      	str	r4, [r7, #100]	; 0x64
10003c3e:	4c46      	ldr	r4, [pc, #280]	; (10003d58 <y64_x64+0x5c>)
10003c40:	663c      	str	r4, [r7, #96]	; 0x60
10003c42:	0c0e      	lsrs	r6, r1, #16
10003c44:	e7ff      	b.n	10003c46 <y64_x48+0x54>
10003c46:	e7ff      	b.n	10003c48 <y64_x48+0x56>
10003c48:	e7ff      	b.n	10003c4a <y64_x48+0x58>
10003c4a:	46c0      	nop			; (mov r8, r8)
10003c4c:	6f3c      	ldr	r4, [r7, #112]	; 0x70
10003c4e:	4366      	muls	r6, r4
10003c50:	0c36      	lsrs	r6, r6, #16
10003c52:	0377      	lsls	r7, r6, #13
10003c54:	46be      	mov	lr, r7
10003c56:	b297      	uxth	r7, r2
10003c58:	4377      	muls	r7, r6
10003c5a:	1bc0      	subs	r0, r0, r7
10003c5c:	d200      	bcs.n	10003c60 <y64_x48+0x6e>
10003c5e:	3901      	subs	r1, #1
10003c60:	1bc0      	subs	r0, r0, r7
10003c62:	d200      	bcs.n	10003c66 <y64_x48+0x74>
10003c64:	3901      	subs	r1, #1
10003c66:	b29f      	uxth	r7, r3
10003c68:	4377      	muls	r7, r6
10003c6a:	1bc9      	subs	r1, r1, r7
10003c6c:	1bc9      	subs	r1, r1, r7
10003c6e:	0c17      	lsrs	r7, r2, #16
10003c70:	4377      	muls	r7, r6
10003c72:	047e      	lsls	r6, r7, #17
10003c74:	0bff      	lsrs	r7, r7, #15
10003c76:	1b80      	subs	r0, r0, r6
10003c78:	41b9      	sbcs	r1, r7
10003c7a:	08ce      	lsrs	r6, r1, #3
10003c7c:	4366      	muls	r6, r4
10003c7e:	0c36      	lsrs	r6, r6, #16
10003c80:	2d0c      	cmp	r5, #12
10003c82:	db33      	blt.n	10003cec <last1>
10003c84:	44b6      	add	lr, r6
10003c86:	0b12      	lsrs	r2, r2, #12
10003c88:	051f      	lsls	r7, r3, #20
10003c8a:	433a      	orrs	r2, r7
10003c8c:	0b1b      	lsrs	r3, r3, #12
10003c8e:	b297      	uxth	r7, r2
10003c90:	4377      	muls	r7, r6
10003c92:	1bc0      	subs	r0, r0, r7
10003c94:	d200      	bcs.n	10003c98 <y64_x48+0xa6>
10003c96:	3901      	subs	r1, #1
10003c98:	b29f      	uxth	r7, r3
10003c9a:	4377      	muls	r7, r6
10003c9c:	1bc9      	subs	r1, r1, r7
10003c9e:	0c17      	lsrs	r7, r2, #16
10003ca0:	4377      	muls	r7, r6
10003ca2:	043e      	lsls	r6, r7, #16
10003ca4:	0c3f      	lsrs	r7, r7, #16
10003ca6:	1b80      	subs	r0, r0, r6
10003ca8:	41b9      	sbcs	r1, r7
10003caa:	0d86      	lsrs	r6, r0, #22
10003cac:	028f      	lsls	r7, r1, #10
10003cae:	433e      	orrs	r6, r7
10003cb0:	4366      	muls	r6, r4
10003cb2:	2729      	movs	r7, #41	; 0x29
10003cb4:	1b7f      	subs	r7, r7, r5
10003cb6:	40fe      	lsrs	r6, r7
10003cb8:	3d0c      	subs	r5, #12
10003cba:	4677      	mov	r7, lr
10003cbc:	40af      	lsls	r7, r5
10003cbe:	19bf      	adds	r7, r7, r6
10003cc0:	bc30      	pop	{r4, r5}
10003cc2:	b2a2      	uxth	r2, r4
10003cc4:	b2ab      	uxth	r3, r5
10003cc6:	4372      	muls	r2, r6
10003cc8:	4373      	muls	r3, r6
10003cca:	1a80      	subs	r0, r0, r2
10003ccc:	4199      	sbcs	r1, r3
10003cce:	0c22      	lsrs	r2, r4, #16
10003cd0:	4372      	muls	r2, r6
10003cd2:	0c13      	lsrs	r3, r2, #16
10003cd4:	0412      	lsls	r2, r2, #16
10003cd6:	1a80      	subs	r0, r0, r2
10003cd8:	4199      	sbcs	r1, r3
10003cda:	0002      	movs	r2, r0
10003cdc:	000b      	movs	r3, r1
10003cde:	3701      	adds	r7, #1
10003ce0:	1b00      	subs	r0, r0, r4
10003ce2:	41a9      	sbcs	r1, r5
10003ce4:	d2f9      	bcs.n	10003cda <y64_x48+0xe8>
10003ce6:	1e78      	subs	r0, r7, #1
10003ce8:	2100      	movs	r1, #0
10003cea:	bdf0      	pop	{r4, r5, r6, r7, pc}

10003cec <last1>:
10003cec:	270c      	movs	r7, #12
10003cee:	1b7f      	subs	r7, r7, r5
10003cf0:	40fe      	lsrs	r6, r7
10003cf2:	4677      	mov	r7, lr
10003cf4:	0b7f      	lsrs	r7, r7, #13
10003cf6:	40af      	lsls	r7, r5
10003cf8:	19ff      	adds	r7, r7, r7
10003cfa:	e7e0      	b.n	10003cbe <y64_x48+0xcc>

10003cfc <y64_x64>:
10003cfc:	2400      	movs	r4, #0
10003cfe:	1c5d      	adds	r5, r3, #1
10003d00:	d007      	beq.n	10003d12 <y64_x64+0x16>
10003d02:	4f14      	ldr	r7, [pc, #80]	; (10003d54 <y64_x64+0x58>)
10003d04:	667d      	str	r5, [r7, #100]	; 0x64
10003d06:	6639      	str	r1, [r7, #96]	; 0x60
10003d08:	e7ff      	b.n	10003d0a <y64_x64+0xe>
10003d0a:	e7ff      	b.n	10003d0c <y64_x64+0x10>
10003d0c:	e7ff      	b.n	10003d0e <y64_x64+0x12>
10003d0e:	e7ff      	b.n	10003d10 <y64_x64+0x14>
10003d10:	6f3c      	ldr	r4, [r7, #112]	; 0x70
10003d12:	b295      	uxth	r5, r2
10003d14:	b29e      	uxth	r6, r3
10003d16:	4365      	muls	r5, r4
10003d18:	4366      	muls	r6, r4
10003d1a:	1b40      	subs	r0, r0, r5
10003d1c:	41b1      	sbcs	r1, r6
10003d1e:	0c15      	lsrs	r5, r2, #16
10003d20:	0c1e      	lsrs	r6, r3, #16
10003d22:	4365      	muls	r5, r4
10003d24:	4366      	muls	r6, r4
10003d26:	0436      	lsls	r6, r6, #16
10003d28:	0c2f      	lsrs	r7, r5, #16
10003d2a:	433e      	orrs	r6, r7
10003d2c:	042d      	lsls	r5, r5, #16
10003d2e:	1b40      	subs	r0, r0, r5
10003d30:	41b1      	sbcs	r1, r6
10003d32:	4299      	cmp	r1, r3
10003d34:	d204      	bcs.n	10003d40 <y64_x64+0x44>
10003d36:	0002      	movs	r2, r0
10003d38:	000b      	movs	r3, r1
10003d3a:	0020      	movs	r0, r4
10003d3c:	2100      	movs	r1, #0
10003d3e:	bdf0      	pop	{r4, r5, r6, r7, pc}
10003d40:	d101      	bne.n	10003d46 <y64_x64+0x4a>
10003d42:	4290      	cmp	r0, r2
10003d44:	d3f7      	bcc.n	10003d36 <y64_x64+0x3a>
10003d46:	1a80      	subs	r0, r0, r2
10003d48:	4199      	sbcs	r1, r3
10003d4a:	3401      	adds	r4, #1
10003d4c:	4299      	cmp	r1, r3
10003d4e:	d3f2      	bcc.n	10003d36 <y64_x64+0x3a>
10003d50:	e7f6      	b.n	10003d40 <y64_x64+0x44>
10003d52:	0000      	.short	0x0000
10003d54:	d0000000 	.word	0xd0000000
10003d58:	ffffffff 	.word	0xffffffff

10003d5c <__wrap___aeabi_drsub>:
10003d5c:	4048      	eors	r0, r1
10003d5e:	4041      	eors	r1, r0
10003d60:	4048      	eors	r0, r1

10003d62 <__wrap___aeabi_dsub>:
10003d62:	b418      	push	{r3, r4}
10003d64:	4b13      	ldr	r3, [pc, #76]	; (10003db4 <__wrap___aeabi_dmul+0xa>)
10003d66:	685b      	ldr	r3, [r3, #4]
10003d68:	9301      	str	r3, [sp, #4]
10003d6a:	bd08      	pop	{r3, pc}

10003d6c <__wrap___aeabi_dadd>:
10003d6c:	b418      	push	{r3, r4}
10003d6e:	4b11      	ldr	r3, [pc, #68]	; (10003db4 <__wrap___aeabi_dmul+0xa>)
10003d70:	681b      	ldr	r3, [r3, #0]
10003d72:	9301      	str	r3, [sp, #4]
10003d74:	bd08      	pop	{r3, pc}

10003d76 <__wrap___aeabi_ddiv>:
10003d76:	4694      	mov	ip, r2
10003d78:	4a0f      	ldr	r2, [pc, #60]	; (10003db8 <__wrap___aeabi_dmul+0xe>)
10003d7a:	6f92      	ldr	r2, [r2, #120]	; 0x78
10003d7c:	0892      	lsrs	r2, r2, #2
10003d7e:	d205      	bcs.n	10003d8c <ddiv_save_state>
10003d80:	4662      	mov	r2, ip

10003d82 <ddiv_shim_call>:
10003d82:	b418      	push	{r3, r4}
10003d84:	4b0b      	ldr	r3, [pc, #44]	; (10003db4 <__wrap___aeabi_dmul+0xa>)
10003d86:	68db      	ldr	r3, [r3, #12]
10003d88:	9301      	str	r3, [sp, #4]
10003d8a:	bd08      	pop	{r3, pc}

10003d8c <ddiv_save_state>:
10003d8c:	4a0a      	ldr	r2, [pc, #40]	; (10003db8 <__wrap___aeabi_dmul+0xe>)
10003d8e:	b5f0      	push	{r4, r5, r6, r7, lr}
10003d90:	6e14      	ldr	r4, [r2, #96]	; 0x60
10003d92:	6e55      	ldr	r5, [r2, #100]	; 0x64
10003d94:	6f57      	ldr	r7, [r2, #116]	; 0x74
10003d96:	6f16      	ldr	r6, [r2, #112]	; 0x70
10003d98:	4662      	mov	r2, ip
10003d9a:	f7ff fff2 	bl	10003d82 <ddiv_shim_call>
10003d9e:	4a06      	ldr	r2, [pc, #24]	; (10003db8 <__wrap___aeabi_dmul+0xe>)
10003da0:	6614      	str	r4, [r2, #96]	; 0x60
10003da2:	6655      	str	r5, [r2, #100]	; 0x64
10003da4:	6757      	str	r7, [r2, #116]	; 0x74
10003da6:	6716      	str	r6, [r2, #112]	; 0x70
10003da8:	bdf0      	pop	{r4, r5, r6, r7, pc}

10003daa <__wrap___aeabi_dmul>:
10003daa:	b418      	push	{r3, r4}
10003dac:	4b01      	ldr	r3, [pc, #4]	; (10003db4 <__wrap___aeabi_dmul+0xa>)
10003dae:	689b      	ldr	r3, [r3, #8]
10003db0:	9301      	str	r3, [sp, #4]
10003db2:	bd08      	pop	{r3, pc}
10003db4:	2000181c 	.word	0x2000181c
10003db8:	d0000000 	.word	0xd0000000

10003dbc <__wrap___aeabi_cdrcmple>:
10003dbc:	b5ff      	push	{r0, r1, r2, r3, r4, r5, r6, r7, lr}
10003dbe:	4050      	eors	r0, r2
10003dc0:	4042      	eors	r2, r0
10003dc2:	4050      	eors	r0, r2
10003dc4:	4059      	eors	r1, r3
10003dc6:	404b      	eors	r3, r1
10003dc8:	4059      	eors	r1, r3
10003dca:	e000      	b.n	10003dce <__aeabi_dfcmple_guts>

10003dcc <__wrap___aeabi_cdcmpeq>:
10003dcc:	b5ff      	push	{r0, r1, r2, r3, r4, r5, r6, r7, lr}

10003dce <__aeabi_dfcmple_guts>:
10003dce:	4f15      	ldr	r7, [pc, #84]	; (10003e24 <__aeabi_dfcmple_guts+0x56>)
10003dd0:	004c      	lsls	r4, r1, #1
10003dd2:	0d64      	lsrs	r4, r4, #21
10003dd4:	d003      	beq.n	10003dde <__aeabi_dfcmple_guts+0x10>
10003dd6:	42bc      	cmp	r4, r7
10003dd8:	d104      	bne.n	10003de4 <__aeabi_dfcmple_guts+0x16>
10003dda:	030c      	lsls	r4, r1, #12
10003ddc:	d814      	bhi.n	10003e08 <__aeabi_dfcmple_guts+0x3a>
10003dde:	2000      	movs	r0, #0
10003de0:	0d09      	lsrs	r1, r1, #20
10003de2:	0509      	lsls	r1, r1, #20
10003de4:	005c      	lsls	r4, r3, #1
10003de6:	0d64      	lsrs	r4, r4, #21
10003de8:	d003      	beq.n	10003df2 <__aeabi_dfcmple_guts+0x24>
10003dea:	42bc      	cmp	r4, r7
10003dec:	d104      	bne.n	10003df8 <__aeabi_dfcmple_guts+0x2a>
10003dee:	031c      	lsls	r4, r3, #12
10003df0:	d80a      	bhi.n	10003e08 <__aeabi_dfcmple_guts+0x3a>
10003df2:	2200      	movs	r2, #0
10003df4:	0d1b      	lsrs	r3, r3, #20
10003df6:	051b      	lsls	r3, r3, #20
10003df8:	2601      	movs	r6, #1
10003dfa:	404b      	eors	r3, r1
10003dfc:	d409      	bmi.n	10003e12 <__aeabi_dfcmple_guts+0x44>
10003dfe:	404b      	eors	r3, r1
10003e00:	d503      	bpl.n	10003e0a <__aeabi_dfcmple_guts+0x3c>
10003e02:	428b      	cmp	r3, r1
10003e04:	d100      	bne.n	10003e08 <__aeabi_dfcmple_guts+0x3a>
10003e06:	4282      	cmp	r2, r0
10003e08:	bdff      	pop	{r0, r1, r2, r3, r4, r5, r6, r7, pc}
10003e0a:	4299      	cmp	r1, r3
10003e0c:	d1fc      	bne.n	10003e08 <__aeabi_dfcmple_guts+0x3a>
10003e0e:	4290      	cmp	r0, r2
10003e10:	bdff      	pop	{r0, r1, r2, r3, r4, r5, r6, r7, pc}
10003e12:	430b      	orrs	r3, r1
10003e14:	18db      	adds	r3, r3, r3
10003e16:	4303      	orrs	r3, r0
10003e18:	4313      	orrs	r3, r2
10003e1a:	d0f5      	beq.n	10003e08 <__aeabi_dfcmple_guts+0x3a>
10003e1c:	43c9      	mvns	r1, r1
10003e1e:	1849      	adds	r1, r1, r1
10003e20:	bdff      	pop	{r0, r1, r2, r3, r4, r5, r6, r7, pc}
10003e22:	0000      	.short	0x0000
10003e24:	000007ff 	.word	0x000007ff

10003e28 <__wrap___aeabi_dcmplt>:
10003e28:	b500      	push	{lr}
10003e2a:	f7ff ffcf 	bl	10003dcc <__wrap___aeabi_cdcmpeq>
10003e2e:	4180      	sbcs	r0, r0
10003e30:	bd00      	pop	{pc}
10003e32:	46c0      	nop			; (mov r8, r8)

10003e34 <__wrap___aeabi_dcmple>:
10003e34:	b500      	push	{lr}
10003e36:	f7ff ffc9 	bl	10003dcc <__wrap___aeabi_cdcmpeq>
10003e3a:	d901      	bls.n	10003e40 <__wrap___aeabi_dcmple+0xc>
10003e3c:	2000      	movs	r0, #0
10003e3e:	bd00      	pop	{pc}
10003e40:	2001      	movs	r0, #1
10003e42:	bd00      	pop	{pc}

10003e44 <__wrap___aeabi_dcmpge>:
10003e44:	b500      	push	{lr}
10003e46:	f7ff ffb9 	bl	10003dbc <__wrap___aeabi_cdrcmple>
10003e4a:	d901      	bls.n	10003e50 <__wrap___aeabi_dcmpge+0xc>
10003e4c:	2000      	movs	r0, #0
10003e4e:	bd00      	pop	{pc}
10003e50:	2001      	movs	r0, #1
10003e52:	bd00      	pop	{pc}

10003e54 <__wrap___aeabi_dcmpgt>:
10003e54:	b500      	push	{lr}
10003e56:	f7ff ffb1 	bl	10003dbc <__wrap___aeabi_cdrcmple>
10003e5a:	4180      	sbcs	r0, r0
10003e5c:	bd00      	pop	{pc}

10003e5e <__wrap___aeabi_dcmpun>:
10003e5e:	2001      	movs	r0, #1
10003e60:	0540      	lsls	r0, r0, #21
10003e62:	004a      	lsls	r2, r1, #1
10003e64:	1812      	adds	r2, r2, r0
10003e66:	d804      	bhi.n	10003e72 <__wrap___aeabi_dcmpun+0x14>
10003e68:	005a      	lsls	r2, r3, #1
10003e6a:	1812      	adds	r2, r2, r0
10003e6c:	d801      	bhi.n	10003e72 <__wrap___aeabi_dcmpun+0x14>
10003e6e:	2000      	movs	r0, #0
10003e70:	4770      	bx	lr
10003e72:	2001      	movs	r0, #1
10003e74:	4770      	bx	lr
10003e76:	2000      	movs	r0, #0
10003e78:	4770      	bx	lr
	...

10003e7c <__wrap___aeabi_ui2d>:
10003e7c:	2100      	movs	r1, #0
10003e7e:	2800      	cmp	r0, #0
10003e80:	d105      	bne.n	10003e8e <__wrap___aeabi_i2d+0xa>
10003e82:	4770      	bx	lr

10003e84 <__wrap___aeabi_i2d>:
10003e84:	17c1      	asrs	r1, r0, #31
10003e86:	4048      	eors	r0, r1
10003e88:	1a40      	subs	r0, r0, r1
10003e8a:	d0fa      	beq.n	10003e82 <__wrap___aeabi_ui2d+0x6>
10003e8c:	07c9      	lsls	r1, r1, #31
10003e8e:	b513      	push	{r0, r1, r4, lr}
10003e90:	4b06      	ldr	r3, [pc, #24]	; (10003eac <__wrap___aeabi_i2d+0x28>)
10003e92:	681b      	ldr	r3, [r3, #0]
10003e94:	4798      	blx	r3
10003e96:	bc0c      	pop	{r2, r3}
10003e98:	1c44      	adds	r4, r0, #1
10003e9a:	40a2      	lsls	r2, r4
10003e9c:	0510      	lsls	r0, r2, #20
10003e9e:	0b12      	lsrs	r2, r2, #12
10003ea0:	4903      	ldr	r1, [pc, #12]	; (10003eb0 <__wrap___aeabi_i2d+0x2c>)
10003ea2:	1b09      	subs	r1, r1, r4
10003ea4:	0509      	lsls	r1, r1, #20
10003ea6:	4319      	orrs	r1, r3
10003ea8:	4311      	orrs	r1, r2
10003eaa:	bd10      	pop	{r4, pc}
10003eac:	2000191c 	.word	0x2000191c
10003eb0:	0000041f 	.word	0x0000041f

10003eb4 <__wrap___aeabi_d2iz>:
10003eb4:	b510      	push	{r4, lr}
10003eb6:	004c      	lsls	r4, r1, #1
10003eb8:	0d62      	lsrs	r2, r4, #21
10003eba:	2380      	movs	r3, #128	; 0x80
10003ebc:	18d2      	adds	r2, r2, r3
10003ebe:	00db      	lsls	r3, r3, #3
10003ec0:	1ad2      	subs	r2, r2, r3
10003ec2:	055b      	lsls	r3, r3, #21
10003ec4:	2a7e      	cmp	r2, #126	; 0x7e
10003ec6:	dd10      	ble.n	10003eea <__wrap___aeabi_d2iz+0x36>
10003ec8:	3a9e      	subs	r2, #158	; 0x9e
10003eca:	da13      	bge.n	10003ef4 <__wrap___aeabi_d2iz+0x40>
10003ecc:	17cc      	asrs	r4, r1, #31
10003ece:	0309      	lsls	r1, r1, #12
10003ed0:	0849      	lsrs	r1, r1, #1
10003ed2:	4319      	orrs	r1, r3
10003ed4:	4252      	negs	r2, r2
10003ed6:	40d1      	lsrs	r1, r2
10003ed8:	0064      	lsls	r4, r4, #1
10003eda:	3401      	adds	r4, #1
10003edc:	3215      	adds	r2, #21
10003ede:	2a20      	cmp	r2, #32
10003ee0:	da05      	bge.n	10003eee <__wrap___aeabi_d2iz+0x3a>
10003ee2:	40d0      	lsrs	r0, r2
10003ee4:	4308      	orrs	r0, r1
10003ee6:	4360      	muls	r0, r4
10003ee8:	bd10      	pop	{r4, pc}
10003eea:	2000      	movs	r0, #0
10003eec:	bd10      	pop	{r4, pc}
10003eee:	4608      	mov	r0, r1
10003ef0:	4360      	muls	r0, r4
10003ef2:	bd10      	pop	{r4, pc}
10003ef4:	0fc8      	lsrs	r0, r1, #31
10003ef6:	18c0      	adds	r0, r0, r3
10003ef8:	3801      	subs	r0, #1
10003efa:	bd10      	pop	{r4, pc}

10003efc <__wrap___aeabi_d2uiz>:
10003efc:	b418      	push	{r3, r4}
10003efe:	4b02      	ldr	r3, [pc, #8]	; (10003f08 <__wrap___aeabi_d2uiz+0xc>)
10003f00:	6a5b      	ldr	r3, [r3, #36]	; 0x24
10003f02:	9301      	str	r3, [sp, #4]
10003f04:	bd08      	pop	{r3, pc}
10003f06:	0000      	.short	0x0000
10003f08:	2000181c 	.word	0x2000181c

10003f0c <__wrap___aeabi_d2f>:
10003f0c:	b418      	push	{r3, r4}
10003f0e:	4b02      	ldr	r3, [pc, #8]	; (10003f18 <__wrap___aeabi_d2f+0xc>)
10003f10:	6fdb      	ldr	r3, [r3, #124]	; 0x7c
10003f12:	9301      	str	r3, [sp, #4]
10003f14:	bd08      	pop	{r3, pc}
10003f16:	0000      	.short	0x0000
10003f18:	2000181c 	.word	0x2000181c

10003f1c <missing_double_func_shim>:
10003f1c:	b510      	push	{r4, lr}
10003f1e:	4801      	ldr	r0, [pc, #4]	; (10003f24 <missing_double_func_shim+0x8>)
10003f20:	f7fe fbd0 	bl	100026c4 <panic>
10003f24:	10007a78 	.word	0x10007a78

10003f28 <__aeabi_double_init>:
10003f28:	b570      	push	{r4, r5, r6, lr}
10003f2a:	2313      	movs	r3, #19
10003f2c:	781c      	ldrb	r4, [r3, #0]
10003f2e:	2c01      	cmp	r4, #1
10003f30:	d014      	beq.n	10003f5c <__aeabi_double_init+0x34>
10003f32:	2c01      	cmp	r4, #1
10003f34:	dc14      	bgt.n	10003f60 <__aeabi_double_init+0x38>
10003f36:	2c02      	cmp	r4, #2
10003f38:	dc02      	bgt.n	10003f40 <__aeabi_double_init+0x18>
10003f3a:	4a1f      	ldr	r2, [pc, #124]	; (10003fb8 <__aeabi_double_init+0x90>)
10003f3c:	4b1f      	ldr	r3, [pc, #124]	; (10003fbc <__aeabi_double_init+0x94>)
10003f3e:	649a      	str	r2, [r3, #72]	; 0x48
10003f40:	481f      	ldr	r0, [pc, #124]	; (10003fc0 <__aeabi_double_init+0x98>)
10003f42:	f7ff fc7f 	bl	10003844 <rom_func_lookup>
10003f46:	4b1f      	ldr	r3, [pc, #124]	; (10003fc4 <__aeabi_double_init+0x9c>)
10003f48:	6018      	str	r0, [r3, #0]
10003f4a:	bd70      	pop	{r4, r5, r6, pc}
10003f4c:	0099      	lsls	r1, r3, #2
10003f4e:	481e      	ldr	r0, [pc, #120]	; (10003fc8 <__aeabi_double_init+0xa0>)
10003f50:	4a1a      	ldr	r2, [pc, #104]	; (10003fbc <__aeabi_double_init+0x94>)
10003f52:	5088      	str	r0, [r1, r2]
10003f54:	3301      	adds	r3, #1
10003f56:	2b1f      	cmp	r3, #31
10003f58:	d9f8      	bls.n	10003f4c <__aeabi_double_init+0x24>
10003f5a:	e7ea      	b.n	10003f32 <__aeabi_double_init+0xa>
10003f5c:	2300      	movs	r3, #0
10003f5e:	e7fa      	b.n	10003f56 <__aeabi_double_init+0x2e>
10003f60:	481a      	ldr	r0, [pc, #104]	; (10003fcc <__aeabi_double_init+0xa4>)
10003f62:	f7ff fc77 	bl	10003854 <rom_data_lookup>
10003f66:	0005      	movs	r5, r0
10003f68:	4819      	ldr	r0, [pc, #100]	; (10003fd0 <__aeabi_double_init+0xa8>)
10003f6a:	f7ff fc73 	bl	10003854 <rom_data_lookup>
10003f6e:	3802      	subs	r0, #2
10003f70:	7803      	ldrb	r3, [r0, #0]
10003f72:	009b      	lsls	r3, r3, #2
10003f74:	2b7f      	cmp	r3, #127	; 0x7f
10003f76:	dd19      	ble.n	10003fac <__aeabi_double_init+0x84>
10003f78:	2280      	movs	r2, #128	; 0x80
10003f7a:	0029      	movs	r1, r5
10003f7c:	480f      	ldr	r0, [pc, #60]	; (10003fbc <__aeabi_double_init+0x94>)
10003f7e:	f000 f903 	bl	10004188 <__wrap___aeabi_memcpy>
10003f82:	2c02      	cmp	r4, #2
10003f84:	d1d7      	bne.n	10003f36 <__aeabi_double_init+0xe>
10003f86:	4b13      	ldr	r3, [pc, #76]	; (10003fd4 <__aeabi_double_init+0xac>)
10003f88:	881a      	ldrh	r2, [r3, #0]
10003f8a:	23b5      	movs	r3, #181	; 0xb5
10003f8c:	021b      	lsls	r3, r3, #8
10003f8e:	429a      	cmp	r2, r3
10003f90:	d109      	bne.n	10003fa6 <__aeabi_double_init+0x7e>
10003f92:	4b11      	ldr	r3, [pc, #68]	; (10003fd8 <__aeabi_double_init+0xb0>)
10003f94:	881a      	ldrh	r2, [r3, #0]
10003f96:	4b11      	ldr	r3, [pc, #68]	; (10003fdc <__aeabi_double_init+0xb4>)
10003f98:	429a      	cmp	r2, r3
10003f9a:	d104      	bne.n	10003fa6 <__aeabi_double_init+0x7e>
10003f9c:	4b10      	ldr	r3, [pc, #64]	; (10003fe0 <__aeabi_double_init+0xb8>)
10003f9e:	881a      	ldrh	r2, [r3, #0]
10003fa0:	4b10      	ldr	r3, [pc, #64]	; (10003fe4 <__aeabi_double_init+0xbc>)
10003fa2:	429a      	cmp	r2, r3
10003fa4:	d0c7      	beq.n	10003f36 <__aeabi_double_init+0xe>
10003fa6:	2000      	movs	r0, #0
10003fa8:	f7fe fb8c 	bl	100026c4 <panic>
10003fac:	4b0e      	ldr	r3, [pc, #56]	; (10003fe8 <__aeabi_double_init+0xc0>)
10003fae:	4a0f      	ldr	r2, [pc, #60]	; (10003fec <__aeabi_double_init+0xc4>)
10003fb0:	2132      	movs	r1, #50	; 0x32
10003fb2:	480f      	ldr	r0, [pc, #60]	; (10003ff0 <__aeabi_double_init+0xc8>)
10003fb4:	f7fe faec 	bl	10002590 <__assert_func>
10003fb8:	10003ff5 	.word	0x10003ff5
10003fbc:	2000181c 	.word	0x2000181c
10003fc0:	0000334c 	.word	0x0000334c
10003fc4:	2000191c 	.word	0x2000191c
10003fc8:	10003f1d 	.word	0x10003f1d
10003fcc:	00004453 	.word	0x00004453
10003fd0:	00004653 	.word	0x00004653
10003fd4:	00003854 	.word	0x00003854
10003fd8:	000038d8 	.word	0x000038d8
10003fdc:	00004649 	.word	0x00004649
10003fe0:	0000389c 	.word	0x0000389c
10003fe4:	00004659 	.word	0x00004659
10003fe8:	10007a90 	.word	0x10007a90
10003fec:	10007b48 	.word	0x10007b48
10003ff0:	10007ae4 	.word	0x10007ae4

10003ff4 <double_table_shim_on_use_helper>:
10003ff4:	b507      	push	{r0, r1, r2, lr}
10003ff6:	4660      	mov	r0, ip
10003ff8:	2800      	cmp	r0, #0
10003ffa:	d100      	bne.n	10003ffe <double_table_shim_on_use_helper+0xa>
10003ffc:	be00      	bkpt	0x0000
10003ffe:	8801      	ldrh	r1, [r0, #0]
10004000:	0a0a      	lsrs	r2, r1, #8
10004002:	3002      	adds	r0, #2
10004004:	2adf      	cmp	r2, #223	; 0xdf
10004006:	d1fa      	bne.n	10003ffe <double_table_shim_on_use_helper+0xa>
10004008:	b2c9      	uxtb	r1, r1
1000400a:	0882      	lsrs	r2, r0, #2
1000400c:	d304      	bcc.n	10004018 <double_table_shim_on_use_helper+0x24>
1000400e:	8802      	ldrh	r2, [r0, #0]
10004010:	8840      	ldrh	r0, [r0, #2]
10004012:	0400      	lsls	r0, r0, #16
10004014:	4310      	orrs	r0, r2
10004016:	e000      	b.n	1000401a <double_table_shim_on_use_helper+0x26>
10004018:	6800      	ldr	r0, [r0, #0]
1000401a:	4a02      	ldr	r2, [pc, #8]	; (10004024 <double_table_shim_on_use_helper+0x30>)
1000401c:	5050      	str	r0, [r2, r1]
1000401e:	9003      	str	r0, [sp, #12]
10004020:	bd07      	pop	{r0, r1, r2, pc}
10004022:	0000      	.short	0x0000
10004024:	2000181c 	.word	0x2000181c

10004028 <__wrap___aeabi_lmul>:
10004028:	4351      	muls	r1, r2
1000402a:	4343      	muls	r3, r0
1000402c:	18c9      	adds	r1, r1, r3
1000402e:	468c      	mov	ip, r1
10004030:	0c11      	lsrs	r1, r2, #16
10004032:	b283      	uxth	r3, r0
10004034:	434b      	muls	r3, r1
10004036:	b410      	push	{r4}
10004038:	0c04      	lsrs	r4, r0, #16
1000403a:	4361      	muls	r1, r4
1000403c:	b292      	uxth	r2, r2
1000403e:	b280      	uxth	r0, r0
10004040:	4350      	muls	r0, r2
10004042:	4362      	muls	r2, r4
10004044:	041c      	lsls	r4, r3, #16
10004046:	0c1b      	lsrs	r3, r3, #16
10004048:	1900      	adds	r0, r0, r4
1000404a:	bc10      	pop	{r4}
1000404c:	4159      	adcs	r1, r3
1000404e:	0413      	lsls	r3, r2, #16
10004050:	0c12      	lsrs	r2, r2, #16
10004052:	18c0      	adds	r0, r0, r3
10004054:	4151      	adcs	r1, r2
10004056:	4461      	add	r1, ip
10004058:	4770      	bx	lr
	...

1000405c <__wrap___aeabi_cfrcmple>:
1000405c:	b507      	push	{r0, r1, r2, lr}
1000405e:	4048      	eors	r0, r1
10004060:	4041      	eors	r1, r0
10004062:	4048      	eors	r0, r1
10004064:	e001      	b.n	1000406a <__aeabi_cfcmple_guts>
10004066:	46c0      	nop			; (mov r8, r8)

10004068 <__wrap___aeabi_cfcmpeq>:
10004068:	b507      	push	{r0, r1, r2, lr}

1000406a <__aeabi_cfcmple_guts>:
1000406a:	0042      	lsls	r2, r0, #1
1000406c:	0e12      	lsrs	r2, r2, #24
1000406e:	d003      	beq.n	10004078 <__aeabi_cfcmple_guts+0xe>
10004070:	2aff      	cmp	r2, #255	; 0xff
10004072:	d103      	bne.n	1000407c <__aeabi_cfcmple_guts+0x12>
10004074:	0242      	lsls	r2, r0, #9
10004076:	d818      	bhi.n	100040aa <__aeabi_cfcmple_guts+0x40>
10004078:	0dc0      	lsrs	r0, r0, #23
1000407a:	05c0      	lsls	r0, r0, #23
1000407c:	004a      	lsls	r2, r1, #1
1000407e:	0e12      	lsrs	r2, r2, #24
10004080:	d003      	beq.n	1000408a <__aeabi_cfcmple_guts+0x20>
10004082:	2aff      	cmp	r2, #255	; 0xff
10004084:	d103      	bne.n	1000408e <__aeabi_cfcmple_guts+0x24>
10004086:	024a      	lsls	r2, r1, #9
10004088:	d80f      	bhi.n	100040aa <__aeabi_cfcmple_guts+0x40>
1000408a:	0dc9      	lsrs	r1, r1, #23
1000408c:	05c9      	lsls	r1, r1, #23
1000408e:	2201      	movs	r2, #1
10004090:	4041      	eors	r1, r0
10004092:	d405      	bmi.n	100040a0 <__aeabi_cfcmple_guts+0x36>
10004094:	4041      	eors	r1, r0
10004096:	d501      	bpl.n	1000409c <__aeabi_cfcmple_guts+0x32>
10004098:	4281      	cmp	r1, r0
1000409a:	bd07      	pop	{r0, r1, r2, pc}
1000409c:	4288      	cmp	r0, r1
1000409e:	bd07      	pop	{r0, r1, r2, pc}
100040a0:	4301      	orrs	r1, r0
100040a2:	1849      	adds	r1, r1, r1
100040a4:	d001      	beq.n	100040aa <__aeabi_cfcmple_guts+0x40>
100040a6:	43c0      	mvns	r0, r0
100040a8:	1800      	adds	r0, r0, r0
100040aa:	bd07      	pop	{r0, r1, r2, pc}

100040ac <__wrap___aeabi_fcmple>:
100040ac:	b500      	push	{lr}
100040ae:	f7ff ffdb 	bl	10004068 <__wrap___aeabi_cfcmpeq>
100040b2:	d901      	bls.n	100040b8 <__wrap___aeabi_fcmple+0xc>
100040b4:	2000      	movs	r0, #0
100040b6:	bd00      	pop	{pc}
100040b8:	2001      	movs	r0, #1
100040ba:	bd00      	pop	{pc}

100040bc <__wrap___aeabi_fcmpge>:
100040bc:	b500      	push	{lr}
100040be:	f7ff ffcd 	bl	1000405c <__wrap___aeabi_cfrcmple>
100040c2:	d901      	bls.n	100040c8 <__wrap___aeabi_fcmpge+0xc>
100040c4:	2000      	movs	r0, #0
100040c6:	bd00      	pop	{pc}
100040c8:	2001      	movs	r0, #1
100040ca:	bd00      	pop	{pc}

100040cc <__wrap___aeabi_f2d>:
100040cc:	4b01      	ldr	r3, [pc, #4]	; (100040d4 <__wrap___aeabi_f2d+0x8>)
100040ce:	6fdb      	ldr	r3, [r3, #124]	; 0x7c
100040d0:	4718      	bx	r3
100040d2:	0000      	.short	0x0000
100040d4:	20001920 	.word	0x20001920

100040d8 <missing_float_func_shim>:
100040d8:	b510      	push	{r4, lr}
100040da:	4801      	ldr	r0, [pc, #4]	; (100040e0 <missing_float_func_shim+0x8>)
100040dc:	f7fe faf2 	bl	100026c4 <panic>
100040e0:	10007758 	.word	0x10007758

100040e4 <__aeabi_float_init>:
100040e4:	b570      	push	{r4, r5, r6, lr}
100040e6:	2313      	movs	r3, #19
100040e8:	781e      	ldrb	r6, [r3, #0]
100040ea:	4818      	ldr	r0, [pc, #96]	; (1000414c <__aeabi_float_init+0x68>)
100040ec:	f7ff fbb2 	bl	10003854 <rom_data_lookup>
100040f0:	0005      	movs	r5, r0
100040f2:	2e01      	cmp	r6, #1
100040f4:	d011      	beq.n	1000411a <__aeabi_float_init+0x36>
100040f6:	2e01      	cmp	r6, #1
100040f8:	dd09      	ble.n	1000410e <__aeabi_float_init+0x2a>
100040fa:	1eab      	subs	r3, r5, #2
100040fc:	781b      	ldrb	r3, [r3, #0]
100040fe:	009b      	lsls	r3, r3, #2
10004100:	2b7f      	cmp	r3, #127	; 0x7f
10004102:	dd1d      	ble.n	10004140 <__aeabi_float_init+0x5c>
10004104:	2280      	movs	r2, #128	; 0x80
10004106:	0029      	movs	r1, r5
10004108:	4811      	ldr	r0, [pc, #68]	; (10004150 <__aeabi_float_init+0x6c>)
1000410a:	f000 f83d 	bl	10004188 <__wrap___aeabi_memcpy>
1000410e:	4811      	ldr	r0, [pc, #68]	; (10004154 <__aeabi_float_init+0x70>)
10004110:	f7ff fb98 	bl	10003844 <rom_func_lookup>
10004114:	4b10      	ldr	r3, [pc, #64]	; (10004158 <__aeabi_float_init+0x74>)
10004116:	6018      	str	r0, [r3, #0]
10004118:	bd70      	pop	{r4, r5, r6, pc}
1000411a:	2254      	movs	r2, #84	; 0x54
1000411c:	0001      	movs	r1, r0
1000411e:	480c      	ldr	r0, [pc, #48]	; (10004150 <__aeabi_float_init+0x6c>)
10004120:	f000 f832 	bl	10004188 <__wrap___aeabi_memcpy>
10004124:	2300      	movs	r3, #0
10004126:	e000      	b.n	1000412a <__aeabi_float_init+0x46>
10004128:	3301      	adds	r3, #1
1000412a:	2b1f      	cmp	r3, #31
1000412c:	d8e3      	bhi.n	100040f6 <__aeabi_float_init+0x12>
1000412e:	009a      	lsls	r2, r3, #2
10004130:	4c07      	ldr	r4, [pc, #28]	; (10004150 <__aeabi_float_init+0x6c>)
10004132:	5912      	ldr	r2, [r2, r4]
10004134:	2a00      	cmp	r2, #0
10004136:	d1f7      	bne.n	10004128 <__aeabi_float_init+0x44>
10004138:	009a      	lsls	r2, r3, #2
1000413a:	4808      	ldr	r0, [pc, #32]	; (1000415c <__aeabi_float_init+0x78>)
1000413c:	5110      	str	r0, [r2, r4]
1000413e:	e7f3      	b.n	10004128 <__aeabi_float_init+0x44>
10004140:	4b07      	ldr	r3, [pc, #28]	; (10004160 <__aeabi_float_init+0x7c>)
10004142:	4a08      	ldr	r2, [pc, #32]	; (10004164 <__aeabi_float_init+0x80>)
10004144:	2142      	movs	r1, #66	; 0x42
10004146:	4808      	ldr	r0, [pc, #32]	; (10004168 <__aeabi_float_init+0x84>)
10004148:	f7fe fa22 	bl	10002590 <__assert_func>
1000414c:	00004653 	.word	0x00004653
10004150:	20001920 	.word	0x20001920
10004154:	0000334c 	.word	0x0000334c
10004158:	2000191c 	.word	0x2000191c
1000415c:	100040d9 	.word	0x100040d9
10004160:	10007b5c 	.word	0x10007b5c
10004164:	10007bf4 	.word	0x10007bf4
10004168:	10007b90 	.word	0x10007b90

1000416c <__aeabi_mem_init>:
1000416c:	4801      	ldr	r0, [pc, #4]	; (10004174 <__aeabi_mem_init+0x8>)
1000416e:	2104      	movs	r1, #4
10004170:	4b01      	ldr	r3, [pc, #4]	; (10004178 <__aeabi_mem_init+0xc>)
10004172:	4718      	bx	r3
10004174:	20000c40 	.word	0x20000c40
10004178:	10003865 	.word	0x10003865

1000417c <__wrap_memset>:
1000417c:	4b01      	ldr	r3, [pc, #4]	; (10004184 <__wrap_memset+0x8>)
1000417e:	681b      	ldr	r3, [r3, #0]
10004180:	4718      	bx	r3
10004182:	0000      	.short	0x0000
10004184:	20000c40 	.word	0x20000c40

10004188 <__wrap___aeabi_memcpy>:
10004188:	4b01      	ldr	r3, [pc, #4]	; (10004190 <__wrap___aeabi_memcpy+0x8>)
1000418a:	685b      	ldr	r3, [r3, #4]
1000418c:	4718      	bx	r3
1000418e:	0000      	.short	0x0000
10004190:	20000c40 	.word	0x20000c40

10004194 <stdio_out_chars_no_crlf>:
10004194:	b510      	push	{r4, lr}
10004196:	0003      	movs	r3, r0
10004198:	0008      	movs	r0, r1
1000419a:	0011      	movs	r1, r2
1000419c:	681b      	ldr	r3, [r3, #0]
1000419e:	4798      	blx	r3
100041a0:	bd10      	pop	{r4, pc}
	...

100041a4 <stdio_out_chars_crlf>:
100041a4:	b5f8      	push	{r3, r4, r5, r6, r7, lr}
100041a6:	0007      	movs	r7, r0
100041a8:	000d      	movs	r5, r1
100041aa:	0016      	movs	r6, r2
100041ac:	7d43      	ldrb	r3, [r0, #21]
100041ae:	2b00      	cmp	r3, #0
100041b0:	d002      	beq.n	100041b8 <stdio_out_chars_crlf+0x14>
100041b2:	2400      	movs	r4, #0
100041b4:	2000      	movs	r0, #0
100041b6:	e00c      	b.n	100041d2 <stdio_out_chars_crlf+0x2e>
100041b8:	6803      	ldr	r3, [r0, #0]
100041ba:	0011      	movs	r1, r2
100041bc:	0028      	movs	r0, r5
100041be:	4798      	blx	r3
100041c0:	e02d      	b.n	1000421e <stdio_out_chars_crlf+0x7a>
100041c2:	7d3b      	ldrb	r3, [r7, #20]
100041c4:	e010      	b.n	100041e8 <stdio_out_chars_crlf+0x44>
100041c6:	2102      	movs	r1, #2
100041c8:	4815      	ldr	r0, [pc, #84]	; (10004220 <stdio_out_chars_crlf+0x7c>)
100041ca:	683b      	ldr	r3, [r7, #0]
100041cc:	4798      	blx	r3
100041ce:	1c60      	adds	r0, r4, #1
100041d0:	3401      	adds	r4, #1
100041d2:	42b4      	cmp	r4, r6
100041d4:	da14      	bge.n	10004200 <stdio_out_chars_crlf+0x5c>
100041d6:	2c00      	cmp	r4, #0
100041d8:	ddf3      	ble.n	100041c2 <stdio_out_chars_crlf+0x1e>
100041da:	192b      	adds	r3, r5, r4
100041dc:	3b01      	subs	r3, #1
100041de:	781b      	ldrb	r3, [r3, #0]
100041e0:	3b0d      	subs	r3, #13
100041e2:	425a      	negs	r2, r3
100041e4:	4153      	adcs	r3, r2
100041e6:	b2db      	uxtb	r3, r3
100041e8:	5d2a      	ldrb	r2, [r5, r4]
100041ea:	2a0a      	cmp	r2, #10
100041ec:	d1f0      	bne.n	100041d0 <stdio_out_chars_crlf+0x2c>
100041ee:	2b00      	cmp	r3, #0
100041f0:	d1ee      	bne.n	100041d0 <stdio_out_chars_crlf+0x2c>
100041f2:	42a0      	cmp	r0, r4
100041f4:	dae7      	bge.n	100041c6 <stdio_out_chars_crlf+0x22>
100041f6:	1a21      	subs	r1, r4, r0
100041f8:	1828      	adds	r0, r5, r0
100041fa:	683b      	ldr	r3, [r7, #0]
100041fc:	4798      	blx	r3
100041fe:	e7e2      	b.n	100041c6 <stdio_out_chars_crlf+0x22>
10004200:	42b0      	cmp	r0, r6
10004202:	da03      	bge.n	1000420c <stdio_out_chars_crlf+0x68>
10004204:	1a31      	subs	r1, r6, r0
10004206:	1828      	adds	r0, r5, r0
10004208:	683b      	ldr	r3, [r7, #0]
1000420a:	4798      	blx	r3
1000420c:	2e00      	cmp	r6, #0
1000420e:	dd06      	ble.n	1000421e <stdio_out_chars_crlf+0x7a>
10004210:	19ad      	adds	r5, r5, r6
10004212:	3d01      	subs	r5, #1
10004214:	782b      	ldrb	r3, [r5, #0]
10004216:	3b0d      	subs	r3, #13
10004218:	425a      	negs	r2, r3
1000421a:	4153      	adcs	r3, r2
1000421c:	753b      	strb	r3, [r7, #20]
1000421e:	bdf8      	pop	{r3, r4, r5, r6, r7, pc}
10004220:	10007c80 	.word	0x10007c80

10004224 <stdio_stack_buffer_flush>:
10004224:	b570      	push	{r4, r5, r6, lr}
10004226:	0005      	movs	r5, r0
10004228:	6803      	ldr	r3, [r0, #0]
1000422a:	2b00      	cmp	r3, #0
1000422c:	d016      	beq.n	1000425c <stdio_stack_buffer_flush+0x38>
1000422e:	4b0c      	ldr	r3, [pc, #48]	; (10004260 <stdio_stack_buffer_flush+0x3c>)
10004230:	681c      	ldr	r4, [r3, #0]
10004232:	e005      	b.n	10004240 <stdio_stack_buffer_flush+0x1c>
10004234:	0029      	movs	r1, r5
10004236:	c904      	ldmia	r1!, {r2}
10004238:	0020      	movs	r0, r4
1000423a:	f7ff ffb3 	bl	100041a4 <stdio_out_chars_crlf>
1000423e:	6924      	ldr	r4, [r4, #16]
10004240:	2c00      	cmp	r4, #0
10004242:	d009      	beq.n	10004258 <stdio_stack_buffer_flush+0x34>
10004244:	6823      	ldr	r3, [r4, #0]
10004246:	2b00      	cmp	r3, #0
10004248:	d0f9      	beq.n	1000423e <stdio_stack_buffer_flush+0x1a>
1000424a:	4b06      	ldr	r3, [pc, #24]	; (10004264 <stdio_stack_buffer_flush+0x40>)
1000424c:	681b      	ldr	r3, [r3, #0]
1000424e:	2b00      	cmp	r3, #0
10004250:	d0f0      	beq.n	10004234 <stdio_stack_buffer_flush+0x10>
10004252:	42a3      	cmp	r3, r4
10004254:	d1f3      	bne.n	1000423e <stdio_stack_buffer_flush+0x1a>
10004256:	e7ed      	b.n	10004234 <stdio_stack_buffer_flush+0x10>
10004258:	2300      	movs	r3, #0
1000425a:	602b      	str	r3, [r5, #0]
1000425c:	bd70      	pop	{r4, r5, r6, pc}
1000425e:	46c0      	nop			; (mov r8, r8)
10004260:	200013d4 	.word	0x200013d4
10004264:	200013e0 	.word	0x200013e0

10004268 <stdio_buffered_printer>:
10004268:	b570      	push	{r4, r5, r6, lr}
1000426a:	0005      	movs	r5, r0
1000426c:	000c      	movs	r4, r1
1000426e:	680b      	ldr	r3, [r1, #0]
10004270:	2b80      	cmp	r3, #128	; 0x80
10004272:	d005      	beq.n	10004280 <stdio_buffered_printer+0x18>
10004274:	6821      	ldr	r1, [r4, #0]
10004276:	1c4b      	adds	r3, r1, #1
10004278:	6023      	str	r3, [r4, #0]
1000427a:	1864      	adds	r4, r4, r1
1000427c:	7125      	strb	r5, [r4, #4]
1000427e:	bd70      	pop	{r4, r5, r6, pc}
10004280:	0008      	movs	r0, r1
10004282:	f7ff ffcf 	bl	10004224 <stdio_stack_buffer_flush>
10004286:	e7f5      	b.n	10004274 <stdio_buffered_printer+0xc>

10004288 <stdout_serialize_begin>:
10004288:	b510      	push	{r4, lr}
1000428a:	f7fd fc59 	bl	10001b40 <time_us_64>
1000428e:	0002      	movs	r2, r0
10004290:	1e0b      	subs	r3, r1, #0
10004292:	db0b      	blt.n	100042ac <stdout_serialize_begin+0x24>
10004294:	480d      	ldr	r0, [pc, #52]	; (100042cc <stdout_serialize_begin+0x44>)
10004296:	2100      	movs	r1, #0
10004298:	1812      	adds	r2, r2, r0
1000429a:	414b      	adcs	r3, r1
1000429c:	2b00      	cmp	r3, #0
1000429e:	db0b      	blt.n	100042b8 <stdout_serialize_begin+0x30>
100042a0:	2b00      	cmp	r3, #0
100042a2:	db0d      	blt.n	100042c0 <stdout_serialize_begin+0x38>
100042a4:	480a      	ldr	r0, [pc, #40]	; (100042d0 <stdout_serialize_begin+0x48>)
100042a6:	f002 fc67 	bl	10006b78 <__mutex_try_enter_block_until_veneer>
100042aa:	bd10      	pop	{r4, pc}
100042ac:	4b09      	ldr	r3, [pc, #36]	; (100042d4 <stdout_serialize_begin+0x4c>)
100042ae:	4a0a      	ldr	r2, [pc, #40]	; (100042d8 <stdout_serialize_begin+0x50>)
100042b0:	213f      	movs	r1, #63	; 0x3f
100042b2:	480a      	ldr	r0, [pc, #40]	; (100042dc <stdout_serialize_begin+0x54>)
100042b4:	f7fe f96c 	bl	10002590 <__assert_func>
100042b8:	2201      	movs	r2, #1
100042ba:	4252      	negs	r2, r2
100042bc:	4b08      	ldr	r3, [pc, #32]	; (100042e0 <stdout_serialize_begin+0x58>)
100042be:	e7ef      	b.n	100042a0 <stdout_serialize_begin+0x18>
100042c0:	4b04      	ldr	r3, [pc, #16]	; (100042d4 <stdout_serialize_begin+0x4c>)
100042c2:	4a05      	ldr	r2, [pc, #20]	; (100042d8 <stdout_serialize_begin+0x50>)
100042c4:	213f      	movs	r1, #63	; 0x3f
100042c6:	4805      	ldr	r0, [pc, #20]	; (100042dc <stdout_serialize_begin+0x54>)
100042c8:	f7fe f962 	bl	10002590 <__assert_func>
100042cc:	000f4240 	.word	0x000f4240
100042d0:	20000c90 	.word	0x20000c90
100042d4:	10006f88 	.word	0x10006f88
100042d8:	10007c68 	.word	0x10007c68
100042dc:	10006fa4 	.word	0x10006fa4
100042e0:	7fffffff 	.word	0x7fffffff

100042e4 <stdout_serialize_end>:
100042e4:	b510      	push	{r4, lr}
100042e6:	4802      	ldr	r0, [pc, #8]	; (100042f0 <stdout_serialize_end+0xc>)
100042e8:	f002 fc06 	bl	10006af8 <__mutex_exit_veneer>
100042ec:	bd10      	pop	{r4, pc}
100042ee:	46c0      	nop			; (mov r8, r8)
100042f0:	20000c90 	.word	0x20000c90

100042f4 <stdio_put_string>:
100042f4:	b5f0      	push	{r4, r5, r6, r7, lr}
100042f6:	46ce      	mov	lr, r9
100042f8:	4647      	mov	r7, r8
100042fa:	b580      	push	{r7, lr}
100042fc:	b083      	sub	sp, #12
100042fe:	0006      	movs	r6, r0
10004300:	000d      	movs	r5, r1
10004302:	4690      	mov	r8, r2
10004304:	001c      	movs	r4, r3
10004306:	f7ff ffbf 	bl	10004288 <stdout_serialize_begin>
1000430a:	4681      	mov	r9, r0
1000430c:	1c6b      	adds	r3, r5, #1
1000430e:	d005      	beq.n	1000431c <stdio_put_string+0x28>
10004310:	2c00      	cmp	r4, #0
10004312:	d008      	beq.n	10004326 <stdio_put_string+0x32>
10004314:	4f19      	ldr	r7, [pc, #100]	; (1000437c <stdio_put_string+0x88>)
10004316:	4b1a      	ldr	r3, [pc, #104]	; (10004380 <stdio_put_string+0x8c>)
10004318:	681c      	ldr	r4, [r3, #0]
1000431a:	e007      	b.n	1000432c <stdio_put_string+0x38>
1000431c:	0030      	movs	r0, r6
1000431e:	f002 fbb3 	bl	10006a88 <strlen>
10004322:	0005      	movs	r5, r0
10004324:	e7f4      	b.n	10004310 <stdio_put_string+0x1c>
10004326:	4f17      	ldr	r7, [pc, #92]	; (10004384 <stdio_put_string+0x90>)
10004328:	e7f5      	b.n	10004316 <stdio_put_string+0x22>
1000432a:	6924      	ldr	r4, [r4, #16]
1000432c:	2c00      	cmp	r4, #0
1000432e:	d017      	beq.n	10004360 <stdio_put_string+0x6c>
10004330:	6823      	ldr	r3, [r4, #0]
10004332:	2b00      	cmp	r3, #0
10004334:	d0f9      	beq.n	1000432a <stdio_put_string+0x36>
10004336:	4b14      	ldr	r3, [pc, #80]	; (10004388 <stdio_put_string+0x94>)
10004338:	681b      	ldr	r3, [r3, #0]
1000433a:	2b00      	cmp	r3, #0
1000433c:	d001      	beq.n	10004342 <stdio_put_string+0x4e>
1000433e:	42a3      	cmp	r3, r4
10004340:	d1f3      	bne.n	1000432a <stdio_put_string+0x36>
10004342:	002a      	movs	r2, r5
10004344:	0031      	movs	r1, r6
10004346:	0020      	movs	r0, r4
10004348:	47b8      	blx	r7
1000434a:	4643      	mov	r3, r8
1000434c:	2b00      	cmp	r3, #0
1000434e:	d0ec      	beq.n	1000432a <stdio_put_string+0x36>
10004350:	466b      	mov	r3, sp
10004352:	1dd9      	adds	r1, r3, #7
10004354:	230a      	movs	r3, #10
10004356:	700b      	strb	r3, [r1, #0]
10004358:	2201      	movs	r2, #1
1000435a:	0020      	movs	r0, r4
1000435c:	47b8      	blx	r7
1000435e:	e7e4      	b.n	1000432a <stdio_put_string+0x36>
10004360:	464b      	mov	r3, r9
10004362:	2b00      	cmp	r3, #0
10004364:	d107      	bne.n	10004376 <stdio_put_string+0x82>
10004366:	1e6b      	subs	r3, r5, #1
10004368:	419d      	sbcs	r5, r3
1000436a:	b2e8      	uxtb	r0, r5
1000436c:	b003      	add	sp, #12
1000436e:	bcc0      	pop	{r6, r7}
10004370:	46b9      	mov	r9, r7
10004372:	46b0      	mov	r8, r6
10004374:	bdf0      	pop	{r4, r5, r6, r7, pc}
10004376:	f7ff ffb5 	bl	100042e4 <stdout_serialize_end>
1000437a:	e7f4      	b.n	10004366 <stdio_put_string+0x72>
1000437c:	10004195 	.word	0x10004195
10004380:	200013d4 	.word	0x200013d4
10004384:	100041a5 	.word	0x100041a5
10004388:	200013e0 	.word	0x200013e0

1000438c <stdio_set_driver_enabled>:
1000438c:	4a09      	ldr	r2, [pc, #36]	; (100043b4 <stdio_set_driver_enabled+0x28>)
1000438e:	e001      	b.n	10004394 <stdio_set_driver_enabled+0x8>
10004390:	3310      	adds	r3, #16
10004392:	001a      	movs	r2, r3
10004394:	6813      	ldr	r3, [r2, #0]
10004396:	2b00      	cmp	r3, #0
10004398:	d008      	beq.n	100043ac <stdio_set_driver_enabled+0x20>
1000439a:	4283      	cmp	r3, r0
1000439c:	d1f8      	bne.n	10004390 <stdio_set_driver_enabled+0x4>
1000439e:	2900      	cmp	r1, #0
100043a0:	d107      	bne.n	100043b2 <stdio_set_driver_enabled+0x26>
100043a2:	6903      	ldr	r3, [r0, #16]
100043a4:	6013      	str	r3, [r2, #0]
100043a6:	2300      	movs	r3, #0
100043a8:	6103      	str	r3, [r0, #16]
100043aa:	e002      	b.n	100043b2 <stdio_set_driver_enabled+0x26>
100043ac:	2900      	cmp	r1, #0
100043ae:	d000      	beq.n	100043b2 <stdio_set_driver_enabled+0x26>
100043b0:	6010      	str	r0, [r2, #0]
100043b2:	4770      	bx	lr
100043b4:	200013d4 	.word	0x200013d4

100043b8 <stdio_flush>:
100043b8:	b510      	push	{r4, lr}
100043ba:	4b06      	ldr	r3, [pc, #24]	; (100043d4 <stdio_flush+0x1c>)
100043bc:	681c      	ldr	r4, [r3, #0]
100043be:	e001      	b.n	100043c4 <stdio_flush+0xc>
100043c0:	4798      	blx	r3
100043c2:	6924      	ldr	r4, [r4, #16]
100043c4:	2c00      	cmp	r4, #0
100043c6:	d003      	beq.n	100043d0 <stdio_flush+0x18>
100043c8:	6863      	ldr	r3, [r4, #4]
100043ca:	2b00      	cmp	r3, #0
100043cc:	d1f8      	bne.n	100043c0 <stdio_flush+0x8>
100043ce:	e7f8      	b.n	100043c2 <stdio_flush+0xa>
100043d0:	bd10      	pop	{r4, pc}
100043d2:	46c0      	nop			; (mov r8, r8)
100043d4:	200013d4 	.word	0x200013d4

100043d8 <__wrap_puts>:
100043d8:	b570      	push	{r4, r5, r6, lr}
100043da:	0005      	movs	r5, r0
100043dc:	f002 fb54 	bl	10006a88 <strlen>
100043e0:	0004      	movs	r4, r0
100043e2:	2300      	movs	r3, #0
100043e4:	2201      	movs	r2, #1
100043e6:	0001      	movs	r1, r0
100043e8:	0028      	movs	r0, r5
100043ea:	f7ff ff83 	bl	100042f4 <stdio_put_string>
100043ee:	f7ff ffe3 	bl	100043b8 <stdio_flush>
100043f2:	0020      	movs	r0, r4
100043f4:	bd70      	pop	{r4, r5, r6, pc}
	...

100043f8 <__wrap_vprintf>:
100043f8:	b570      	push	{r4, r5, r6, lr}
100043fa:	b0a2      	sub	sp, #136	; 0x88
100043fc:	0004      	movs	r4, r0
100043fe:	000e      	movs	r6, r1
10004400:	f7ff ff42 	bl	10004288 <stdout_serialize_begin>
10004404:	0005      	movs	r5, r0
10004406:	2300      	movs	r3, #0
10004408:	9301      	str	r3, [sp, #4]
1000440a:	0033      	movs	r3, r6
1000440c:	0022      	movs	r2, r4
1000440e:	a901      	add	r1, sp, #4
10004410:	4808      	ldr	r0, [pc, #32]	; (10004434 <__wrap_vprintf+0x3c>)
10004412:	f7ff f9ff 	bl	10003814 <vfctprintf>
10004416:	0004      	movs	r4, r0
10004418:	a801      	add	r0, sp, #4
1000441a:	f7ff ff03 	bl	10004224 <stdio_stack_buffer_flush>
1000441e:	f7ff ffcb 	bl	100043b8 <stdio_flush>
10004422:	2d00      	cmp	r5, #0
10004424:	d102      	bne.n	1000442c <__wrap_vprintf+0x34>
10004426:	0020      	movs	r0, r4
10004428:	b022      	add	sp, #136	; 0x88
1000442a:	bd70      	pop	{r4, r5, r6, pc}
1000442c:	f7ff ff5a 	bl	100042e4 <stdout_serialize_end>
10004430:	e7f9      	b.n	10004426 <__wrap_vprintf+0x2e>
10004432:	46c0      	nop			; (mov r8, r8)
10004434:	10004269 	.word	0x10004269

10004438 <__wrap_printf>:
10004438:	b40f      	push	{r0, r1, r2, r3}
1000443a:	b500      	push	{lr}
1000443c:	b083      	sub	sp, #12
1000443e:	a904      	add	r1, sp, #16
10004440:	c901      	ldmia	r1!, {r0}
10004442:	9101      	str	r1, [sp, #4]
10004444:	f7ff ffd8 	bl	100043f8 <__wrap_vprintf>
10004448:	b003      	add	sp, #12
1000444a:	bc08      	pop	{r3}
1000444c:	b004      	add	sp, #16
1000444e:	4718      	bx	r3

10004450 <stdio_init_all>:
10004450:	b510      	push	{r4, lr}
10004452:	f000 f937 	bl	100046c4 <stdio_usb_init>
10004456:	bd10      	pop	{r4, pc}

10004458 <resetd_init>:
10004458:	4770      	bx	lr
	...

1000445c <resetd_reset>:
1000445c:	4b01      	ldr	r3, [pc, #4]	; (10004464 <resetd_reset+0x8>)
1000445e:	2200      	movs	r2, #0
10004460:	701a      	strb	r2, [r3, #0]
10004462:	4770      	bx	lr
10004464:	20001a52 	.word	0x20001a52

10004468 <resetd_open>:
10004468:	794b      	ldrb	r3, [r1, #5]
1000446a:	2bff      	cmp	r3, #255	; 0xff
1000446c:	d10c      	bne.n	10004488 <resetd_open+0x20>
1000446e:	798b      	ldrb	r3, [r1, #6]
10004470:	2b00      	cmp	r3, #0
10004472:	d10b      	bne.n	1000448c <resetd_open+0x24>
10004474:	79cb      	ldrb	r3, [r1, #7]
10004476:	2b01      	cmp	r3, #1
10004478:	d10a      	bne.n	10004490 <resetd_open+0x28>
1000447a:	2a08      	cmp	r2, #8
1000447c:	d90a      	bls.n	10004494 <resetd_open+0x2c>
1000447e:	788a      	ldrb	r2, [r1, #2]
10004480:	4b05      	ldr	r3, [pc, #20]	; (10004498 <resetd_open+0x30>)
10004482:	701a      	strb	r2, [r3, #0]
10004484:	2009      	movs	r0, #9
10004486:	e000      	b.n	1000448a <resetd_open+0x22>
10004488:	2000      	movs	r0, #0
1000448a:	4770      	bx	lr
1000448c:	2000      	movs	r0, #0
1000448e:	e7fc      	b.n	1000448a <resetd_open+0x22>
10004490:	2000      	movs	r0, #0
10004492:	e7fa      	b.n	1000448a <resetd_open+0x22>
10004494:	2000      	movs	r0, #0
10004496:	e7f8      	b.n	1000448a <resetd_open+0x22>
10004498:	20001a52 	.word	0x20001a52

1000449c <resetd_xfer_cb>:
1000449c:	2001      	movs	r0, #1
1000449e:	4770      	bx	lr

100044a0 <reset_usb_boot>:
100044a0:	b570      	push	{r4, r5, r6, lr}
100044a2:	0004      	movs	r4, r0
100044a4:	000d      	movs	r5, r1
100044a6:	4803      	ldr	r0, [pc, #12]	; (100044b4 <reset_usb_boot+0x14>)
100044a8:	f7ff f9cc 	bl	10003844 <rom_func_lookup>
100044ac:	0003      	movs	r3, r0
100044ae:	0029      	movs	r1, r5
100044b0:	0020      	movs	r0, r4
100044b2:	4798      	blx	r3
100044b4:	00004255 	.word	0x00004255

100044b8 <resetd_control_xfer_cb>:
100044b8:	b510      	push	{r4, lr}
100044ba:	2901      	cmp	r1, #1
100044bc:	d126      	bne.n	1000450c <resetd_control_xfer_cb+0x54>
100044be:	7911      	ldrb	r1, [r2, #4]
100044c0:	7953      	ldrb	r3, [r2, #5]
100044c2:	021b      	lsls	r3, r3, #8
100044c4:	430b      	orrs	r3, r1
100044c6:	4912      	ldr	r1, [pc, #72]	; (10004510 <resetd_control_xfer_cb+0x58>)
100044c8:	7809      	ldrb	r1, [r1, #0]
100044ca:	428b      	cmp	r3, r1
100044cc:	d001      	beq.n	100044d2 <resetd_control_xfer_cb+0x1a>
100044ce:	2000      	movs	r0, #0
100044d0:	e01d      	b.n	1000450e <resetd_control_xfer_cb+0x56>
100044d2:	7853      	ldrb	r3, [r2, #1]
100044d4:	2b01      	cmp	r3, #1
100044d6:	d003      	beq.n	100044e0 <resetd_control_xfer_cb+0x28>
100044d8:	2b02      	cmp	r3, #2
100044da:	d010      	beq.n	100044fe <resetd_control_xfer_cb+0x46>
100044dc:	2000      	movs	r0, #0
100044de:	e016      	b.n	1000450e <resetd_control_xfer_cb+0x56>
100044e0:	7891      	ldrb	r1, [r2, #2]
100044e2:	78d3      	ldrb	r3, [r2, #3]
100044e4:	021b      	lsls	r3, r3, #8
100044e6:	4319      	orrs	r1, r3
100044e8:	05db      	lsls	r3, r3, #23
100044ea:	d506      	bpl.n	100044fa <resetd_control_xfer_cb+0x42>
100044ec:	0a4b      	lsrs	r3, r1, #9
100044ee:	2001      	movs	r0, #1
100044f0:	4098      	lsls	r0, r3
100044f2:	237f      	movs	r3, #127	; 0x7f
100044f4:	4019      	ands	r1, r3
100044f6:	f7ff ffd3 	bl	100044a0 <reset_usb_boot>
100044fa:	2000      	movs	r0, #0
100044fc:	e7f9      	b.n	100044f2 <resetd_control_xfer_cb+0x3a>
100044fe:	2264      	movs	r2, #100	; 0x64
10004500:	2100      	movs	r1, #0
10004502:	2000      	movs	r0, #0
10004504:	f7fe f806 	bl	10002514 <watchdog_reboot>
10004508:	2001      	movs	r0, #1
1000450a:	e000      	b.n	1000450e <resetd_control_xfer_cb+0x56>
1000450c:	2001      	movs	r0, #1
1000450e:	bd10      	pop	{r4, pc}
10004510:	20001a52 	.word	0x20001a52

10004514 <usbd_app_driver_get_cb>:
10004514:	2301      	movs	r3, #1
10004516:	7003      	strb	r3, [r0, #0]
10004518:	4800      	ldr	r0, [pc, #0]	; (1000451c <usbd_app_driver_get_cb+0x8>)
1000451a:	4770      	bx	lr
1000451c:	10007c84 	.word	0x10007c84

10004520 <tud_cdc_line_coding_cb>:
10004520:	b510      	push	{r4, lr}
10004522:	780b      	ldrb	r3, [r1, #0]
10004524:	7848      	ldrb	r0, [r1, #1]
10004526:	0200      	lsls	r0, r0, #8
10004528:	4318      	orrs	r0, r3
1000452a:	788a      	ldrb	r2, [r1, #2]
1000452c:	0412      	lsls	r2, r2, #16
1000452e:	4310      	orrs	r0, r2
10004530:	78cb      	ldrb	r3, [r1, #3]
10004532:	061b      	lsls	r3, r3, #24
10004534:	4303      	orrs	r3, r0
10004536:	2296      	movs	r2, #150	; 0x96
10004538:	00d2      	lsls	r2, r2, #3
1000453a:	4293      	cmp	r3, r2
1000453c:	d000      	beq.n	10004540 <tud_cdc_line_coding_cb+0x20>
1000453e:	bd10      	pop	{r4, pc}
10004540:	2100      	movs	r1, #0
10004542:	0008      	movs	r0, r1
10004544:	f7ff ffac 	bl	100044a0 <reset_usb_boot>

10004548 <stdio_usb_set_chars_available_callback>:
10004548:	4b02      	ldr	r3, [pc, #8]	; (10004554 <stdio_usb_set_chars_available_callback+0xc>)
1000454a:	6018      	str	r0, [r3, #0]
1000454c:	4b02      	ldr	r3, [pc, #8]	; (10004558 <stdio_usb_set_chars_available_callback+0x10>)
1000454e:	6019      	str	r1, [r3, #0]
10004550:	4770      	bx	lr
10004552:	46c0      	nop			; (mov r8, r8)
10004554:	20001330 	.word	0x20001330
10004558:	20001334 	.word	0x20001334

1000455c <usb_irq>:
1000455c:	b510      	push	{r4, lr}
1000455e:	4b02      	ldr	r3, [pc, #8]	; (10004568 <usb_irq+0xc>)
10004560:	7818      	ldrb	r0, [r3, #0]
10004562:	f7fc fa8d 	bl	10000a80 <irq_set_pending>
10004566:	bd10      	pop	{r4, pc}
10004568:	20001a53 	.word	0x20001a53

1000456c <timer_task>:
1000456c:	b570      	push	{r4, r5, r6, lr}
1000456e:	4b13      	ldr	r3, [pc, #76]	; (100045bc <timer_task+0x50>)
10004570:	681b      	ldr	r3, [r3, #0]
10004572:	2b00      	cmp	r3, #0
10004574:	d01d      	beq.n	100045b2 <timer_task+0x46>
10004576:	4b11      	ldr	r3, [pc, #68]	; (100045bc <timer_task+0x50>)
10004578:	6819      	ldr	r1, [r3, #0]
1000457a:	f3ef 8310 	mrs	r3, PRIMASK
1000457e:	b672      	cpsid	i
10004580:	680a      	ldr	r2, [r1, #0]
10004582:	2a00      	cmp	r2, #0
10004584:	d0fc      	beq.n	10004580 <timer_task+0x14>
10004586:	f3bf 8f5f 	dmb	sy
1000458a:	490c      	ldr	r1, [pc, #48]	; (100045bc <timer_task+0x50>)
1000458c:	604b      	str	r3, [r1, #4]
1000458e:	2200      	movs	r2, #0
10004590:	480b      	ldr	r0, [pc, #44]	; (100045c0 <timer_task+0x54>)
10004592:	7002      	strb	r2, [r0, #0]
10004594:	6809      	ldr	r1, [r1, #0]
10004596:	f3bf 8f5f 	dmb	sy
1000459a:	600a      	str	r2, [r1, #0]
1000459c:	f383 8810 	msr	PRIMASK, r3
100045a0:	2400      	movs	r4, #0
100045a2:	2500      	movs	r5, #0
100045a4:	4b07      	ldr	r3, [pc, #28]	; (100045c4 <timer_task+0x58>)
100045a6:	7818      	ldrb	r0, [r3, #0]
100045a8:	f7fc fa6a 	bl	10000a80 <irq_set_pending>
100045ac:	0020      	movs	r0, r4
100045ae:	0029      	movs	r1, r5
100045b0:	bd70      	pop	{r4, r5, r6, pc}
100045b2:	24fa      	movs	r4, #250	; 0xfa
100045b4:	00a4      	lsls	r4, r4, #2
100045b6:	2500      	movs	r5, #0
100045b8:	e7f4      	b.n	100045a4 <timer_task+0x38>
100045ba:	46c0      	nop			; (mov r8, r8)
100045bc:	200017f4 	.word	0x200017f4
100045c0:	20001a54 	.word	0x20001a54
100045c4:	20001a53 	.word	0x20001a53

100045c8 <low_priority_worker_irq>:
100045c8:	b510      	push	{r4, lr}
100045ca:	b084      	sub	sp, #16
100045cc:	2100      	movs	r1, #0
100045ce:	482d      	ldr	r0, [pc, #180]	; (10004684 <low_priority_worker_irq+0xbc>)
100045d0:	f002 faaa 	bl	10006b28 <__mutex_try_enter_veneer>
100045d4:	2800      	cmp	r0, #0
100045d6:	d13a      	bne.n	1000464e <low_priority_worker_irq+0x86>
100045d8:	4b2b      	ldr	r3, [pc, #172]	; (10004688 <low_priority_worker_irq+0xc0>)
100045da:	681b      	ldr	r3, [r3, #0]
100045dc:	2b00      	cmp	r3, #0
100045de:	d03e      	beq.n	1000465e <low_priority_worker_irq+0x96>
100045e0:	4b29      	ldr	r3, [pc, #164]	; (10004688 <low_priority_worker_irq+0xc0>)
100045e2:	6819      	ldr	r1, [r3, #0]
100045e4:	f3ef 8210 	mrs	r2, PRIMASK
100045e8:	b672      	cpsid	i
100045ea:	680b      	ldr	r3, [r1, #0]
100045ec:	2b00      	cmp	r3, #0
100045ee:	d0fc      	beq.n	100045ea <low_priority_worker_irq+0x22>
100045f0:	f3bf 8f5f 	dmb	sy
100045f4:	4924      	ldr	r1, [pc, #144]	; (10004688 <low_priority_worker_irq+0xc0>)
100045f6:	604a      	str	r2, [r1, #4]
100045f8:	4824      	ldr	r0, [pc, #144]	; (1000468c <low_priority_worker_irq+0xc4>)
100045fa:	7803      	ldrb	r3, [r0, #0]
100045fc:	2401      	movs	r4, #1
100045fe:	4063      	eors	r3, r4
10004600:	b2db      	uxtb	r3, r3
10004602:	2401      	movs	r4, #1
10004604:	7004      	strb	r4, [r0, #0]
10004606:	6809      	ldr	r1, [r1, #0]
10004608:	f3bf 8f5f 	dmb	sy
1000460c:	2000      	movs	r0, #0
1000460e:	6008      	str	r0, [r1, #0]
10004610:	f382 8810 	msr	PRIMASK, r2
10004614:	2b00      	cmp	r3, #0
10004616:	d022      	beq.n	1000465e <low_priority_worker_irq+0x96>
10004618:	f7fd f8a0 	bl	1000175c <alarm_pool_get_default>
1000461c:	0004      	movs	r4, r0
1000461e:	f7fd fa8f 	bl	10001b40 <time_us_64>
10004622:	0002      	movs	r2, r0
10004624:	1e0b      	subs	r3, r1, #0
10004626:	db1c      	blt.n	10004662 <low_priority_worker_irq+0x9a>
10004628:	20fa      	movs	r0, #250	; 0xfa
1000462a:	0080      	lsls	r0, r0, #2
1000462c:	2100      	movs	r1, #0
1000462e:	1812      	adds	r2, r2, r0
10004630:	414b      	adcs	r3, r1
10004632:	2b00      	cmp	r3, #0
10004634:	db1b      	blt.n	1000466e <low_priority_worker_irq+0xa6>
10004636:	2b00      	cmp	r3, #0
10004638:	db1d      	blt.n	10004676 <low_priority_worker_irq+0xae>
1000463a:	2101      	movs	r1, #1
1000463c:	9102      	str	r1, [sp, #8]
1000463e:	2100      	movs	r1, #0
10004640:	9101      	str	r1, [sp, #4]
10004642:	4913      	ldr	r1, [pc, #76]	; (10004690 <low_priority_worker_irq+0xc8>)
10004644:	9100      	str	r1, [sp, #0]
10004646:	0020      	movs	r0, r4
10004648:	f7fd f89e 	bl	10001788 <alarm_pool_add_alarm_at>
1000464c:	e007      	b.n	1000465e <low_priority_worker_irq+0x96>
1000464e:	2001      	movs	r0, #1
10004650:	2100      	movs	r1, #0
10004652:	4240      	negs	r0, r0
10004654:	f001 f8f0 	bl	10005838 <tud_task_ext>
10004658:	480a      	ldr	r0, [pc, #40]	; (10004684 <low_priority_worker_irq+0xbc>)
1000465a:	f002 fa4d 	bl	10006af8 <__mutex_exit_veneer>
1000465e:	b004      	add	sp, #16
10004660:	bd10      	pop	{r4, pc}
10004662:	4b0c      	ldr	r3, [pc, #48]	; (10004694 <low_priority_worker_irq+0xcc>)
10004664:	4a0c      	ldr	r2, [pc, #48]	; (10004698 <low_priority_worker_irq+0xd0>)
10004666:	213f      	movs	r1, #63	; 0x3f
10004668:	480c      	ldr	r0, [pc, #48]	; (1000469c <low_priority_worker_irq+0xd4>)
1000466a:	f7fd ff91 	bl	10002590 <__assert_func>
1000466e:	2201      	movs	r2, #1
10004670:	4252      	negs	r2, r2
10004672:	4b0b      	ldr	r3, [pc, #44]	; (100046a0 <low_priority_worker_irq+0xd8>)
10004674:	e7df      	b.n	10004636 <low_priority_worker_irq+0x6e>
10004676:	4b07      	ldr	r3, [pc, #28]	; (10004694 <low_priority_worker_irq+0xcc>)
10004678:	4a07      	ldr	r2, [pc, #28]	; (10004698 <low_priority_worker_irq+0xd0>)
1000467a:	213f      	movs	r1, #63	; 0x3f
1000467c:	4807      	ldr	r0, [pc, #28]	; (1000469c <low_priority_worker_irq+0xd4>)
1000467e:	f7fd ff87 	bl	10002590 <__assert_func>
10004682:	46c0      	nop			; (mov r8, r8)
10004684:	20001a24 	.word	0x20001a24
10004688:	200017f4 	.word	0x200017f4
1000468c:	20001a54 	.word	0x20001a54
10004690:	1000456d 	.word	0x1000456d
10004694:	10006f88 	.word	0x10006f88
10004698:	10007d30 	.word	0x10007d30
1000469c:	10006fa4 	.word	0x10006fa4
100046a0:	7fffffff 	.word	0x7fffffff

100046a4 <tud_cdc_rx_cb>:
100046a4:	b510      	push	{r4, lr}
100046a6:	4b05      	ldr	r3, [pc, #20]	; (100046bc <tud_cdc_rx_cb+0x18>)
100046a8:	6818      	ldr	r0, [r3, #0]
100046aa:	2800      	cmp	r0, #0
100046ac:	d004      	beq.n	100046b8 <tud_cdc_rx_cb+0x14>
100046ae:	4b04      	ldr	r3, [pc, #16]	; (100046c0 <tud_cdc_rx_cb+0x1c>)
100046b0:	6819      	ldr	r1, [r3, #0]
100046b2:	2200      	movs	r2, #0
100046b4:	f000 fde6 	bl	10005284 <usbd_defer_func>
100046b8:	bd10      	pop	{r4, pc}
100046ba:	46c0      	nop			; (mov r8, r8)
100046bc:	20001330 	.word	0x20001330
100046c0:	20001334 	.word	0x20001334

100046c4 <stdio_usb_init>:
100046c4:	b510      	push	{r4, lr}
100046c6:	b084      	sub	sp, #16
100046c8:	23d0      	movs	r3, #208	; 0xd0
100046ca:	061b      	lsls	r3, r3, #24
100046cc:	681c      	ldr	r4, [r3, #0]
100046ce:	f7fd f845 	bl	1000175c <alarm_pool_get_default>
100046d2:	f7fd f989 	bl	100019e8 <alarm_pool_core_num>
100046d6:	42a0      	cmp	r0, r4
100046d8:	d12a      	bne.n	10004730 <stdio_usb_init+0x6c>
100046da:	4b32      	ldr	r3, [pc, #200]	; (100047a4 <stdio_usb_init+0xe0>)
100046dc:	781b      	ldrb	r3, [r3, #0]
100046de:	f001 fd93 	bl	10006208 <tusb_init>
100046e2:	4831      	ldr	r0, [pc, #196]	; (100047a8 <stdio_usb_init+0xe4>)
100046e4:	f7fc fcaa 	bl	1000103c <mutex_init>
100046e8:	2001      	movs	r0, #1
100046ea:	f7fc fc8b 	bl	10001004 <user_irq_claim_unused>
100046ee:	b2c0      	uxtb	r0, r0
100046f0:	4c2e      	ldr	r4, [pc, #184]	; (100047ac <stdio_usb_init+0xe8>)
100046f2:	7020      	strb	r0, [r4, #0]
100046f4:	492e      	ldr	r1, [pc, #184]	; (100047b0 <stdio_usb_init+0xec>)
100046f6:	f7fc f9e5 	bl	10000ac4 <irq_set_exclusive_handler>
100046fa:	7820      	ldrb	r0, [r4, #0]
100046fc:	2101      	movs	r1, #1
100046fe:	f7fc f9b7 	bl	10000a70 <irq_set_enabled>
10004702:	2005      	movs	r0, #5
10004704:	f7fc f9cc 	bl	10000aa0 <irq_has_shared_handler>
10004708:	1e04      	subs	r4, r0, #0
1000470a:	d017      	beq.n	1000473c <stdio_usb_init+0x78>
1000470c:	2200      	movs	r2, #0
1000470e:	4929      	ldr	r1, [pc, #164]	; (100047b4 <stdio_usb_init+0xf0>)
10004710:	2005      	movs	r0, #5
10004712:	f7fc fa01 	bl	10000b18 <irq_add_shared_handler>
10004716:	f7fc f919 	bl	1000094c <next_striped_spin_lock_num>
1000471a:	0001      	movs	r1, r0
1000471c:	4826      	ldr	r0, [pc, #152]	; (100047b8 <stdio_usb_init+0xf4>)
1000471e:	f7fc fca9 	bl	10001074 <critical_section_init_with_lock_num>
10004722:	2101      	movs	r1, #1
10004724:	4825      	ldr	r0, [pc, #148]	; (100047bc <stdio_usb_init+0xf8>)
10004726:	f7ff fe31 	bl	1000438c <stdio_set_driver_enabled>
1000472a:	0020      	movs	r0, r4
1000472c:	b004      	add	sp, #16
1000472e:	bd10      	pop	{r4, pc}
10004730:	4b23      	ldr	r3, [pc, #140]	; (100047c0 <stdio_usb_init+0xfc>)
10004732:	4a24      	ldr	r2, [pc, #144]	; (100047c4 <stdio_usb_init+0x100>)
10004734:	21b2      	movs	r1, #178	; 0xb2
10004736:	4824      	ldr	r0, [pc, #144]	; (100047c8 <stdio_usb_init+0x104>)
10004738:	f7fd ff2a 	bl	10002590 <__assert_func>
1000473c:	f7fd f80e 	bl	1000175c <alarm_pool_get_default>
10004740:	0004      	movs	r4, r0
10004742:	f7fd f9fd 	bl	10001b40 <time_us_64>
10004746:	0002      	movs	r2, r0
10004748:	1e0b      	subs	r3, r1, #0
1000474a:	db1b      	blt.n	10004784 <stdio_usb_init+0xc0>
1000474c:	20fa      	movs	r0, #250	; 0xfa
1000474e:	0080      	lsls	r0, r0, #2
10004750:	2100      	movs	r1, #0
10004752:	1812      	adds	r2, r2, r0
10004754:	414b      	adcs	r3, r1
10004756:	2b00      	cmp	r3, #0
10004758:	db1a      	blt.n	10004790 <stdio_usb_init+0xcc>
1000475a:	2b00      	cmp	r3, #0
1000475c:	db1c      	blt.n	10004798 <stdio_usb_init+0xd4>
1000475e:	2101      	movs	r1, #1
10004760:	9102      	str	r1, [sp, #8]
10004762:	2100      	movs	r1, #0
10004764:	9101      	str	r1, [sp, #4]
10004766:	4919      	ldr	r1, [pc, #100]	; (100047cc <stdio_usb_init+0x108>)
10004768:	9100      	str	r1, [sp, #0]
1000476a:	0020      	movs	r0, r4
1000476c:	f7fd f80c 	bl	10001788 <alarm_pool_add_alarm_at>
10004770:	43c4      	mvns	r4, r0
10004772:	0fe4      	lsrs	r4, r4, #31
10004774:	2208      	movs	r2, #8
10004776:	2100      	movs	r1, #0
10004778:	480f      	ldr	r0, [pc, #60]	; (100047b8 <stdio_usb_init+0xf4>)
1000477a:	f7ff fcff 	bl	1000417c <__wrap_memset>
1000477e:	2c00      	cmp	r4, #0
10004780:	d0d3      	beq.n	1000472a <stdio_usb_init+0x66>
10004782:	e7ce      	b.n	10004722 <stdio_usb_init+0x5e>
10004784:	4b12      	ldr	r3, [pc, #72]	; (100047d0 <stdio_usb_init+0x10c>)
10004786:	4a13      	ldr	r2, [pc, #76]	; (100047d4 <stdio_usb_init+0x110>)
10004788:	213f      	movs	r1, #63	; 0x3f
1000478a:	4813      	ldr	r0, [pc, #76]	; (100047d8 <stdio_usb_init+0x114>)
1000478c:	f7fd ff00 	bl	10002590 <__assert_func>
10004790:	2201      	movs	r2, #1
10004792:	4252      	negs	r2, r2
10004794:	4b11      	ldr	r3, [pc, #68]	; (100047dc <stdio_usb_init+0x118>)
10004796:	e7e0      	b.n	1000475a <stdio_usb_init+0x96>
10004798:	4b0d      	ldr	r3, [pc, #52]	; (100047d0 <stdio_usb_init+0x10c>)
1000479a:	4a0e      	ldr	r2, [pc, #56]	; (100047d4 <stdio_usb_init+0x110>)
1000479c:	213f      	movs	r1, #63	; 0x3f
1000479e:	480e      	ldr	r0, [pc, #56]	; (100047d8 <stdio_usb_init+0x114>)
100047a0:	f7fd fef6 	bl	10002590 <__assert_func>
100047a4:	10008330 	.word	0x10008330
100047a8:	20001a24 	.word	0x20001a24
100047ac:	20001a53 	.word	0x20001a53
100047b0:	100045c9 	.word	0x100045c9
100047b4:	1000455d 	.word	0x1000455d
100047b8:	200017f4 	.word	0x200017f4
100047bc:	20000c50 	.word	0x20000c50
100047c0:	10006e20 	.word	0x10006e20
100047c4:	10007d20 	.word	0x10007d20
100047c8:	10007c9c 	.word	0x10007c9c
100047cc:	1000456d 	.word	0x1000456d
100047d0:	10006f88 	.word	0x10006f88
100047d4:	10007d30 	.word	0x10007d30
100047d8:	10006fa4 	.word	0x10006fa4
100047dc:	7fffffff 	.word	0x7fffffff

100047e0 <stdio_usb_connected>:
100047e0:	b510      	push	{r4, lr}
100047e2:	2000      	movs	r0, #0
100047e4:	f001 fa30 	bl	10005c48 <tud_cdc_n_connected>
100047e8:	bd10      	pop	{r4, pc}
	...

100047ec <stdio_usb_in_chars>:
100047ec:	b570      	push	{r4, r5, r6, lr}
100047ee:	0005      	movs	r5, r0
100047f0:	000c      	movs	r4, r1
100047f2:	f7ff fff5 	bl	100047e0 <stdio_usb_connected>
100047f6:	2800      	cmp	r0, #0
100047f8:	d045      	beq.n	10004886 <stdio_usb_in_chars+0x9a>
100047fa:	2000      	movs	r0, #0
100047fc:	f001 fa46 	bl	10005c8c <tud_cdc_n_available>
10004800:	2800      	cmp	r0, #0
10004802:	d043      	beq.n	1000488c <stdio_usb_in_chars+0xa0>
10004804:	f7fd f99c 	bl	10001b40 <time_us_64>
10004808:	0002      	movs	r2, r0
1000480a:	1e0b      	subs	r3, r1, #0
1000480c:	db21      	blt.n	10004852 <stdio_usb_in_chars+0x66>
1000480e:	4822      	ldr	r0, [pc, #136]	; (10004898 <stdio_usb_in_chars+0xac>)
10004810:	2100      	movs	r1, #0
10004812:	1812      	adds	r2, r2, r0
10004814:	414b      	adcs	r3, r1
10004816:	2b00      	cmp	r3, #0
10004818:	db21      	blt.n	1000485e <stdio_usb_in_chars+0x72>
1000481a:	2b00      	cmp	r3, #0
1000481c:	db23      	blt.n	10004866 <stdio_usb_in_chars+0x7a>
1000481e:	481f      	ldr	r0, [pc, #124]	; (1000489c <stdio_usb_in_chars+0xb0>)
10004820:	f002 f9aa 	bl	10006b78 <__mutex_try_enter_block_until_veneer>
10004824:	2800      	cmp	r0, #0
10004826:	d034      	beq.n	10004892 <stdio_usb_in_chars+0xa6>
10004828:	f7ff ffda 	bl	100047e0 <stdio_usb_connected>
1000482c:	2800      	cmp	r0, #0
1000482e:	d004      	beq.n	1000483a <stdio_usb_in_chars+0x4e>
10004830:	2000      	movs	r0, #0
10004832:	f001 fa2b 	bl	10005c8c <tud_cdc_n_available>
10004836:	2800      	cmp	r0, #0
10004838:	d11b      	bne.n	10004872 <stdio_usb_in_chars+0x86>
1000483a:	2001      	movs	r0, #1
1000483c:	2100      	movs	r1, #0
1000483e:	4240      	negs	r0, r0
10004840:	f000 fffa 	bl	10005838 <tud_task_ext>
10004844:	2403      	movs	r4, #3
10004846:	4264      	negs	r4, r4
10004848:	4814      	ldr	r0, [pc, #80]	; (1000489c <stdio_usb_in_chars+0xb0>)
1000484a:	f002 f955 	bl	10006af8 <__mutex_exit_veneer>
1000484e:	0020      	movs	r0, r4
10004850:	bd70      	pop	{r4, r5, r6, pc}
10004852:	4b13      	ldr	r3, [pc, #76]	; (100048a0 <stdio_usb_in_chars+0xb4>)
10004854:	4a13      	ldr	r2, [pc, #76]	; (100048a4 <stdio_usb_in_chars+0xb8>)
10004856:	213f      	movs	r1, #63	; 0x3f
10004858:	4813      	ldr	r0, [pc, #76]	; (100048a8 <stdio_usb_in_chars+0xbc>)
1000485a:	f7fd fe99 	bl	10002590 <__assert_func>
1000485e:	2201      	movs	r2, #1
10004860:	4252      	negs	r2, r2
10004862:	4b12      	ldr	r3, [pc, #72]	; (100048ac <stdio_usb_in_chars+0xc0>)
10004864:	e7d9      	b.n	1000481a <stdio_usb_in_chars+0x2e>
10004866:	4b0e      	ldr	r3, [pc, #56]	; (100048a0 <stdio_usb_in_chars+0xb4>)
10004868:	4a0e      	ldr	r2, [pc, #56]	; (100048a4 <stdio_usb_in_chars+0xb8>)
1000486a:	213f      	movs	r1, #63	; 0x3f
1000486c:	480e      	ldr	r0, [pc, #56]	; (100048a8 <stdio_usb_in_chars+0xbc>)
1000486e:	f7fd fe8f 	bl	10002590 <__assert_func>
10004872:	0022      	movs	r2, r4
10004874:	0029      	movs	r1, r5
10004876:	2000      	movs	r0, #0
10004878:	f001 fa14 	bl	10005ca4 <tud_cdc_n_read>
1000487c:	1e04      	subs	r4, r0, #0
1000487e:	d1e3      	bne.n	10004848 <stdio_usb_in_chars+0x5c>
10004880:	2403      	movs	r4, #3
10004882:	4264      	negs	r4, r4
10004884:	e7e0      	b.n	10004848 <stdio_usb_in_chars+0x5c>
10004886:	2403      	movs	r4, #3
10004888:	4264      	negs	r4, r4
1000488a:	e7e0      	b.n	1000484e <stdio_usb_in_chars+0x62>
1000488c:	2403      	movs	r4, #3
1000488e:	4264      	negs	r4, r4
10004890:	e7dd      	b.n	1000484e <stdio_usb_in_chars+0x62>
10004892:	2403      	movs	r4, #3
10004894:	4264      	negs	r4, r4
10004896:	e7da      	b.n	1000484e <stdio_usb_in_chars+0x62>
10004898:	000f4240 	.word	0x000f4240
1000489c:	20001a24 	.word	0x20001a24
100048a0:	10006f88 	.word	0x10006f88
100048a4:	10007d30 	.word	0x10007d30
100048a8:	10006fa4 	.word	0x10006fa4
100048ac:	7fffffff 	.word	0x7fffffff

100048b0 <stdio_usb_out_chars>:
100048b0:	b5f0      	push	{r4, r5, r6, r7, lr}
100048b2:	46c6      	mov	lr, r8
100048b4:	b500      	push	{lr}
100048b6:	4680      	mov	r8, r0
100048b8:	000c      	movs	r4, r1
100048ba:	f7fd f941 	bl	10001b40 <time_us_64>
100048be:	0002      	movs	r2, r0
100048c0:	1e0b      	subs	r3, r1, #0
100048c2:	db0f      	blt.n	100048e4 <stdio_usb_out_chars+0x34>
100048c4:	4837      	ldr	r0, [pc, #220]	; (100049a4 <stdio_usb_out_chars+0xf4>)
100048c6:	2100      	movs	r1, #0
100048c8:	1812      	adds	r2, r2, r0
100048ca:	414b      	adcs	r3, r1
100048cc:	2b00      	cmp	r3, #0
100048ce:	db0f      	blt.n	100048f0 <stdio_usb_out_chars+0x40>
100048d0:	2b00      	cmp	r3, #0
100048d2:	db11      	blt.n	100048f8 <stdio_usb_out_chars+0x48>
100048d4:	4834      	ldr	r0, [pc, #208]	; (100049a8 <stdio_usb_out_chars+0xf8>)
100048d6:	f002 f94f 	bl	10006b78 <__mutex_try_enter_block_until_veneer>
100048da:	2800      	cmp	r0, #0
100048dc:	d112      	bne.n	10004904 <stdio_usb_out_chars+0x54>
100048de:	bc80      	pop	{r7}
100048e0:	46b8      	mov	r8, r7
100048e2:	bdf0      	pop	{r4, r5, r6, r7, pc}
100048e4:	4b31      	ldr	r3, [pc, #196]	; (100049ac <stdio_usb_out_chars+0xfc>)
100048e6:	4a32      	ldr	r2, [pc, #200]	; (100049b0 <stdio_usb_out_chars+0x100>)
100048e8:	213f      	movs	r1, #63	; 0x3f
100048ea:	4832      	ldr	r0, [pc, #200]	; (100049b4 <stdio_usb_out_chars+0x104>)
100048ec:	f7fd fe50 	bl	10002590 <__assert_func>
100048f0:	2201      	movs	r2, #1
100048f2:	4252      	negs	r2, r2
100048f4:	4b30      	ldr	r3, [pc, #192]	; (100049b8 <stdio_usb_out_chars+0x108>)
100048f6:	e7eb      	b.n	100048d0 <stdio_usb_out_chars+0x20>
100048f8:	4b2c      	ldr	r3, [pc, #176]	; (100049ac <stdio_usb_out_chars+0xfc>)
100048fa:	4a2d      	ldr	r2, [pc, #180]	; (100049b0 <stdio_usb_out_chars+0x100>)
100048fc:	213f      	movs	r1, #63	; 0x3f
100048fe:	482d      	ldr	r0, [pc, #180]	; (100049b4 <stdio_usb_out_chars+0x104>)
10004900:	f7fd fe46 	bl	10002590 <__assert_func>
10004904:	f7ff ff6c 	bl	100047e0 <stdio_usb_connected>
10004908:	2800      	cmp	r0, #0
1000490a:	d149      	bne.n	100049a0 <stdio_usb_out_chars+0xf0>
1000490c:	4b2b      	ldr	r3, [pc, #172]	; (100049bc <stdio_usb_out_chars+0x10c>)
1000490e:	2000      	movs	r0, #0
10004910:	2100      	movs	r1, #0
10004912:	6018      	str	r0, [r3, #0]
10004914:	6059      	str	r1, [r3, #4]
10004916:	4824      	ldr	r0, [pc, #144]	; (100049a8 <stdio_usb_out_chars+0xf8>)
10004918:	f002 f8ee 	bl	10006af8 <__mutex_exit_veneer>
1000491c:	e7df      	b.n	100048de <stdio_usb_out_chars+0x2e>
1000491e:	2001      	movs	r0, #1
10004920:	2100      	movs	r1, #0
10004922:	4240      	negs	r0, r0
10004924:	f000 ff88 	bl	10005838 <tud_task_ext>
10004928:	2000      	movs	r0, #0
1000492a:	f001 f9cf 	bl	10005ccc <tud_cdc_n_write_flush>
1000492e:	f7ff ff57 	bl	100047e0 <stdio_usb_connected>
10004932:	2800      	cmp	r0, #0
10004934:	d0ef      	beq.n	10004916 <stdio_usb_out_chars+0x66>
10004936:	2000      	movs	r0, #0
10004938:	f001 fa40 	bl	10005dbc <tud_cdc_n_write_available>
1000493c:	2800      	cmp	r0, #0
1000493e:	d020      	beq.n	10004982 <stdio_usb_out_chars+0xd2>
10004940:	42a5      	cmp	r5, r4
10004942:	dae8      	bge.n	10004916 <stdio_usb_out_chars+0x66>
10004944:	1b66      	subs	r6, r4, r5
10004946:	2000      	movs	r0, #0
10004948:	f001 fa38 	bl	10005dbc <tud_cdc_n_write_available>
1000494c:	0002      	movs	r2, r0
1000494e:	4286      	cmp	r6, r0
10004950:	dc00      	bgt.n	10004954 <stdio_usb_out_chars+0xa4>
10004952:	0032      	movs	r2, r6
10004954:	2a00      	cmp	r2, #0
10004956:	d0e2      	beq.n	1000491e <stdio_usb_out_chars+0x6e>
10004958:	4643      	mov	r3, r8
1000495a:	1959      	adds	r1, r3, r5
1000495c:	2000      	movs	r0, #0
1000495e:	f001 fa11 	bl	10005d84 <tud_cdc_n_write>
10004962:	0006      	movs	r6, r0
10004964:	2001      	movs	r0, #1
10004966:	2100      	movs	r1, #0
10004968:	4240      	negs	r0, r0
1000496a:	f000 ff65 	bl	10005838 <tud_task_ext>
1000496e:	2000      	movs	r0, #0
10004970:	f001 f9ac 	bl	10005ccc <tud_cdc_n_write_flush>
10004974:	19ad      	adds	r5, r5, r6
10004976:	f7fd f8e3 	bl	10001b40 <time_us_64>
1000497a:	4b10      	ldr	r3, [pc, #64]	; (100049bc <stdio_usb_out_chars+0x10c>)
1000497c:	6018      	str	r0, [r3, #0]
1000497e:	6059      	str	r1, [r3, #4]
10004980:	e7de      	b.n	10004940 <stdio_usb_out_chars+0x90>
10004982:	f7fd f8dd 	bl	10001b40 <time_us_64>
10004986:	4b0d      	ldr	r3, [pc, #52]	; (100049bc <stdio_usb_out_chars+0x10c>)
10004988:	681e      	ldr	r6, [r3, #0]
1000498a:	685f      	ldr	r7, [r3, #4]
1000498c:	4a0c      	ldr	r2, [pc, #48]	; (100049c0 <stdio_usb_out_chars+0x110>)
1000498e:	2300      	movs	r3, #0
10004990:	1992      	adds	r2, r2, r6
10004992:	417b      	adcs	r3, r7
10004994:	4299      	cmp	r1, r3
10004996:	d8be      	bhi.n	10004916 <stdio_usb_out_chars+0x66>
10004998:	d1d2      	bne.n	10004940 <stdio_usb_out_chars+0x90>
1000499a:	4290      	cmp	r0, r2
1000499c:	d9d0      	bls.n	10004940 <stdio_usb_out_chars+0x90>
1000499e:	e7ba      	b.n	10004916 <stdio_usb_out_chars+0x66>
100049a0:	2500      	movs	r5, #0
100049a2:	e7cd      	b.n	10004940 <stdio_usb_out_chars+0x90>
100049a4:	000f4240 	.word	0x000f4240
100049a8:	20001a24 	.word	0x20001a24
100049ac:	10006f88 	.word	0x10006f88
100049b0:	10007d30 	.word	0x10007d30
100049b4:	10006fa4 	.word	0x10006fa4
100049b8:	7fffffff 	.word	0x7fffffff
100049bc:	20000db0 	.word	0x20000db0
100049c0:	0007a120 	.word	0x0007a120

100049c4 <tud_descriptor_device_cb>:
100049c4:	4800      	ldr	r0, [pc, #0]	; (100049c8 <tud_descriptor_device_cb+0x4>)
100049c6:	4770      	bx	lr
100049c8:	10007dc8 	.word	0x10007dc8

100049cc <tud_descriptor_configuration_cb>:
100049cc:	4800      	ldr	r0, [pc, #0]	; (100049d0 <tud_descriptor_configuration_cb+0x4>)
100049ce:	4770      	bx	lr
100049d0:	10007d74 	.word	0x10007d74

100049d4 <tud_descriptor_string_cb>:
100049d4:	b510      	push	{r4, lr}
100049d6:	0004      	movs	r4, r0
100049d8:	4b15      	ldr	r3, [pc, #84]	; (10004a30 <tud_descriptor_string_cb+0x5c>)
100049da:	781b      	ldrb	r3, [r3, #0]
100049dc:	2b00      	cmp	r3, #0
100049de:	d00e      	beq.n	100049fe <tud_descriptor_string_cb+0x2a>
100049e0:	2c00      	cmp	r4, #0
100049e2:	d111      	bne.n	10004a08 <tud_descriptor_string_cb+0x34>
100049e4:	4b13      	ldr	r3, [pc, #76]	; (10004a34 <tud_descriptor_string_cb+0x60>)
100049e6:	4a14      	ldr	r2, [pc, #80]	; (10004a38 <tud_descriptor_string_cb+0x64>)
100049e8:	805a      	strh	r2, [r3, #2]
100049ea:	2301      	movs	r3, #1
100049ec:	3301      	adds	r3, #1
100049ee:	005b      	lsls	r3, r3, #1
100049f0:	b21b      	sxth	r3, r3
100049f2:	22c0      	movs	r2, #192	; 0xc0
100049f4:	0092      	lsls	r2, r2, #2
100049f6:	4313      	orrs	r3, r2
100049f8:	480e      	ldr	r0, [pc, #56]	; (10004a34 <tud_descriptor_string_cb+0x60>)
100049fa:	8003      	strh	r3, [r0, #0]
100049fc:	bd10      	pop	{r4, pc}
100049fe:	2111      	movs	r1, #17
10004a00:	480b      	ldr	r0, [pc, #44]	; (10004a30 <tud_descriptor_string_cb+0x5c>)
10004a02:	f000 f825 	bl	10004a50 <pico_get_unique_board_id_string>
10004a06:	e7eb      	b.n	100049e0 <tud_descriptor_string_cb+0xc>
10004a08:	2c05      	cmp	r4, #5
10004a0a:	d80e      	bhi.n	10004a2a <tud_descriptor_string_cb+0x56>
10004a0c:	00a4      	lsls	r4, r4, #2
10004a0e:	4b0b      	ldr	r3, [pc, #44]	; (10004a3c <tud_descriptor_string_cb+0x68>)
10004a10:	58e4      	ldr	r4, [r4, r3]
10004a12:	2300      	movs	r3, #0
10004a14:	2b12      	cmp	r3, #18
10004a16:	d8e9      	bhi.n	100049ec <tud_descriptor_string_cb+0x18>
10004a18:	5ce2      	ldrb	r2, [r4, r3]
10004a1a:	2a00      	cmp	r2, #0
10004a1c:	d0e6      	beq.n	100049ec <tud_descriptor_string_cb+0x18>
10004a1e:	3301      	adds	r3, #1
10004a20:	0059      	lsls	r1, r3, #1
10004a22:	4804      	ldr	r0, [pc, #16]	; (10004a34 <tud_descriptor_string_cb+0x60>)
10004a24:	5242      	strh	r2, [r0, r1]
10004a26:	b2db      	uxtb	r3, r3
10004a28:	e7f4      	b.n	10004a14 <tud_descriptor_string_cb+0x40>
10004a2a:	2000      	movs	r0, #0
10004a2c:	e7e6      	b.n	100049fc <tud_descriptor_string_cb+0x28>
10004a2e:	46c0      	nop			; (mov r8, r8)
10004a30:	20001a3c 	.word	0x20001a3c
10004a34:	200013a8 	.word	0x200013a8
10004a38:	00000409 	.word	0x00000409
10004a3c:	10007ddc 	.word	0x10007ddc

10004a40 <_retrieve_unique_id_on_boot>:
10004a40:	b510      	push	{r4, lr}
10004a42:	4802      	ldr	r0, [pc, #8]	; (10004a4c <_retrieve_unique_id_on_boot+0xc>)
10004a44:	f000 f834 	bl	10004ab0 <flash_get_unique_id>
10004a48:	bd10      	pop	{r4, pc}
10004a4a:	46c0      	nop			; (mov r8, r8)
10004a4c:	20001814 	.word	0x20001814

10004a50 <pico_get_unique_board_id_string>:
10004a50:	b510      	push	{r4, lr}
10004a52:	2900      	cmp	r1, #0
10004a54:	d001      	beq.n	10004a5a <pico_get_unique_board_id_string+0xa>
10004a56:	2300      	movs	r3, #0
10004a58:	e00a      	b.n	10004a70 <pico_get_unique_board_id_string+0x20>
10004a5a:	4b11      	ldr	r3, [pc, #68]	; (10004aa0 <pico_get_unique_board_id_string+0x50>)
10004a5c:	4a11      	ldr	r2, [pc, #68]	; (10004aa4 <pico_get_unique_board_id_string+0x54>)
10004a5e:	311f      	adds	r1, #31
10004a60:	4811      	ldr	r0, [pc, #68]	; (10004aa8 <pico_get_unique_board_id_string+0x58>)
10004a62:	f7fd fd95 	bl	10002590 <__assert_func>
10004a66:	2400      	movs	r4, #0
10004a68:	e00d      	b.n	10004a86 <pico_get_unique_board_id_string+0x36>
10004a6a:	3237      	adds	r2, #55	; 0x37
10004a6c:	54c2      	strb	r2, [r0, r3]
10004a6e:	3301      	adds	r3, #1
10004a70:	1e4a      	subs	r2, r1, #1
10004a72:	429a      	cmp	r2, r3
10004a74:	d90f      	bls.n	10004a96 <pico_get_unique_board_id_string+0x46>
10004a76:	2b0f      	cmp	r3, #15
10004a78:	d80d      	bhi.n	10004a96 <pico_get_unique_board_id_string+0x46>
10004a7a:	085a      	lsrs	r2, r3, #1
10004a7c:	4c0b      	ldr	r4, [pc, #44]	; (10004aac <pico_get_unique_board_id_string+0x5c>)
10004a7e:	5ca2      	ldrb	r2, [r4, r2]
10004a80:	07dc      	lsls	r4, r3, #31
10004a82:	d4f0      	bmi.n	10004a66 <pico_get_unique_board_id_string+0x16>
10004a84:	2404      	movs	r4, #4
10004a86:	4122      	asrs	r2, r4
10004a88:	0014      	movs	r4, r2
10004a8a:	220f      	movs	r2, #15
10004a8c:	4022      	ands	r2, r4
10004a8e:	2a09      	cmp	r2, #9
10004a90:	dceb      	bgt.n	10004a6a <pico_get_unique_board_id_string+0x1a>
10004a92:	3230      	adds	r2, #48	; 0x30
10004a94:	e7ea      	b.n	10004a6c <pico_get_unique_board_id_string+0x1c>
10004a96:	18c0      	adds	r0, r0, r3
10004a98:	2300      	movs	r3, #0
10004a9a:	7003      	strb	r3, [r0, #0]
10004a9c:	bd10      	pop	{r4, pc}
10004a9e:	46c0      	nop			; (mov r8, r8)
10004aa0:	10007df4 	.word	0x10007df4
10004aa4:	10007e60 	.word	0x10007e60
10004aa8:	10007dfc 	.word	0x10007dfc
10004aac:	20001814 	.word	0x20001814

10004ab0 <flash_get_unique_id>:
10004ab0:	b570      	push	{r4, r5, r6, lr}
10004ab2:	b088      	sub	sp, #32
10004ab4:	0004      	movs	r4, r0
10004ab6:	ad04      	add	r5, sp, #16
10004ab8:	2600      	movs	r6, #0
10004aba:	9604      	str	r6, [sp, #16]
10004abc:	2209      	movs	r2, #9
10004abe:	2100      	movs	r1, #0
10004ac0:	a805      	add	r0, sp, #20
10004ac2:	f7ff fb5b 	bl	1000417c <__wrap_memset>
10004ac6:	9600      	str	r6, [sp, #0]
10004ac8:	2209      	movs	r2, #9
10004aca:	2100      	movs	r1, #0
10004acc:	a801      	add	r0, sp, #4
10004ace:	f7ff fb55 	bl	1000417c <__wrap_memset>
10004ad2:	234b      	movs	r3, #75	; 0x4b
10004ad4:	702b      	strb	r3, [r5, #0]
10004ad6:	220d      	movs	r2, #13
10004ad8:	4669      	mov	r1, sp
10004ada:	0028      	movs	r0, r5
10004adc:	f002 f804 	bl	10006ae8 <__flash_do_cmd_veneer>
10004ae0:	2300      	movs	r3, #0
10004ae2:	e004      	b.n	10004aee <flash_get_unique_id+0x3e>
10004ae4:	1d5a      	adds	r2, r3, #5
10004ae6:	4669      	mov	r1, sp
10004ae8:	5c8a      	ldrb	r2, [r1, r2]
10004aea:	54e2      	strb	r2, [r4, r3]
10004aec:	3301      	adds	r3, #1
10004aee:	2b07      	cmp	r3, #7
10004af0:	ddf8      	ble.n	10004ae4 <flash_get_unique_id+0x34>
10004af2:	b008      	add	sp, #32
10004af4:	bd70      	pop	{r4, r5, r6, pc}
	...

10004af8 <hw_endpoint_get_by_addr>:
10004af8:	0002      	movs	r2, r0
10004afa:	207f      	movs	r0, #127	; 0x7f
10004afc:	4010      	ands	r0, r2
10004afe:	09d2      	lsrs	r2, r2, #7
10004b00:	0040      	lsls	r0, r0, #1
10004b02:	1880      	adds	r0, r0, r2
10004b04:	0140      	lsls	r0, r0, #5
10004b06:	4b01      	ldr	r3, [pc, #4]	; (10004b0c <hw_endpoint_get_by_addr+0x14>)
10004b08:	18c0      	adds	r0, r0, r3
10004b0a:	4770      	bx	lr
10004b0c:	200013ec 	.word	0x200013ec

10004b10 <_hw_endpoint_alloc>:
10004b10:	b510      	push	{r4, lr}
10004b12:	8b03      	ldrh	r3, [r0, #24]
10004b14:	333f      	adds	r3, #63	; 0x3f
10004b16:	223f      	movs	r2, #63	; 0x3f
10004b18:	4393      	bics	r3, r2
10004b1a:	2902      	cmp	r1, #2
10004b1c:	d015      	beq.n	10004b4a <_hw_endpoint_alloc+0x3a>
10004b1e:	4c12      	ldr	r4, [pc, #72]	; (10004b68 <_hw_endpoint_alloc+0x58>)
10004b20:	6822      	ldr	r2, [r4, #0]
10004b22:	60c2      	str	r2, [r0, #12]
10004b24:	18d3      	adds	r3, r2, r3
10004b26:	6023      	str	r3, [r4, #0]
10004b28:	069c      	lsls	r4, r3, #26
10004b2a:	d110      	bne.n	10004b4e <_hw_endpoint_alloc+0x3e>
10004b2c:	4c0f      	ldr	r4, [pc, #60]	; (10004b6c <_hw_endpoint_alloc+0x5c>)
10004b2e:	4062      	eors	r2, r4
10004b30:	4063      	eors	r3, r4
10004b32:	2480      	movs	r4, #128	; 0x80
10004b34:	0164      	lsls	r4, r4, #5
10004b36:	42a3      	cmp	r3, r4
10004b38:	d80f      	bhi.n	10004b5a <_hw_endpoint_alloc+0x4a>
10004b3a:	0689      	lsls	r1, r1, #26
10004b3c:	4311      	orrs	r1, r2
10004b3e:	2380      	movs	r3, #128	; 0x80
10004b40:	061b      	lsls	r3, r3, #24
10004b42:	4319      	orrs	r1, r3
10004b44:	6843      	ldr	r3, [r0, #4]
10004b46:	6019      	str	r1, [r3, #0]
10004b48:	bd10      	pop	{r4, pc}
10004b4a:	005b      	lsls	r3, r3, #1
10004b4c:	e7e7      	b.n	10004b1e <_hw_endpoint_alloc+0xe>
10004b4e:	4b08      	ldr	r3, [pc, #32]	; (10004b70 <_hw_endpoint_alloc+0x60>)
10004b50:	4a08      	ldr	r2, [pc, #32]	; (10004b74 <_hw_endpoint_alloc+0x64>)
10004b52:	2154      	movs	r1, #84	; 0x54
10004b54:	4808      	ldr	r0, [pc, #32]	; (10004b78 <_hw_endpoint_alloc+0x68>)
10004b56:	f7fd fd1b 	bl	10002590 <__assert_func>
10004b5a:	4b08      	ldr	r3, [pc, #32]	; (10004b7c <_hw_endpoint_alloc+0x6c>)
10004b5c:	4a05      	ldr	r2, [pc, #20]	; (10004b74 <_hw_endpoint_alloc+0x64>)
10004b5e:	2156      	movs	r1, #86	; 0x56
10004b60:	4805      	ldr	r0, [pc, #20]	; (10004b78 <_hw_endpoint_alloc+0x68>)
10004b62:	f7fd fd15 	bl	10002590 <__assert_func>
10004b66:	46c0      	nop			; (mov r8, r8)
10004b68:	200017f0 	.word	0x200017f0
10004b6c:	50100000 	.word	0x50100000
10004b70:	10008008 	.word	0x10008008
10004b74:	1000813c 	.word	0x1000813c
10004b78:	10008038 	.word	0x10008038
10004b7c:	100080a8 	.word	0x100080a8

10004b80 <hw_endpoint_init>:
10004b80:	b5f8      	push	{r3, r4, r5, r6, r7, lr}
10004b82:	0005      	movs	r5, r0
10004b84:	000e      	movs	r6, r1
10004b86:	0014      	movs	r4, r2
10004b88:	f7ff ffb6 	bl	10004af8 <hw_endpoint_get_by_addr>
10004b8c:	237f      	movs	r3, #127	; 0x7f
10004b8e:	402b      	ands	r3, r5
10004b90:	09ef      	lsrs	r7, r5, #7
10004b92:	7085      	strb	r5, [r0, #2]
10004b94:	427a      	negs	r2, r7
10004b96:	417a      	adcs	r2, r7
10004b98:	7042      	strb	r2, [r0, #1]
10004b9a:	2200      	movs	r2, #0
10004b9c:	70c2      	strb	r2, [r0, #3]
10004b9e:	8306      	strh	r6, [r0, #24]
10004ba0:	76c4      	strb	r4, [r0, #27]
10004ba2:	2f01      	cmp	r7, #1
10004ba4:	d00d      	beq.n	10004bc2 <hw_endpoint_init+0x42>
10004ba6:	00da      	lsls	r2, r3, #3
10004ba8:	4912      	ldr	r1, [pc, #72]	; (10004bf4 <hw_endpoint_init+0x74>)
10004baa:	468c      	mov	ip, r1
10004bac:	4462      	add	r2, ip
10004bae:	6082      	str	r2, [r0, #8]
10004bb0:	6882      	ldr	r2, [r0, #8]
10004bb2:	2100      	movs	r1, #0
10004bb4:	6011      	str	r1, [r2, #0]
10004bb6:	2b00      	cmp	r3, #0
10004bb8:	d109      	bne.n	10004bce <hw_endpoint_init+0x4e>
10004bba:	6043      	str	r3, [r0, #4]
10004bbc:	4b0e      	ldr	r3, [pc, #56]	; (10004bf8 <hw_endpoint_init+0x78>)
10004bbe:	60c3      	str	r3, [r0, #12]
10004bc0:	bdf8      	pop	{r3, r4, r5, r6, r7, pc}
10004bc2:	00da      	lsls	r2, r3, #3
10004bc4:	490d      	ldr	r1, [pc, #52]	; (10004bfc <hw_endpoint_init+0x7c>)
10004bc6:	468c      	mov	ip, r1
10004bc8:	4462      	add	r2, ip
10004bca:	6082      	str	r2, [r0, #8]
10004bcc:	e7f0      	b.n	10004bb0 <hw_endpoint_init+0x30>
10004bce:	2f01      	cmp	r7, #1
10004bd0:	d009      	beq.n	10004be6 <hw_endpoint_init+0x66>
10004bd2:	3b01      	subs	r3, #1
10004bd4:	00db      	lsls	r3, r3, #3
10004bd6:	4a0a      	ldr	r2, [pc, #40]	; (10004c00 <hw_endpoint_init+0x80>)
10004bd8:	4694      	mov	ip, r2
10004bda:	4463      	add	r3, ip
10004bdc:	6043      	str	r3, [r0, #4]
10004bde:	0021      	movs	r1, r4
10004be0:	f7ff ff96 	bl	10004b10 <_hw_endpoint_alloc>
10004be4:	e7ec      	b.n	10004bc0 <hw_endpoint_init+0x40>
10004be6:	3b01      	subs	r3, #1
10004be8:	00db      	lsls	r3, r3, #3
10004bea:	4a06      	ldr	r2, [pc, #24]	; (10004c04 <hw_endpoint_init+0x84>)
10004bec:	4694      	mov	ip, r2
10004bee:	4463      	add	r3, ip
10004bf0:	6043      	str	r3, [r0, #4]
10004bf2:	e7f4      	b.n	10004bde <hw_endpoint_init+0x5e>
10004bf4:	50100084 	.word	0x50100084
10004bf8:	50100100 	.word	0x50100100
10004bfc:	50100080 	.word	0x50100080
10004c00:	5010000c 	.word	0x5010000c
10004c04:	50100008 	.word	0x50100008

10004c08 <hw_endpoint_xfer>:
10004c08:	b570      	push	{r4, r5, r6, lr}
10004c0a:	000c      	movs	r4, r1
10004c0c:	0015      	movs	r5, r2
10004c0e:	f7ff ff73 	bl	10004af8 <hw_endpoint_get_by_addr>
10004c12:	002a      	movs	r2, r5
10004c14:	0021      	movs	r1, r4
10004c16:	f000 f90d 	bl	10004e34 <hw_endpoint_xfer_start>
10004c1a:	bd70      	pop	{r4, r5, r6, pc}

10004c1c <dcd_int_enable>:
10004c1c:	b510      	push	{r4, lr}
10004c1e:	2800      	cmp	r0, #0
10004c20:	d104      	bne.n	10004c2c <dcd_int_enable+0x10>
10004c22:	2101      	movs	r1, #1
10004c24:	2005      	movs	r0, #5
10004c26:	f7fb ff23 	bl	10000a70 <irq_set_enabled>
10004c2a:	bd10      	pop	{r4, pc}
10004c2c:	21d5      	movs	r1, #213	; 0xd5
10004c2e:	4b03      	ldr	r3, [pc, #12]	; (10004c3c <dcd_int_enable+0x20>)
10004c30:	4a03      	ldr	r2, [pc, #12]	; (10004c40 <dcd_int_enable+0x24>)
10004c32:	0049      	lsls	r1, r1, #1
10004c34:	4803      	ldr	r0, [pc, #12]	; (10004c44 <dcd_int_enable+0x28>)
10004c36:	f7fd fcab 	bl	10002590 <__assert_func>
10004c3a:	46c0      	nop			; (mov r8, r8)
10004c3c:	100080f0 	.word	0x100080f0
10004c40:	1000812c 	.word	0x1000812c
10004c44:	10008038 	.word	0x10008038

10004c48 <dcd_set_address>:
10004c48:	b510      	push	{r4, lr}
10004c4a:	2800      	cmp	r0, #0
10004c4c:	d105      	bne.n	10004c5a <dcd_set_address+0x12>
10004c4e:	2200      	movs	r2, #0
10004c50:	2100      	movs	r1, #0
10004c52:	2080      	movs	r0, #128	; 0x80
10004c54:	f7ff ffd8 	bl	10004c08 <hw_endpoint_xfer>
10004c58:	bd10      	pop	{r4, pc}
10004c5a:	21db      	movs	r1, #219	; 0xdb
10004c5c:	4b02      	ldr	r3, [pc, #8]	; (10004c68 <dcd_set_address+0x20>)
10004c5e:	4a03      	ldr	r2, [pc, #12]	; (10004c6c <dcd_set_address+0x24>)
10004c60:	0049      	lsls	r1, r1, #1
10004c62:	4803      	ldr	r0, [pc, #12]	; (10004c70 <dcd_set_address+0x28>)
10004c64:	f7fd fc94 	bl	10002590 <__assert_func>
10004c68:	100080f0 	.word	0x100080f0
10004c6c:	1000811c 	.word	0x1000811c
10004c70:	10008038 	.word	0x10008038

10004c74 <dcd_connect>:
10004c74:	4b02      	ldr	r3, [pc, #8]	; (10004c80 <dcd_connect+0xc>)
10004c76:	2280      	movs	r2, #128	; 0x80
10004c78:	0252      	lsls	r2, r2, #9
10004c7a:	64da      	str	r2, [r3, #76]	; 0x4c
10004c7c:	4770      	bx	lr
10004c7e:	46c0      	nop			; (mov r8, r8)
10004c80:	50112000 	.word	0x50112000

10004c84 <dcd_init>:
10004c84:	b570      	push	{r4, r5, r6, lr}
10004c86:	1e04      	subs	r4, r0, #0
10004c88:	d126      	bne.n	10004cd8 <dcd_init+0x54>
10004c8a:	f000 f8ad 	bl	10004de8 <rp2040_usb_init>
10004c8e:	4d16      	ldr	r5, [pc, #88]	; (10004ce8 <dcd_init+0x64>)
10004c90:	230c      	movs	r3, #12
10004c92:	67ab      	str	r3, [r5, #120]	; 0x78
10004c94:	22ff      	movs	r2, #255	; 0xff
10004c96:	4915      	ldr	r1, [pc, #84]	; (10004cec <dcd_init+0x68>)
10004c98:	2005      	movs	r0, #5
10004c9a:	f7fb ff3d 	bl	10000b18 <irq_add_shared_handler>
10004c9e:	2240      	movs	r2, #64	; 0x40
10004ca0:	2100      	movs	r1, #0
10004ca2:	4813      	ldr	r0, [pc, #76]	; (10004cf0 <dcd_init+0x6c>)
10004ca4:	f7ff fa6a 	bl	1000417c <__wrap_memset>
10004ca8:	2200      	movs	r2, #0
10004caa:	2140      	movs	r1, #64	; 0x40
10004cac:	2000      	movs	r0, #0
10004cae:	f7ff ff67 	bl	10004b80 <hw_endpoint_init>
10004cb2:	2200      	movs	r2, #0
10004cb4:	2140      	movs	r1, #64	; 0x40
10004cb6:	2080      	movs	r0, #128	; 0x80
10004cb8:	f7ff ff62 	bl	10004b80 <hw_endpoint_init>
10004cbc:	f001 ff54 	bl	10006b68 <__reset_non_control_endpoints_veneer>
10004cc0:	2301      	movs	r3, #1
10004cc2:	642b      	str	r3, [r5, #64]	; 0x40
10004cc4:	2380      	movs	r3, #128	; 0x80
10004cc6:	059b      	lsls	r3, r3, #22
10004cc8:	64eb      	str	r3, [r5, #76]	; 0x4c
10004cca:	2390      	movs	r3, #144	; 0x90
10004ccc:	4a09      	ldr	r2, [pc, #36]	; (10004cf4 <dcd_init+0x70>)
10004cce:	50ea      	str	r2, [r5, r3]
10004cd0:	0020      	movs	r0, r4
10004cd2:	f7ff ffcf 	bl	10004c74 <dcd_connect>
10004cd6:	bd70      	pop	{r4, r5, r6, pc}
10004cd8:	2186      	movs	r1, #134	; 0x86
10004cda:	4b07      	ldr	r3, [pc, #28]	; (10004cf8 <dcd_init+0x74>)
10004cdc:	4a07      	ldr	r2, [pc, #28]	; (10004cfc <dcd_init+0x78>)
10004cde:	31ff      	adds	r1, #255	; 0xff
10004ce0:	4807      	ldr	r0, [pc, #28]	; (10004d00 <dcd_init+0x7c>)
10004ce2:	f7fd fc55 	bl	10002590 <__assert_func>
10004ce6:	46c0      	nop			; (mov r8, r8)
10004ce8:	50110000 	.word	0x50110000
10004cec:	200004a1 	.word	0x200004a1
10004cf0:	200013ec 	.word	0x200013ec
10004cf4:	0001d010 	.word	0x0001d010
10004cf8:	100080f0 	.word	0x100080f0
10004cfc:	10008150 	.word	0x10008150
10004d00:	10008038 	.word	0x10008038

10004d04 <dcd_edpt0_status_complete>:
10004d04:	780b      	ldrb	r3, [r1, #0]
10004d06:	065b      	lsls	r3, r3, #25
10004d08:	d102      	bne.n	10004d10 <dcd_edpt0_status_complete+0xc>
10004d0a:	784b      	ldrb	r3, [r1, #1]
10004d0c:	2b05      	cmp	r3, #5
10004d0e:	d000      	beq.n	10004d12 <dcd_edpt0_status_complete+0xe>
10004d10:	4770      	bx	lr
10004d12:	788a      	ldrb	r2, [r1, #2]
10004d14:	4b01      	ldr	r3, [pc, #4]	; (10004d1c <dcd_edpt0_status_complete+0x18>)
10004d16:	601a      	str	r2, [r3, #0]
10004d18:	e7fa      	b.n	10004d10 <dcd_edpt0_status_complete+0xc>
10004d1a:	46c0      	nop			; (mov r8, r8)
10004d1c:	50110000 	.word	0x50110000

10004d20 <dcd_edpt_open>:
10004d20:	b510      	push	{r4, lr}
10004d22:	000c      	movs	r4, r1
10004d24:	2800      	cmp	r0, #0
10004d26:	d10d      	bne.n	10004d44 <dcd_edpt_open+0x24>
10004d28:	7909      	ldrb	r1, [r1, #4]
10004d2a:	7963      	ldrb	r3, [r4, #5]
10004d2c:	021b      	lsls	r3, r3, #8
10004d2e:	430b      	orrs	r3, r1
10004d30:	055b      	lsls	r3, r3, #21
10004d32:	0d59      	lsrs	r1, r3, #21
10004d34:	78e2      	ldrb	r2, [r4, #3]
10004d36:	0792      	lsls	r2, r2, #30
10004d38:	0f92      	lsrs	r2, r2, #30
10004d3a:	78a0      	ldrb	r0, [r4, #2]
10004d3c:	f7ff ff20 	bl	10004b80 <hw_endpoint_init>
10004d40:	2001      	movs	r0, #1
10004d42:	bd10      	pop	{r4, pc}
10004d44:	21fc      	movs	r1, #252	; 0xfc
10004d46:	4b03      	ldr	r3, [pc, #12]	; (10004d54 <dcd_edpt_open+0x34>)
10004d48:	4a03      	ldr	r2, [pc, #12]	; (10004d58 <dcd_edpt_open+0x38>)
10004d4a:	31ff      	adds	r1, #255	; 0xff
10004d4c:	4803      	ldr	r0, [pc, #12]	; (10004d5c <dcd_edpt_open+0x3c>)
10004d4e:	f7fd fc1f 	bl	10002590 <__assert_func>
10004d52:	46c0      	nop			; (mov r8, r8)
10004d54:	100080f0 	.word	0x100080f0
10004d58:	1000810c 	.word	0x1000810c
10004d5c:	10008038 	.word	0x10008038

10004d60 <dcd_edpt_close_all>:
10004d60:	b510      	push	{r4, lr}
10004d62:	f001 ff01 	bl	10006b68 <__reset_non_control_endpoints_veneer>
10004d66:	bd10      	pop	{r4, pc}

10004d68 <dcd_edpt_xfer>:
10004d68:	b510      	push	{r4, lr}
10004d6a:	0004      	movs	r4, r0
10004d6c:	0008      	movs	r0, r1
10004d6e:	0011      	movs	r1, r2
10004d70:	001a      	movs	r2, r3
10004d72:	2c00      	cmp	r4, #0
10004d74:	d103      	bne.n	10004d7e <dcd_edpt_xfer+0x16>
10004d76:	f7ff ff47 	bl	10004c08 <hw_endpoint_xfer>
10004d7a:	2001      	movs	r0, #1
10004d7c:	bd10      	pop	{r4, pc}
10004d7e:	4b03      	ldr	r3, [pc, #12]	; (10004d8c <dcd_edpt_xfer+0x24>)
10004d80:	4a03      	ldr	r2, [pc, #12]	; (10004d90 <dcd_edpt_xfer+0x28>)
10004d82:	4904      	ldr	r1, [pc, #16]	; (10004d94 <dcd_edpt_xfer+0x2c>)
10004d84:	4804      	ldr	r0, [pc, #16]	; (10004d98 <dcd_edpt_xfer+0x30>)
10004d86:	f7fd fc03 	bl	10002590 <__assert_func>
10004d8a:	46c0      	nop			; (mov r8, r8)
10004d8c:	100080f0 	.word	0x100080f0
10004d90:	100080fc 	.word	0x100080fc
10004d94:	0000020a 	.word	0x0000020a
10004d98:	10008038 	.word	0x10008038

10004d9c <dcd_edpt_stall>:
10004d9c:	b510      	push	{r4, lr}
10004d9e:	0008      	movs	r0, r1
10004da0:	064b      	lsls	r3, r1, #25
10004da2:	d105      	bne.n	10004db0 <dcd_edpt_stall+0x14>
10004da4:	09cb      	lsrs	r3, r1, #7
10004da6:	2b01      	cmp	r3, #1
10004da8:	d00a      	beq.n	10004dc0 <dcd_edpt_stall+0x24>
10004daa:	2202      	movs	r2, #2
10004dac:	4b05      	ldr	r3, [pc, #20]	; (10004dc4 <dcd_edpt_stall+0x28>)
10004dae:	669a      	str	r2, [r3, #104]	; 0x68
10004db0:	f7ff fea2 	bl	10004af8 <hw_endpoint_get_by_addr>
10004db4:	2280      	movs	r2, #128	; 0x80
10004db6:	0112      	lsls	r2, r2, #4
10004db8:	2100      	movs	r1, #0
10004dba:	f001 fefd 	bl	10006bb8 <___hw_endpoint_buffer_control_update32_veneer>
10004dbe:	bd10      	pop	{r4, pc}
10004dc0:	2201      	movs	r2, #1
10004dc2:	e7f3      	b.n	10004dac <dcd_edpt_stall+0x10>
10004dc4:	50112000 	.word	0x50112000

10004dc8 <dcd_edpt_clear_stall>:
10004dc8:	b510      	push	{r4, lr}
10004dca:	0008      	movs	r0, r1
10004dcc:	064b      	lsls	r3, r1, #25
10004dce:	d100      	bne.n	10004dd2 <dcd_edpt_clear_stall+0xa>
10004dd0:	bd10      	pop	{r4, pc}
10004dd2:	f7ff fe91 	bl	10004af8 <hw_endpoint_get_by_addr>
10004dd6:	2300      	movs	r3, #0
10004dd8:	70c3      	strb	r3, [r0, #3]
10004dda:	2200      	movs	r2, #0
10004ddc:	4901      	ldr	r1, [pc, #4]	; (10004de4 <dcd_edpt_clear_stall+0x1c>)
10004dde:	f001 feeb 	bl	10006bb8 <___hw_endpoint_buffer_control_update32_veneer>
10004de2:	e7f5      	b.n	10004dd0 <dcd_edpt_clear_stall+0x8>
10004de4:	fffff7ff 	.word	0xfffff7ff

10004de8 <rp2040_usb_init>:
10004de8:	b510      	push	{r4, lr}
10004dea:	2380      	movs	r3, #128	; 0x80
10004dec:	045b      	lsls	r3, r3, #17
10004dee:	4a0c      	ldr	r2, [pc, #48]	; (10004e20 <rp2040_usb_init+0x38>)
10004df0:	6013      	str	r3, [r2, #0]
10004df2:	4a0c      	ldr	r2, [pc, #48]	; (10004e24 <rp2040_usb_init+0x3c>)
10004df4:	6013      	str	r3, [r2, #0]
10004df6:	4b0c      	ldr	r3, [pc, #48]	; (10004e28 <rp2040_usb_init+0x40>)
10004df8:	689a      	ldr	r2, [r3, #8]
10004dfa:	2380      	movs	r3, #128	; 0x80
10004dfc:	045b      	lsls	r3, r3, #17
10004dfe:	4393      	bics	r3, r2
10004e00:	d1f9      	bne.n	10004df6 <rp2040_usb_init+0xe>
10004e02:	4c0a      	ldr	r4, [pc, #40]	; (10004e2c <rp2040_usb_init+0x44>)
10004e04:	229c      	movs	r2, #156	; 0x9c
10004e06:	2100      	movs	r1, #0
10004e08:	0020      	movs	r0, r4
10004e0a:	f7ff f9b7 	bl	1000417c <__wrap_memset>
10004e0e:	2280      	movs	r2, #128	; 0x80
10004e10:	0152      	lsls	r2, r2, #5
10004e12:	2100      	movs	r1, #0
10004e14:	4806      	ldr	r0, [pc, #24]	; (10004e30 <rp2040_usb_init+0x48>)
10004e16:	f7ff f9b1 	bl	1000417c <__wrap_memset>
10004e1a:	2309      	movs	r3, #9
10004e1c:	6763      	str	r3, [r4, #116]	; 0x74
10004e1e:	bd10      	pop	{r4, pc}
10004e20:	4000e000 	.word	0x4000e000
10004e24:	4000f000 	.word	0x4000f000
10004e28:	4000c000 	.word	0x4000c000
10004e2c:	50110000 	.word	0x50110000
10004e30:	50100000 	.word	0x50100000

10004e34 <hw_endpoint_xfer_start>:
10004e34:	b570      	push	{r4, r5, r6, lr}
10004e36:	0004      	movs	r4, r0
10004e38:	000d      	movs	r5, r1
10004e3a:	0016      	movs	r6, r2
10004e3c:	7e83      	ldrb	r3, [r0, #26]
10004e3e:	2b00      	cmp	r3, #0
10004e40:	d117      	bne.n	10004e72 <hw_endpoint_xfer_start+0x3e>
10004e42:	82a6      	strh	r6, [r4, #20]
10004e44:	2300      	movs	r3, #0
10004e46:	82e3      	strh	r3, [r4, #22]
10004e48:	3301      	adds	r3, #1
10004e4a:	76a3      	strb	r3, [r4, #26]
10004e4c:	6125      	str	r5, [r4, #16]
10004e4e:	0020      	movs	r0, r4
10004e50:	f001 fe72 	bl	10006b38 <__e15_is_bulkin_ep_veneer>
10004e54:	2800      	cmp	r0, #0
10004e56:	d004      	beq.n	10004e62 <hw_endpoint_xfer_start+0x2e>
10004e58:	4a09      	ldr	r2, [pc, #36]	; (10004e80 <hw_endpoint_xfer_start+0x4c>)
10004e5a:	2390      	movs	r3, #144	; 0x90
10004e5c:	2180      	movs	r1, #128	; 0x80
10004e5e:	0289      	lsls	r1, r1, #10
10004e60:	50d1      	str	r1, [r2, r3]
10004e62:	0020      	movs	r0, r4
10004e64:	f001 fea0 	bl	10006ba8 <__e15_is_critical_frame_period_veneer>
10004e68:	2800      	cmp	r0, #0
10004e6a:	d005      	beq.n	10004e78 <hw_endpoint_xfer_start+0x44>
10004e6c:	2301      	movs	r3, #1
10004e6e:	7723      	strb	r3, [r4, #28]
10004e70:	bd70      	pop	{r4, r5, r6, pc}
10004e72:	f001 fe91 	bl	10006b98 <__hw_endpoint_reset_transfer_veneer>
10004e76:	e7e4      	b.n	10004e42 <hw_endpoint_xfer_start+0xe>
10004e78:	0020      	movs	r0, r4
10004e7a:	f001 fe85 	bl	10006b88 <__hw_endpoint_start_next_buffer_veneer>
10004e7e:	e7f7      	b.n	10004e70 <hw_endpoint_xfer_start+0x3c>
10004e80:	50112000 	.word	0x50112000

10004e84 <configuration_reset>:
10004e84:	b570      	push	{r4, r5, r6, lr}
10004e86:	0005      	movs	r5, r0
10004e88:	2400      	movs	r4, #0
10004e8a:	e00c      	b.n	10004ea6 <configuration_reset+0x22>
10004e8c:	0063      	lsls	r3, r4, #1
10004e8e:	191b      	adds	r3, r3, r4
10004e90:	00da      	lsls	r2, r3, #3
10004e92:	4b18      	ldr	r3, [pc, #96]	; (10004ef4 <configuration_reset+0x70>)
10004e94:	681b      	ldr	r3, [r3, #0]
10004e96:	189b      	adds	r3, r3, r2
10004e98:	2b00      	cmp	r3, #0
10004e9a:	d02a      	beq.n	10004ef2 <configuration_reset+0x6e>
10004e9c:	685b      	ldr	r3, [r3, #4]
10004e9e:	0028      	movs	r0, r5
10004ea0:	4798      	blx	r3
10004ea2:	3401      	adds	r4, #1
10004ea4:	b2e4      	uxtb	r4, r4
10004ea6:	4b14      	ldr	r3, [pc, #80]	; (10004ef8 <configuration_reset+0x74>)
10004ea8:	781b      	ldrb	r3, [r3, #0]
10004eaa:	42a3      	cmp	r3, r4
10004eac:	d310      	bcc.n	10004ed0 <configuration_reset+0x4c>
10004eae:	4a13      	ldr	r2, [pc, #76]	; (10004efc <configuration_reset+0x78>)
10004eb0:	2a00      	cmp	r2, #0
10004eb2:	d00b      	beq.n	10004ecc <configuration_reset+0x48>
10004eb4:	42a3      	cmp	r3, r4
10004eb6:	d8e9      	bhi.n	10004e8c <configuration_reset+0x8>
10004eb8:	1ae3      	subs	r3, r4, r3
10004eba:	b2db      	uxtb	r3, r3
10004ebc:	2b00      	cmp	r3, #0
10004ebe:	d118      	bne.n	10004ef2 <configuration_reset+0x6e>
10004ec0:	005a      	lsls	r2, r3, #1
10004ec2:	18d2      	adds	r2, r2, r3
10004ec4:	00d2      	lsls	r2, r2, #3
10004ec6:	4b0e      	ldr	r3, [pc, #56]	; (10004f00 <configuration_reset+0x7c>)
10004ec8:	189b      	adds	r3, r3, r2
10004eca:	e7e5      	b.n	10004e98 <configuration_reset+0x14>
10004ecc:	0023      	movs	r3, r4
10004ece:	e7f5      	b.n	10004ebc <configuration_reset+0x38>
10004ed0:	4c0c      	ldr	r4, [pc, #48]	; (10004f04 <configuration_reset+0x80>)
10004ed2:	2253      	movs	r2, #83	; 0x53
10004ed4:	2100      	movs	r1, #0
10004ed6:	0020      	movs	r0, r4
10004ed8:	f7ff f950 	bl	1000417c <__wrap_memset>
10004edc:	1ce0      	adds	r0, r4, #3
10004ede:	2210      	movs	r2, #16
10004ee0:	21ff      	movs	r1, #255	; 0xff
10004ee2:	f7ff f94b 	bl	1000417c <__wrap_memset>
10004ee6:	0020      	movs	r0, r4
10004ee8:	3013      	adds	r0, #19
10004eea:	2220      	movs	r2, #32
10004eec:	21ff      	movs	r1, #255	; 0xff
10004eee:	f7ff f945 	bl	1000417c <__wrap_memset>
10004ef2:	bd70      	pop	{r4, r5, r6, pc}
10004ef4:	20000dd4 	.word	0x20000dd4
10004ef8:	20001a4d 	.word	0x20001a4d
10004efc:	10004515 	.word	0x10004515
10004f00:	100082fc 	.word	0x100082fc
10004f04:	200010fc 	.word	0x200010fc

10004f08 <usbd_reset>:
10004f08:	b510      	push	{r4, lr}
10004f0a:	f7ff ffbb 	bl	10004e84 <configuration_reset>
10004f0e:	f000 fdf1 	bl	10005af4 <usbd_control_reset>
10004f12:	bd10      	pop	{r4, pc}

10004f14 <invoke_class_control>:
10004f14:	b570      	push	{r4, r5, r6, lr}
10004f16:	0005      	movs	r5, r0
10004f18:	000c      	movs	r4, r1
10004f1a:	0016      	movs	r6, r2
10004f1c:	68c8      	ldr	r0, [r1, #12]
10004f1e:	f000 fdf3 	bl	10005b08 <usbd_control_set_complete_callback>
10004f22:	68e3      	ldr	r3, [r4, #12]
10004f24:	0032      	movs	r2, r6
10004f26:	2101      	movs	r1, #1
10004f28:	0028      	movs	r0, r5
10004f2a:	4798      	blx	r3
10004f2c:	bd70      	pop	{r4, r5, r6, pc}
	...

10004f30 <process_set_config>:
10004f30:	b5f0      	push	{r4, r5, r6, r7, lr}
10004f32:	46de      	mov	lr, fp
10004f34:	4657      	mov	r7, sl
10004f36:	464e      	mov	r6, r9
10004f38:	b5c0      	push	{r6, r7, lr}
10004f3a:	b082      	sub	sp, #8
10004f3c:	9000      	str	r0, [sp, #0]
10004f3e:	3901      	subs	r1, #1
10004f40:	b2c8      	uxtb	r0, r1
10004f42:	f7ff fd43 	bl	100049cc <tud_descriptor_configuration_cb>
10004f46:	2800      	cmp	r0, #0
10004f48:	d100      	bne.n	10004f4c <process_set_config+0x1c>
10004f4a:	e08c      	b.n	10005066 <process_set_config+0x136>
10004f4c:	7843      	ldrb	r3, [r0, #1]
10004f4e:	469a      	mov	sl, r3
10004f50:	2b02      	cmp	r3, #2
10004f52:	d000      	beq.n	10004f56 <process_set_config+0x26>
10004f54:	e089      	b.n	1000506a <process_set_config+0x13a>
10004f56:	79c5      	ldrb	r5, [r0, #7]
10004f58:	116a      	asrs	r2, r5, #5
10004f5a:	3b01      	subs	r3, #1
10004f5c:	494b      	ldr	r1, [pc, #300]	; (1000508c <process_set_config+0x15c>)
10004f5e:	401a      	ands	r2, r3
10004f60:	0114      	lsls	r4, r2, #4
10004f62:	780a      	ldrb	r2, [r1, #0]
10004f64:	2710      	movs	r7, #16
10004f66:	43ba      	bics	r2, r7
10004f68:	4322      	orrs	r2, r4
10004f6a:	700a      	strb	r2, [r1, #0]
10004f6c:	11ad      	asrs	r5, r5, #6
10004f6e:	402b      	ands	r3, r5
10004f70:	015b      	lsls	r3, r3, #5
10004f72:	b2d2      	uxtb	r2, r2
10004f74:	2420      	movs	r4, #32
10004f76:	43a2      	bics	r2, r4
10004f78:	4313      	orrs	r3, r2
10004f7a:	700b      	strb	r3, [r1, #0]
10004f7c:	0006      	movs	r6, r0
10004f7e:	3609      	adds	r6, #9
10004f80:	7882      	ldrb	r2, [r0, #2]
10004f82:	78c4      	ldrb	r4, [r0, #3]
10004f84:	0224      	lsls	r4, r4, #8
10004f86:	4314      	orrs	r4, r2
10004f88:	1904      	adds	r4, r0, r4
10004f8a:	42a6      	cmp	r6, r4
10004f8c:	d264      	bcs.n	10005058 <process_set_config+0x128>
10004f8e:	7873      	ldrb	r3, [r6, #1]
10004f90:	2b0b      	cmp	r3, #11
10004f92:	d009      	beq.n	10004fa8 <process_set_config+0x78>
10004f94:	2301      	movs	r3, #1
10004f96:	469b      	mov	fp, r3
10004f98:	7873      	ldrb	r3, [r6, #1]
10004f9a:	2b04      	cmp	r3, #4
10004f9c:	d16c      	bne.n	10005078 <process_set_config+0x148>
10004f9e:	1ba3      	subs	r3, r4, r6
10004fa0:	b29b      	uxth	r3, r3
10004fa2:	4699      	mov	r9, r3
10004fa4:	2500      	movs	r5, #0
10004fa6:	e025      	b.n	10004ff4 <process_set_config+0xc4>
10004fa8:	78f3      	ldrb	r3, [r6, #3]
10004faa:	469b      	mov	fp, r3
10004fac:	7833      	ldrb	r3, [r6, #0]
10004fae:	18f6      	adds	r6, r6, r3
10004fb0:	e7f2      	b.n	10004f98 <process_set_config+0x68>
10004fb2:	006f      	lsls	r7, r5, #1
10004fb4:	197f      	adds	r7, r7, r5
10004fb6:	00fb      	lsls	r3, r7, #3
10004fb8:	4a35      	ldr	r2, [pc, #212]	; (10005090 <process_set_config+0x160>)
10004fba:	6817      	ldr	r7, [r2, #0]
10004fbc:	18ff      	adds	r7, r7, r3
10004fbe:	e02b      	b.n	10005018 <process_set_config+0xe8>
10004fc0:	002b      	movs	r3, r5
10004fc2:	e022      	b.n	1000500a <process_set_config+0xda>
10004fc4:	68ba      	ldr	r2, [r7, #8]
10004fc6:	4b33      	ldr	r3, [pc, #204]	; (10005094 <process_set_config+0x164>)
10004fc8:	429a      	cmp	r2, r3
10004fca:	d134      	bne.n	10005036 <process_set_config+0x106>
10004fcc:	46d3      	mov	fp, sl
10004fce:	e032      	b.n	10005036 <process_set_config+0x106>
10004fd0:	482e      	ldr	r0, [pc, #184]	; (1000508c <process_set_config+0x15c>)
10004fd2:	002b      	movs	r3, r5
10004fd4:	9f01      	ldr	r7, [sp, #4]
10004fd6:	003a      	movs	r2, r7
10004fd8:	0031      	movs	r1, r6
10004fda:	3013      	adds	r0, #19
10004fdc:	f001 f9a2 	bl	10006324 <tu_edpt_bind_driver>
10004fe0:	46bc      	mov	ip, r7
10004fe2:	4466      	add	r6, ip
10004fe4:	4b2c      	ldr	r3, [pc, #176]	; (10005098 <process_set_config+0x168>)
10004fe6:	781b      	ldrb	r3, [r3, #0]
10004fe8:	42ab      	cmp	r3, r5
10004fea:	d2ce      	bcs.n	10004f8a <process_set_config+0x5a>
10004fec:	2000      	movs	r0, #0
10004fee:	e03d      	b.n	1000506c <process_set_config+0x13c>
10004ff0:	3501      	adds	r5, #1
10004ff2:	b2ed      	uxtb	r5, r5
10004ff4:	4b28      	ldr	r3, [pc, #160]	; (10005098 <process_set_config+0x168>)
10004ff6:	781b      	ldrb	r3, [r3, #0]
10004ff8:	42ab      	cmp	r3, r5
10004ffa:	d3f3      	bcc.n	10004fe4 <process_set_config+0xb4>
10004ffc:	4a27      	ldr	r2, [pc, #156]	; (1000509c <process_set_config+0x16c>)
10004ffe:	2a00      	cmp	r2, #0
10005000:	d0de      	beq.n	10004fc0 <process_set_config+0x90>
10005002:	42ab      	cmp	r3, r5
10005004:	d8d5      	bhi.n	10004fb2 <process_set_config+0x82>
10005006:	1aeb      	subs	r3, r5, r3
10005008:	b2db      	uxtb	r3, r3
1000500a:	2b00      	cmp	r3, #0
1000500c:	d136      	bne.n	1000507c <process_set_config+0x14c>
1000500e:	005f      	lsls	r7, r3, #1
10005010:	18fb      	adds	r3, r7, r3
10005012:	00db      	lsls	r3, r3, #3
10005014:	4f22      	ldr	r7, [pc, #136]	; (100050a0 <process_set_config+0x170>)
10005016:	18ff      	adds	r7, r7, r3
10005018:	2f00      	cmp	r7, #0
1000501a:	d031      	beq.n	10005080 <process_set_config+0x150>
1000501c:	464a      	mov	r2, r9
1000501e:	0031      	movs	r1, r6
10005020:	9800      	ldr	r0, [sp, #0]
10005022:	68bb      	ldr	r3, [r7, #8]
10005024:	4798      	blx	r3
10005026:	9001      	str	r0, [sp, #4]
10005028:	2808      	cmp	r0, #8
1000502a:	d9e1      	bls.n	10004ff0 <process_set_config+0xc0>
1000502c:	4581      	cmp	r9, r0
1000502e:	d3df      	bcc.n	10004ff0 <process_set_config+0xc0>
10005030:	465b      	mov	r3, fp
10005032:	2b01      	cmp	r3, #1
10005034:	d0c6      	beq.n	10004fc4 <process_set_config+0x94>
10005036:	2200      	movs	r2, #0
10005038:	4593      	cmp	fp, r2
1000503a:	d9c9      	bls.n	10004fd0 <process_set_config+0xa0>
1000503c:	78b3      	ldrb	r3, [r6, #2]
1000503e:	189b      	adds	r3, r3, r2
10005040:	b2db      	uxtb	r3, r3
10005042:	4912      	ldr	r1, [pc, #72]	; (1000508c <process_set_config+0x15c>)
10005044:	18c9      	adds	r1, r1, r3
10005046:	78c9      	ldrb	r1, [r1, #3]
10005048:	29ff      	cmp	r1, #255	; 0xff
1000504a:	d11b      	bne.n	10005084 <process_set_config+0x154>
1000504c:	490f      	ldr	r1, [pc, #60]	; (1000508c <process_set_config+0x15c>)
1000504e:	18cb      	adds	r3, r1, r3
10005050:	70dd      	strb	r5, [r3, #3]
10005052:	3201      	adds	r2, #1
10005054:	b2d2      	uxtb	r2, r2
10005056:	e7ef      	b.n	10005038 <process_set_config+0x108>
10005058:	4b12      	ldr	r3, [pc, #72]	; (100050a4 <process_set_config+0x174>)
1000505a:	2b00      	cmp	r3, #0
1000505c:	d014      	beq.n	10005088 <process_set_config+0x158>
1000505e:	e000      	b.n	10005062 <process_set_config+0x132>
10005060:	bf00      	nop
10005062:	2001      	movs	r0, #1
10005064:	e002      	b.n	1000506c <process_set_config+0x13c>
10005066:	2000      	movs	r0, #0
10005068:	e000      	b.n	1000506c <process_set_config+0x13c>
1000506a:	2000      	movs	r0, #0
1000506c:	b002      	add	sp, #8
1000506e:	bce0      	pop	{r5, r6, r7}
10005070:	46bb      	mov	fp, r7
10005072:	46b2      	mov	sl, r6
10005074:	46a9      	mov	r9, r5
10005076:	bdf0      	pop	{r4, r5, r6, r7, pc}
10005078:	2000      	movs	r0, #0
1000507a:	e7f7      	b.n	1000506c <process_set_config+0x13c>
1000507c:	2000      	movs	r0, #0
1000507e:	e7f5      	b.n	1000506c <process_set_config+0x13c>
10005080:	2000      	movs	r0, #0
10005082:	e7f3      	b.n	1000506c <process_set_config+0x13c>
10005084:	2000      	movs	r0, #0
10005086:	e7f1      	b.n	1000506c <process_set_config+0x13c>
10005088:	2001      	movs	r0, #1
1000508a:	e7ef      	b.n	1000506c <process_set_config+0x13c>
1000508c:	200010fc 	.word	0x200010fc
10005090:	20000dd4 	.word	0x20000dd4
10005094:	10005ed9 	.word	0x10005ed9
10005098:	20001a4d 	.word	0x20001a4d
1000509c:	10004515 	.word	0x10004515
100050a0:	100082fc 	.word	0x100082fc
100050a4:	00000000 	.word	0x00000000

100050a8 <process_get_descriptor>:
100050a8:	b570      	push	{r4, r5, r6, lr}
100050aa:	0005      	movs	r5, r0
100050ac:	000c      	movs	r4, r1
100050ae:	78cb      	ldrb	r3, [r1, #3]
100050b0:	7888      	ldrb	r0, [r1, #2]
100050b2:	2b0f      	cmp	r3, #15
100050b4:	d850      	bhi.n	10005158 <process_get_descriptor+0xb0>
100050b6:	009a      	lsls	r2, r3, #2
100050b8:	492e      	ldr	r1, [pc, #184]	; (10005174 <process_get_descriptor+0xcc>)
100050ba:	588a      	ldr	r2, [r1, r2]
100050bc:	4697      	mov	pc, r2
100050be:	f7ff fc81 	bl	100049c4 <tud_descriptor_device_cb>
100050c2:	0002      	movs	r2, r0
100050c4:	2312      	movs	r3, #18
100050c6:	0021      	movs	r1, r4
100050c8:	0028      	movs	r0, r5
100050ca:	f000 fcd9 	bl	10005a80 <tud_control_xfer>
100050ce:	e044      	b.n	1000515a <process_get_descriptor+0xb2>
100050d0:	4b29      	ldr	r3, [pc, #164]	; (10005178 <process_get_descriptor+0xd0>)
100050d2:	2b00      	cmp	r3, #0
100050d4:	d042      	beq.n	1000515c <process_get_descriptor+0xb4>
100050d6:	e000      	b.n	100050da <process_get_descriptor+0x32>
100050d8:	bf00      	nop
100050da:	1e02      	subs	r2, r0, #0
100050dc:	d040      	beq.n	10005160 <process_get_descriptor+0xb8>
100050de:	7881      	ldrb	r1, [r0, #2]
100050e0:	78c3      	ldrb	r3, [r0, #3]
100050e2:	021b      	lsls	r3, r3, #8
100050e4:	430b      	orrs	r3, r1
100050e6:	0021      	movs	r1, r4
100050e8:	0028      	movs	r0, r5
100050ea:	f000 fcc9 	bl	10005a80 <tud_control_xfer>
100050ee:	e034      	b.n	1000515a <process_get_descriptor+0xb2>
100050f0:	2b02      	cmp	r3, #2
100050f2:	d009      	beq.n	10005108 <process_get_descriptor+0x60>
100050f4:	4b21      	ldr	r3, [pc, #132]	; (1000517c <process_get_descriptor+0xd4>)
100050f6:	2b00      	cmp	r3, #0
100050f8:	d034      	beq.n	10005164 <process_get_descriptor+0xbc>
100050fa:	e000      	b.n	100050fe <process_get_descriptor+0x56>
100050fc:	bf00      	nop
100050fe:	0002      	movs	r2, r0
10005100:	2a00      	cmp	r2, #0
10005102:	d105      	bne.n	10005110 <process_get_descriptor+0x68>
10005104:	2000      	movs	r0, #0
10005106:	e028      	b.n	1000515a <process_get_descriptor+0xb2>
10005108:	f7ff fc60 	bl	100049cc <tud_descriptor_configuration_cb>
1000510c:	0002      	movs	r2, r0
1000510e:	e7f7      	b.n	10005100 <process_get_descriptor+0x58>
10005110:	7891      	ldrb	r1, [r2, #2]
10005112:	78d3      	ldrb	r3, [r2, #3]
10005114:	021b      	lsls	r3, r3, #8
10005116:	430b      	orrs	r3, r1
10005118:	0021      	movs	r1, r4
1000511a:	0028      	movs	r0, r5
1000511c:	f000 fcb0 	bl	10005a80 <tud_control_xfer>
10005120:	e01b      	b.n	1000515a <process_get_descriptor+0xb2>
10005122:	7923      	ldrb	r3, [r4, #4]
10005124:	7961      	ldrb	r1, [r4, #5]
10005126:	0209      	lsls	r1, r1, #8
10005128:	4319      	orrs	r1, r3
1000512a:	f7ff fc53 	bl	100049d4 <tud_descriptor_string_cb>
1000512e:	1e02      	subs	r2, r0, #0
10005130:	d01a      	beq.n	10005168 <process_get_descriptor+0xc0>
10005132:	7803      	ldrb	r3, [r0, #0]
10005134:	0021      	movs	r1, r4
10005136:	0028      	movs	r0, r5
10005138:	f000 fca2 	bl	10005a80 <tud_control_xfer>
1000513c:	e00d      	b.n	1000515a <process_get_descriptor+0xb2>
1000513e:	4b10      	ldr	r3, [pc, #64]	; (10005180 <process_get_descriptor+0xd8>)
10005140:	2b00      	cmp	r3, #0
10005142:	d013      	beq.n	1000516c <process_get_descriptor+0xc4>
10005144:	e000      	b.n	10005148 <process_get_descriptor+0xa0>
10005146:	bf00      	nop
10005148:	1e02      	subs	r2, r0, #0
1000514a:	d011      	beq.n	10005170 <process_get_descriptor+0xc8>
1000514c:	7803      	ldrb	r3, [r0, #0]
1000514e:	0021      	movs	r1, r4
10005150:	0028      	movs	r0, r5
10005152:	f000 fc95 	bl	10005a80 <tud_control_xfer>
10005156:	e000      	b.n	1000515a <process_get_descriptor+0xb2>
10005158:	2000      	movs	r0, #0
1000515a:	bd70      	pop	{r4, r5, r6, pc}
1000515c:	2000      	movs	r0, #0
1000515e:	e7fc      	b.n	1000515a <process_get_descriptor+0xb2>
10005160:	2000      	movs	r0, #0
10005162:	e7fa      	b.n	1000515a <process_get_descriptor+0xb2>
10005164:	2000      	movs	r0, #0
10005166:	e7f8      	b.n	1000515a <process_get_descriptor+0xb2>
10005168:	2000      	movs	r0, #0
1000516a:	e7f6      	b.n	1000515a <process_get_descriptor+0xb2>
1000516c:	2000      	movs	r0, #0
1000516e:	e7f4      	b.n	1000515a <process_get_descriptor+0xb2>
10005170:	2000      	movs	r0, #0
10005172:	e7f2      	b.n	1000515a <process_get_descriptor+0xb2>
10005174:	10008270 	.word	0x10008270
	...

10005184 <tud_mounted>:
10005184:	4b02      	ldr	r3, [pc, #8]	; (10005190 <tud_mounted+0xc>)
10005186:	7858      	ldrb	r0, [r3, #1]
10005188:	1e43      	subs	r3, r0, #1
1000518a:	4198      	sbcs	r0, r3
1000518c:	b2c0      	uxtb	r0, r0
1000518e:	4770      	bx	lr
10005190:	200010fc 	.word	0x200010fc

10005194 <tud_suspended>:
10005194:	4b02      	ldr	r3, [pc, #8]	; (100051a0 <tud_suspended+0xc>)
10005196:	7818      	ldrb	r0, [r3, #0]
10005198:	0740      	lsls	r0, r0, #29
1000519a:	0fc0      	lsrs	r0, r0, #31
1000519c:	4770      	bx	lr
1000519e:	46c0      	nop			; (mov r8, r8)
100051a0:	200010fc 	.word	0x200010fc

100051a4 <tud_inited>:
100051a4:	4b03      	ldr	r3, [pc, #12]	; (100051b4 <tud_inited+0x10>)
100051a6:	7818      	ldrb	r0, [r3, #0]
100051a8:	38ff      	subs	r0, #255	; 0xff
100051aa:	1e43      	subs	r3, r0, #1
100051ac:	4198      	sbcs	r0, r3
100051ae:	b2c0      	uxtb	r0, r0
100051b0:	4770      	bx	lr
100051b2:	46c0      	nop			; (mov r8, r8)
100051b4:	20000c8c 	.word	0x20000c8c

100051b8 <tud_init>:
100051b8:	b570      	push	{r4, r5, r6, lr}
100051ba:	0004      	movs	r4, r0
100051bc:	f7ff fff2 	bl	100051a4 <tud_inited>
100051c0:	1e06      	subs	r6, r0, #0
100051c2:	d001      	beq.n	100051c8 <tud_init+0x10>
100051c4:	0030      	movs	r0, r6
100051c6:	bd70      	pop	{r4, r5, r6, pc}
100051c8:	2253      	movs	r2, #83	; 0x53
100051ca:	2100      	movs	r1, #0
100051cc:	4823      	ldr	r0, [pc, #140]	; (1000525c <tud_init+0xa4>)
100051ce:	f7fe ffd5 	bl	1000417c <__wrap_memset>
100051d2:	4d23      	ldr	r5, [pc, #140]	; (10005260 <tud_init+0xa8>)
100051d4:	0028      	movs	r0, r5
100051d6:	f7fb ff31 	bl	1000103c <mutex_init>
100051da:	4b22      	ldr	r3, [pc, #136]	; (10005264 <tud_init+0xac>)
100051dc:	601d      	str	r5, [r3, #0]
100051de:	4d22      	ldr	r5, [pc, #136]	; (10005268 <tud_init+0xb0>)
100051e0:	0028      	movs	r0, r5
100051e2:	3014      	adds	r0, #20
100051e4:	f7fb ff50 	bl	10001088 <critical_section_init>
100051e8:	0028      	movs	r0, r5
100051ea:	f001 fbf0 	bl	100069ce <tu_fifo_clear>
100051ee:	4b1f      	ldr	r3, [pc, #124]	; (1000526c <tud_init+0xb4>)
100051f0:	601d      	str	r5, [r3, #0]
100051f2:	4b1f      	ldr	r3, [pc, #124]	; (10005270 <tud_init+0xb8>)
100051f4:	2b00      	cmp	r3, #0
100051f6:	d004      	beq.n	10005202 <tud_init+0x4a>
100051f8:	481e      	ldr	r0, [pc, #120]	; (10005274 <tud_init+0xbc>)
100051fa:	f7ff f98b 	bl	10004514 <usbd_app_driver_get_cb>
100051fe:	4b1e      	ldr	r3, [pc, #120]	; (10005278 <tud_init+0xc0>)
10005200:	6018      	str	r0, [r3, #0]
10005202:	2500      	movs	r5, #0
10005204:	e00b      	b.n	1000521e <tud_init+0x66>
10005206:	006b      	lsls	r3, r5, #1
10005208:	195b      	adds	r3, r3, r5
1000520a:	00da      	lsls	r2, r3, #3
1000520c:	4b1a      	ldr	r3, [pc, #104]	; (10005278 <tud_init+0xc0>)
1000520e:	681b      	ldr	r3, [r3, #0]
10005210:	189b      	adds	r3, r3, r2
10005212:	2b00      	cmp	r3, #0
10005214:	d0d6      	beq.n	100051c4 <tud_init+0xc>
10005216:	681b      	ldr	r3, [r3, #0]
10005218:	4798      	blx	r3
1000521a:	3501      	adds	r5, #1
1000521c:	b2ed      	uxtb	r5, r5
1000521e:	4b15      	ldr	r3, [pc, #84]	; (10005274 <tud_init+0xbc>)
10005220:	781b      	ldrb	r3, [r3, #0]
10005222:	42ab      	cmp	r3, r5
10005224:	d310      	bcc.n	10005248 <tud_init+0x90>
10005226:	4a12      	ldr	r2, [pc, #72]	; (10005270 <tud_init+0xb8>)
10005228:	2a00      	cmp	r2, #0
1000522a:	d00b      	beq.n	10005244 <tud_init+0x8c>
1000522c:	42ab      	cmp	r3, r5
1000522e:	d8ea      	bhi.n	10005206 <tud_init+0x4e>
10005230:	1aeb      	subs	r3, r5, r3
10005232:	b2db      	uxtb	r3, r3
10005234:	2b00      	cmp	r3, #0
10005236:	d1c5      	bne.n	100051c4 <tud_init+0xc>
10005238:	005a      	lsls	r2, r3, #1
1000523a:	18d2      	adds	r2, r2, r3
1000523c:	00d2      	lsls	r2, r2, #3
1000523e:	4b0f      	ldr	r3, [pc, #60]	; (1000527c <tud_init+0xc4>)
10005240:	189b      	adds	r3, r3, r2
10005242:	e7e6      	b.n	10005212 <tud_init+0x5a>
10005244:	002b      	movs	r3, r5
10005246:	e7f5      	b.n	10005234 <tud_init+0x7c>
10005248:	4b0d      	ldr	r3, [pc, #52]	; (10005280 <tud_init+0xc8>)
1000524a:	701c      	strb	r4, [r3, #0]
1000524c:	0020      	movs	r0, r4
1000524e:	f7ff fd19 	bl	10004c84 <dcd_init>
10005252:	0020      	movs	r0, r4
10005254:	f7ff fce2 	bl	10004c1c <dcd_int_enable>
10005258:	2601      	movs	r6, #1
1000525a:	e7b3      	b.n	100051c4 <tud_init+0xc>
1000525c:	200010fc 	.word	0x200010fc
10005260:	200010b4 	.word	0x200010b4
10005264:	20001150 	.word	0x20001150
10005268:	20000c70 	.word	0x20000c70
1000526c:	20001154 	.word	0x20001154
10005270:	10004515 	.word	0x10004515
10005274:	20001a4d 	.word	0x20001a4d
10005278:	20000dd4 	.word	0x20000dd4
1000527c:	100082fc 	.word	0x100082fc
10005280:	20000c8c 	.word	0x20000c8c

10005284 <usbd_defer_func>:
10005284:	b5f0      	push	{r4, r5, r6, r7, lr}
10005286:	b085      	sub	sp, #20
10005288:	0007      	movs	r7, r0
1000528a:	000e      	movs	r6, r1
1000528c:	0015      	movs	r5, r2
1000528e:	ac01      	add	r4, sp, #4
10005290:	220c      	movs	r2, #12
10005292:	2100      	movs	r1, #0
10005294:	0020      	movs	r0, r4
10005296:	f7fe ff71 	bl	1000417c <__wrap_memset>
1000529a:	2308      	movs	r3, #8
1000529c:	7063      	strb	r3, [r4, #1]
1000529e:	9702      	str	r7, [sp, #8]
100052a0:	9603      	str	r6, [sp, #12]
100052a2:	0029      	movs	r1, r5
100052a4:	0020      	movs	r0, r4
100052a6:	f001 fc57 	bl	10006b58 <__dcd_event_handler_veneer>
100052aa:	b005      	add	sp, #20
100052ac:	bdf0      	pop	{r4, r5, r6, r7, pc}
	...

100052b0 <usbd_edpt_open>:
100052b0:	b570      	push	{r4, r5, r6, lr}
100052b2:	000c      	movs	r4, r1
100052b4:	4b09      	ldr	r3, [pc, #36]	; (100052dc <usbd_edpt_open+0x2c>)
100052b6:	781d      	ldrb	r5, [r3, #0]
100052b8:	788b      	ldrb	r3, [r1, #2]
100052ba:	2270      	movs	r2, #112	; 0x70
100052bc:	421a      	tst	r2, r3
100052be:	d001      	beq.n	100052c4 <usbd_edpt_open+0x14>
100052c0:	2000      	movs	r0, #0
100052c2:	bd70      	pop	{r4, r5, r6, pc}
100052c4:	4b06      	ldr	r3, [pc, #24]	; (100052e0 <usbd_edpt_open+0x30>)
100052c6:	7899      	ldrb	r1, [r3, #2]
100052c8:	0020      	movs	r0, r4
100052ca:	f000 ffef 	bl	100062ac <tu_edpt_validate>
100052ce:	2800      	cmp	r0, #0
100052d0:	d0f7      	beq.n	100052c2 <usbd_edpt_open+0x12>
100052d2:	0021      	movs	r1, r4
100052d4:	0028      	movs	r0, r5
100052d6:	f7ff fd23 	bl	10004d20 <dcd_edpt_open>
100052da:	e7f2      	b.n	100052c2 <usbd_edpt_open+0x12>
100052dc:	20000c8c 	.word	0x20000c8c
100052e0:	200010fc 	.word	0x200010fc

100052e4 <usbd_open_edpt_pair>:
100052e4:	b5f8      	push	{r3, r4, r5, r6, r7, lr}
100052e6:	46ce      	mov	lr, r9
100052e8:	4647      	mov	r7, r8
100052ea:	b580      	push	{r7, lr}
100052ec:	4681      	mov	r9, r0
100052ee:	000c      	movs	r4, r1
100052f0:	0017      	movs	r7, r2
100052f2:	001e      	movs	r6, r3
100052f4:	9b08      	ldr	r3, [sp, #32]
100052f6:	4698      	mov	r8, r3
100052f8:	2500      	movs	r5, #0
100052fa:	e004      	b.n	10005306 <usbd_open_edpt_pair+0x22>
100052fc:	9a09      	ldr	r2, [sp, #36]	; 0x24
100052fe:	7013      	strb	r3, [r2, #0]
10005300:	7823      	ldrb	r3, [r4, #0]
10005302:	18e4      	adds	r4, r4, r3
10005304:	3501      	adds	r5, #1
10005306:	42af      	cmp	r7, r5
10005308:	dd14      	ble.n	10005334 <usbd_open_edpt_pair+0x50>
1000530a:	7863      	ldrb	r3, [r4, #1]
1000530c:	2b05      	cmp	r3, #5
1000530e:	d116      	bne.n	1000533e <usbd_open_edpt_pair+0x5a>
10005310:	78e1      	ldrb	r1, [r4, #3]
10005312:	0789      	lsls	r1, r1, #30
10005314:	0f89      	lsrs	r1, r1, #30
10005316:	42b1      	cmp	r1, r6
10005318:	d113      	bne.n	10005342 <usbd_open_edpt_pair+0x5e>
1000531a:	0021      	movs	r1, r4
1000531c:	4648      	mov	r0, r9
1000531e:	f7ff ffc7 	bl	100052b0 <usbd_edpt_open>
10005322:	2800      	cmp	r0, #0
10005324:	d007      	beq.n	10005336 <usbd_open_edpt_pair+0x52>
10005326:	78a3      	ldrb	r3, [r4, #2]
10005328:	09da      	lsrs	r2, r3, #7
1000532a:	2a01      	cmp	r2, #1
1000532c:	d0e6      	beq.n	100052fc <usbd_open_edpt_pair+0x18>
1000532e:	4642      	mov	r2, r8
10005330:	7013      	strb	r3, [r2, #0]
10005332:	e7e5      	b.n	10005300 <usbd_open_edpt_pair+0x1c>
10005334:	2001      	movs	r0, #1
10005336:	bcc0      	pop	{r6, r7}
10005338:	46b9      	mov	r9, r7
1000533a:	46b0      	mov	r8, r6
1000533c:	bdf8      	pop	{r3, r4, r5, r6, r7, pc}
1000533e:	2000      	movs	r0, #0
10005340:	e7f9      	b.n	10005336 <usbd_open_edpt_pair+0x52>
10005342:	2000      	movs	r0, #0
10005344:	e7f7      	b.n	10005336 <usbd_open_edpt_pair+0x52>
	...

10005348 <usbd_edpt_claim>:
10005348:	b510      	push	{r4, lr}
1000534a:	207f      	movs	r0, #127	; 0x7f
1000534c:	4008      	ands	r0, r1
1000534e:	09c9      	lsrs	r1, r1, #7
10005350:	0040      	lsls	r0, r0, #1
10005352:	1840      	adds	r0, r0, r1
10005354:	3030      	adds	r0, #48	; 0x30
10005356:	4904      	ldr	r1, [pc, #16]	; (10005368 <usbd_edpt_claim+0x20>)
10005358:	1808      	adds	r0, r1, r0
1000535a:	3003      	adds	r0, #3
1000535c:	4b03      	ldr	r3, [pc, #12]	; (1000536c <usbd_edpt_claim+0x24>)
1000535e:	6819      	ldr	r1, [r3, #0]
10005360:	f000 ff5e 	bl	10006220 <tu_edpt_claim>
10005364:	bd10      	pop	{r4, pc}
10005366:	46c0      	nop			; (mov r8, r8)
10005368:	200010fc 	.word	0x200010fc
1000536c:	20001150 	.word	0x20001150

10005370 <usbd_edpt_release>:
10005370:	b510      	push	{r4, lr}
10005372:	207f      	movs	r0, #127	; 0x7f
10005374:	4008      	ands	r0, r1
10005376:	09c9      	lsrs	r1, r1, #7
10005378:	0040      	lsls	r0, r0, #1
1000537a:	1840      	adds	r0, r0, r1
1000537c:	3030      	adds	r0, #48	; 0x30
1000537e:	4904      	ldr	r1, [pc, #16]	; (10005390 <usbd_edpt_release+0x20>)
10005380:	1808      	adds	r0, r1, r0
10005382:	3003      	adds	r0, #3
10005384:	4b03      	ldr	r3, [pc, #12]	; (10005394 <usbd_edpt_release+0x24>)
10005386:	6819      	ldr	r1, [r3, #0]
10005388:	f000 ff72 	bl	10006270 <tu_edpt_release>
1000538c:	bd10      	pop	{r4, pc}
1000538e:	46c0      	nop			; (mov r8, r8)
10005390:	200010fc 	.word	0x200010fc
10005394:	20001150 	.word	0x20001150

10005398 <usbd_edpt_xfer>:
10005398:	b5f8      	push	{r3, r4, r5, r6, r7, lr}
1000539a:	46ce      	mov	lr, r9
1000539c:	4647      	mov	r7, r8
1000539e:	b580      	push	{r7, lr}
100053a0:	4819      	ldr	r0, [pc, #100]	; (10005408 <usbd_edpt_xfer+0x70>)
100053a2:	7800      	ldrb	r0, [r0, #0]
100053a4:	257f      	movs	r5, #127	; 0x7f
100053a6:	400d      	ands	r5, r1
100053a8:	09ce      	lsrs	r6, r1, #7
100053aa:	006f      	lsls	r7, r5, #1
100053ac:	4c17      	ldr	r4, [pc, #92]	; (1000540c <usbd_edpt_xfer+0x74>)
100053ae:	19e4      	adds	r4, r4, r7
100053b0:	19a4      	adds	r4, r4, r6
100053b2:	3430      	adds	r4, #48	; 0x30
100053b4:	78e4      	ldrb	r4, [r4, #3]
100053b6:	07e4      	lsls	r4, r4, #31
100053b8:	d504      	bpl.n	100053c4 <usbd_edpt_xfer+0x2c>
100053ba:	2000      	movs	r0, #0
100053bc:	bcc0      	pop	{r6, r7}
100053be:	46b9      	mov	r9, r7
100053c0:	46b0      	mov	r8, r6
100053c2:	bdf8      	pop	{r3, r4, r5, r6, r7, pc}
100053c4:	4c11      	ldr	r4, [pc, #68]	; (1000540c <usbd_edpt_xfer+0x74>)
100053c6:	19e4      	adds	r4, r4, r7
100053c8:	19a4      	adds	r4, r4, r6
100053ca:	2730      	movs	r7, #48	; 0x30
100053cc:	46b9      	mov	r9, r7
100053ce:	44a1      	add	r9, r4
100053d0:	464c      	mov	r4, r9
100053d2:	78e4      	ldrb	r4, [r4, #3]
100053d4:	2701      	movs	r7, #1
100053d6:	46bc      	mov	ip, r7
100053d8:	4667      	mov	r7, ip
100053da:	433c      	orrs	r4, r7
100053dc:	0027      	movs	r7, r4
100053de:	464c      	mov	r4, r9
100053e0:	70e7      	strb	r7, [r4, #3]
100053e2:	f7ff fcc1 	bl	10004d68 <dcd_edpt_xfer>
100053e6:	2800      	cmp	r0, #0
100053e8:	d1e8      	bne.n	100053bc <usbd_edpt_xfer+0x24>
100053ea:	006d      	lsls	r5, r5, #1
100053ec:	4b07      	ldr	r3, [pc, #28]	; (1000540c <usbd_edpt_xfer+0x74>)
100053ee:	195d      	adds	r5, r3, r5
100053f0:	19ae      	adds	r6, r5, r6
100053f2:	3630      	adds	r6, #48	; 0x30
100053f4:	78f3      	ldrb	r3, [r6, #3]
100053f6:	2201      	movs	r2, #1
100053f8:	4393      	bics	r3, r2
100053fa:	70f3      	strb	r3, [r6, #3]
100053fc:	78f3      	ldrb	r3, [r6, #3]
100053fe:	3203      	adds	r2, #3
10005400:	4393      	bics	r3, r2
10005402:	70f3      	strb	r3, [r6, #3]
10005404:	e7da      	b.n	100053bc <usbd_edpt_xfer+0x24>
10005406:	46c0      	nop			; (mov r8, r8)
10005408:	20000c8c 	.word	0x20000c8c
1000540c:	200010fc 	.word	0x200010fc

10005410 <usbd_edpt_stall>:
10005410:	b570      	push	{r4, r5, r6, lr}
10005412:	4b0f      	ldr	r3, [pc, #60]	; (10005450 <usbd_edpt_stall+0x40>)
10005414:	7818      	ldrb	r0, [r3, #0]
10005416:	247f      	movs	r4, #127	; 0x7f
10005418:	400c      	ands	r4, r1
1000541a:	09cd      	lsrs	r5, r1, #7
1000541c:	0062      	lsls	r2, r4, #1
1000541e:	4b0d      	ldr	r3, [pc, #52]	; (10005454 <usbd_edpt_stall+0x44>)
10005420:	189b      	adds	r3, r3, r2
10005422:	195b      	adds	r3, r3, r5
10005424:	3330      	adds	r3, #48	; 0x30
10005426:	78db      	ldrb	r3, [r3, #3]
10005428:	079b      	lsls	r3, r3, #30
1000542a:	d500      	bpl.n	1000542e <usbd_edpt_stall+0x1e>
1000542c:	bd70      	pop	{r4, r5, r6, pc}
1000542e:	f7ff fcb5 	bl	10004d9c <dcd_edpt_stall>
10005432:	0063      	lsls	r3, r4, #1
10005434:	4c07      	ldr	r4, [pc, #28]	; (10005454 <usbd_edpt_stall+0x44>)
10005436:	18e4      	adds	r4, r4, r3
10005438:	1964      	adds	r4, r4, r5
1000543a:	3430      	adds	r4, #48	; 0x30
1000543c:	78e3      	ldrb	r3, [r4, #3]
1000543e:	2202      	movs	r2, #2
10005440:	4313      	orrs	r3, r2
10005442:	70e3      	strb	r3, [r4, #3]
10005444:	78e3      	ldrb	r3, [r4, #3]
10005446:	2201      	movs	r2, #1
10005448:	4313      	orrs	r3, r2
1000544a:	70e3      	strb	r3, [r4, #3]
1000544c:	e7ee      	b.n	1000542c <usbd_edpt_stall+0x1c>
1000544e:	46c0      	nop			; (mov r8, r8)
10005450:	20000c8c 	.word	0x20000c8c
10005454:	200010fc 	.word	0x200010fc

10005458 <usbd_edpt_clear_stall>:
10005458:	b570      	push	{r4, r5, r6, lr}
1000545a:	4b0f      	ldr	r3, [pc, #60]	; (10005498 <usbd_edpt_clear_stall+0x40>)
1000545c:	7818      	ldrb	r0, [r3, #0]
1000545e:	247f      	movs	r4, #127	; 0x7f
10005460:	400c      	ands	r4, r1
10005462:	09cd      	lsrs	r5, r1, #7
10005464:	0062      	lsls	r2, r4, #1
10005466:	4b0d      	ldr	r3, [pc, #52]	; (1000549c <usbd_edpt_clear_stall+0x44>)
10005468:	189b      	adds	r3, r3, r2
1000546a:	195b      	adds	r3, r3, r5
1000546c:	3330      	adds	r3, #48	; 0x30
1000546e:	78db      	ldrb	r3, [r3, #3]
10005470:	079b      	lsls	r3, r3, #30
10005472:	d400      	bmi.n	10005476 <usbd_edpt_clear_stall+0x1e>
10005474:	bd70      	pop	{r4, r5, r6, pc}
10005476:	f7ff fca7 	bl	10004dc8 <dcd_edpt_clear_stall>
1000547a:	0063      	lsls	r3, r4, #1
1000547c:	4c07      	ldr	r4, [pc, #28]	; (1000549c <usbd_edpt_clear_stall+0x44>)
1000547e:	18e4      	adds	r4, r4, r3
10005480:	1964      	adds	r4, r4, r5
10005482:	3430      	adds	r4, #48	; 0x30
10005484:	78e3      	ldrb	r3, [r4, #3]
10005486:	2202      	movs	r2, #2
10005488:	4393      	bics	r3, r2
1000548a:	70e3      	strb	r3, [r4, #3]
1000548c:	78e3      	ldrb	r3, [r4, #3]
1000548e:	3a01      	subs	r2, #1
10005490:	4393      	bics	r3, r2
10005492:	70e3      	strb	r3, [r4, #3]
10005494:	e7ee      	b.n	10005474 <usbd_edpt_clear_stall+0x1c>
10005496:	46c0      	nop			; (mov r8, r8)
10005498:	20000c8c 	.word	0x20000c8c
1000549c:	200010fc 	.word	0x200010fc

100054a0 <usbd_edpt_stalled>:
100054a0:	227f      	movs	r2, #127	; 0x7f
100054a2:	400a      	ands	r2, r1
100054a4:	09cb      	lsrs	r3, r1, #7
100054a6:	0052      	lsls	r2, r2, #1
100054a8:	4903      	ldr	r1, [pc, #12]	; (100054b8 <usbd_edpt_stalled+0x18>)
100054aa:	1889      	adds	r1, r1, r2
100054ac:	18c9      	adds	r1, r1, r3
100054ae:	3130      	adds	r1, #48	; 0x30
100054b0:	78c8      	ldrb	r0, [r1, #3]
100054b2:	0780      	lsls	r0, r0, #30
100054b4:	0fc0      	lsrs	r0, r0, #31
100054b6:	4770      	bx	lr
100054b8:	200010fc 	.word	0x200010fc

100054bc <process_control_request>:
100054bc:	b5f0      	push	{r4, r5, r6, r7, lr}
100054be:	46c6      	mov	lr, r8
100054c0:	b500      	push	{lr}
100054c2:	b082      	sub	sp, #8
100054c4:	0005      	movs	r5, r0
100054c6:	000c      	movs	r4, r1
100054c8:	2000      	movs	r0, #0
100054ca:	f000 fb1d 	bl	10005b08 <usbd_control_set_complete_callback>
100054ce:	7823      	ldrb	r3, [r4, #0]
100054d0:	2260      	movs	r2, #96	; 0x60
100054d2:	4013      	ands	r3, r2
100054d4:	2b60      	cmp	r3, #96	; 0x60
100054d6:	d100      	bne.n	100054da <process_control_request+0x1e>
100054d8:	e185      	b.n	100057e6 <process_control_request+0x32a>
100054da:	2b40      	cmp	r3, #64	; 0x40
100054dc:	d00f      	beq.n	100054fe <process_control_request+0x42>
100054de:	7822      	ldrb	r2, [r4, #0]
100054e0:	06d2      	lsls	r2, r2, #27
100054e2:	0ed2      	lsrs	r2, r2, #27
100054e4:	2a01      	cmp	r2, #1
100054e6:	d100      	bne.n	100054ea <process_control_request+0x2e>
100054e8:	e0c9      	b.n	1000567e <process_control_request+0x1c2>
100054ea:	2a02      	cmp	r2, #2
100054ec:	d100      	bne.n	100054f0 <process_control_request+0x34>
100054ee:	e10f      	b.n	10005710 <process_control_request+0x254>
100054f0:	2a00      	cmp	r2, #0
100054f2:	d011      	beq.n	10005518 <process_control_request+0x5c>
100054f4:	2000      	movs	r0, #0
100054f6:	b002      	add	sp, #8
100054f8:	bc80      	pop	{r7}
100054fa:	46b8      	mov	r8, r7
100054fc:	bdf0      	pop	{r4, r5, r6, r7, pc}
100054fe:	4bc7      	ldr	r3, [pc, #796]	; (1000581c <process_control_request+0x360>)
10005500:	2b00      	cmp	r3, #0
10005502:	d100      	bne.n	10005506 <process_control_request+0x4a>
10005504:	e171      	b.n	100057ea <process_control_request+0x32e>
10005506:	0018      	movs	r0, r3
10005508:	f000 fafe 	bl	10005b08 <usbd_control_set_complete_callback>
1000550c:	0022      	movs	r2, r4
1000550e:	2101      	movs	r1, #1
10005510:	0028      	movs	r0, r5
10005512:	e000      	b.n	10005516 <process_control_request+0x5a>
10005514:	bf00      	nop
10005516:	e7ee      	b.n	100054f6 <process_control_request+0x3a>
10005518:	2b20      	cmp	r3, #32
1000551a:	d00a      	beq.n	10005532 <process_control_request+0x76>
1000551c:	2b00      	cmp	r3, #0
1000551e:	d000      	beq.n	10005522 <process_control_request+0x66>
10005520:	e16b      	b.n	100057fa <process_control_request+0x33e>
10005522:	7863      	ldrb	r3, [r4, #1]
10005524:	2b09      	cmp	r3, #9
10005526:	d900      	bls.n	1000552a <process_control_request+0x6e>
10005528:	e169      	b.n	100057fe <process_control_request+0x342>
1000552a:	009b      	lsls	r3, r3, #2
1000552c:	4abc      	ldr	r2, [pc, #752]	; (10005820 <process_control_request+0x364>)
1000552e:	58d3      	ldr	r3, [r2, r3]
10005530:	469f      	mov	pc, r3
10005532:	7923      	ldrb	r3, [r4, #4]
10005534:	2b0f      	cmp	r3, #15
10005536:	d900      	bls.n	1000553a <process_control_request+0x7e>
10005538:	e159      	b.n	100057ee <process_control_request+0x332>
1000553a:	4aba      	ldr	r2, [pc, #744]	; (10005824 <process_control_request+0x368>)
1000553c:	18d3      	adds	r3, r2, r3
1000553e:	78db      	ldrb	r3, [r3, #3]
10005540:	4ab9      	ldr	r2, [pc, #740]	; (10005828 <process_control_request+0x36c>)
10005542:	2a00      	cmp	r2, #0
10005544:	d005      	beq.n	10005552 <process_control_request+0x96>
10005546:	4ab9      	ldr	r2, [pc, #740]	; (1000582c <process_control_request+0x370>)
10005548:	7812      	ldrb	r2, [r2, #0]
1000554a:	4293      	cmp	r3, r2
1000554c:	d311      	bcc.n	10005572 <process_control_request+0xb6>
1000554e:	1a9b      	subs	r3, r3, r2
10005550:	b2db      	uxtb	r3, r3
10005552:	2b00      	cmp	r3, #0
10005554:	d000      	beq.n	10005558 <process_control_request+0x9c>
10005556:	e14c      	b.n	100057f2 <process_control_request+0x336>
10005558:	0059      	lsls	r1, r3, #1
1000555a:	18cb      	adds	r3, r1, r3
1000555c:	00db      	lsls	r3, r3, #3
1000555e:	49b4      	ldr	r1, [pc, #720]	; (10005830 <process_control_request+0x374>)
10005560:	18c9      	adds	r1, r1, r3
10005562:	2900      	cmp	r1, #0
10005564:	d100      	bne.n	10005568 <process_control_request+0xac>
10005566:	e146      	b.n	100057f6 <process_control_request+0x33a>
10005568:	0022      	movs	r2, r4
1000556a:	0028      	movs	r0, r5
1000556c:	f7ff fcd2 	bl	10004f14 <invoke_class_control>
10005570:	e7c1      	b.n	100054f6 <process_control_request+0x3a>
10005572:	0059      	lsls	r1, r3, #1
10005574:	18cb      	adds	r3, r1, r3
10005576:	00db      	lsls	r3, r3, #3
10005578:	4aae      	ldr	r2, [pc, #696]	; (10005834 <process_control_request+0x378>)
1000557a:	6811      	ldr	r1, [r2, #0]
1000557c:	18c9      	adds	r1, r1, r3
1000557e:	e7f0      	b.n	10005562 <process_control_request+0xa6>
10005580:	0020      	movs	r0, r4
10005582:	f000 fac7 	bl	10005b14 <usbd_control_set_request>
10005586:	78a1      	ldrb	r1, [r4, #2]
10005588:	0028      	movs	r0, r5
1000558a:	f7ff fb5d 	bl	10004c48 <dcd_set_address>
1000558e:	4aa5      	ldr	r2, [pc, #660]	; (10005824 <process_control_request+0x368>)
10005590:	7813      	ldrb	r3, [r2, #0]
10005592:	2102      	movs	r1, #2
10005594:	430b      	orrs	r3, r1
10005596:	7013      	strb	r3, [r2, #0]
10005598:	2001      	movs	r0, #1
1000559a:	e7ac      	b.n	100054f6 <process_control_request+0x3a>
1000559c:	4ba1      	ldr	r3, [pc, #644]	; (10005824 <process_control_request+0x368>)
1000559e:	785b      	ldrb	r3, [r3, #1]
100055a0:	466a      	mov	r2, sp
100055a2:	3206      	adds	r2, #6
100055a4:	7013      	strb	r3, [r2, #0]
100055a6:	2301      	movs	r3, #1
100055a8:	0021      	movs	r1, r4
100055aa:	0028      	movs	r0, r5
100055ac:	f000 fa68 	bl	10005a80 <tud_control_xfer>
100055b0:	2001      	movs	r0, #1
100055b2:	e7a0      	b.n	100054f6 <process_control_request+0x3a>
100055b4:	78a6      	ldrb	r6, [r4, #2]
100055b6:	4b9b      	ldr	r3, [pc, #620]	; (10005824 <process_control_request+0x368>)
100055b8:	785b      	ldrb	r3, [r3, #1]
100055ba:	b2db      	uxtb	r3, r3
100055bc:	42b3      	cmp	r3, r6
100055be:	d005      	beq.n	100055cc <process_control_request+0x110>
100055c0:	4b98      	ldr	r3, [pc, #608]	; (10005824 <process_control_request+0x368>)
100055c2:	785b      	ldrb	r3, [r3, #1]
100055c4:	2b00      	cmp	r3, #0
100055c6:	d109      	bne.n	100055dc <process_control_request+0x120>
100055c8:	2e00      	cmp	r6, #0
100055ca:	d113      	bne.n	100055f4 <process_control_request+0x138>
100055cc:	4b95      	ldr	r3, [pc, #596]	; (10005824 <process_control_request+0x368>)
100055ce:	705e      	strb	r6, [r3, #1]
100055d0:	0021      	movs	r1, r4
100055d2:	0028      	movs	r0, r5
100055d4:	f000 fa38 	bl	10005a48 <tud_control_status>
100055d8:	2001      	movs	r0, #1
100055da:	e78c      	b.n	100054f6 <process_control_request+0x3a>
100055dc:	0028      	movs	r0, r5
100055de:	f7ff fbbf 	bl	10004d60 <dcd_edpt_close_all>
100055e2:	4f90      	ldr	r7, [pc, #576]	; (10005824 <process_control_request+0x368>)
100055e4:	78bb      	ldrb	r3, [r7, #2]
100055e6:	4698      	mov	r8, r3
100055e8:	0028      	movs	r0, r5
100055ea:	f7ff fc4b 	bl	10004e84 <configuration_reset>
100055ee:	4643      	mov	r3, r8
100055f0:	70bb      	strb	r3, [r7, #2]
100055f2:	e7e9      	b.n	100055c8 <process_control_request+0x10c>
100055f4:	0031      	movs	r1, r6
100055f6:	0028      	movs	r0, r5
100055f8:	f7ff fc9a 	bl	10004f30 <process_set_config>
100055fc:	2800      	cmp	r0, #0
100055fe:	d1e5      	bne.n	100055cc <process_control_request+0x110>
10005600:	e779      	b.n	100054f6 <process_control_request+0x3a>
10005602:	0021      	movs	r1, r4
10005604:	0028      	movs	r0, r5
10005606:	f7ff fd4f 	bl	100050a8 <process_get_descriptor>
1000560a:	e774      	b.n	100054f6 <process_control_request+0x3a>
1000560c:	78a2      	ldrb	r2, [r4, #2]
1000560e:	78e3      	ldrb	r3, [r4, #3]
10005610:	021b      	lsls	r3, r3, #8
10005612:	4313      	orrs	r3, r2
10005614:	2b01      	cmp	r3, #1
10005616:	d001      	beq.n	1000561c <process_control_request+0x160>
10005618:	2000      	movs	r0, #0
1000561a:	e76c      	b.n	100054f6 <process_control_request+0x3a>
1000561c:	4a81      	ldr	r2, [pc, #516]	; (10005824 <process_control_request+0x368>)
1000561e:	7813      	ldrb	r3, [r2, #0]
10005620:	2108      	movs	r1, #8
10005622:	430b      	orrs	r3, r1
10005624:	7013      	strb	r3, [r2, #0]
10005626:	0021      	movs	r1, r4
10005628:	0028      	movs	r0, r5
1000562a:	f000 fa0d 	bl	10005a48 <tud_control_status>
1000562e:	2001      	movs	r0, #1
10005630:	e761      	b.n	100054f6 <process_control_request+0x3a>
10005632:	78a2      	ldrb	r2, [r4, #2]
10005634:	78e3      	ldrb	r3, [r4, #3]
10005636:	021b      	lsls	r3, r3, #8
10005638:	4313      	orrs	r3, r2
1000563a:	2b01      	cmp	r3, #1
1000563c:	d001      	beq.n	10005642 <process_control_request+0x186>
1000563e:	2000      	movs	r0, #0
10005640:	e759      	b.n	100054f6 <process_control_request+0x3a>
10005642:	4a78      	ldr	r2, [pc, #480]	; (10005824 <process_control_request+0x368>)
10005644:	7813      	ldrb	r3, [r2, #0]
10005646:	2108      	movs	r1, #8
10005648:	438b      	bics	r3, r1
1000564a:	7013      	strb	r3, [r2, #0]
1000564c:	0021      	movs	r1, r4
1000564e:	0028      	movs	r0, r5
10005650:	f000 f9fa 	bl	10005a48 <tud_control_status>
10005654:	2001      	movs	r0, #1
10005656:	e74e      	b.n	100054f6 <process_control_request+0x3a>
10005658:	4b72      	ldr	r3, [pc, #456]	; (10005824 <process_control_request+0x368>)
1000565a:	781a      	ldrb	r2, [r3, #0]
1000565c:	0951      	lsrs	r1, r2, #5
1000565e:	0892      	lsrs	r2, r2, #2
10005660:	2301      	movs	r3, #1
10005662:	400b      	ands	r3, r1
10005664:	2102      	movs	r1, #2
10005666:	400a      	ands	r2, r1
10005668:	4313      	orrs	r3, r2
1000566a:	466a      	mov	r2, sp
1000566c:	3206      	adds	r2, #6
1000566e:	8013      	strh	r3, [r2, #0]
10005670:	2302      	movs	r3, #2
10005672:	0021      	movs	r1, r4
10005674:	0028      	movs	r0, r5
10005676:	f000 fa03 	bl	10005a80 <tud_control_xfer>
1000567a:	2001      	movs	r0, #1
1000567c:	e73b      	b.n	100054f6 <process_control_request+0x3a>
1000567e:	7923      	ldrb	r3, [r4, #4]
10005680:	2b0f      	cmp	r3, #15
10005682:	d900      	bls.n	10005686 <process_control_request+0x1ca>
10005684:	e0bd      	b.n	10005802 <process_control_request+0x346>
10005686:	4a67      	ldr	r2, [pc, #412]	; (10005824 <process_control_request+0x368>)
10005688:	18d3      	adds	r3, r2, r3
1000568a:	78d9      	ldrb	r1, [r3, #3]
1000568c:	4b66      	ldr	r3, [pc, #408]	; (10005828 <process_control_request+0x36c>)
1000568e:	2b00      	cmp	r3, #0
10005690:	d005      	beq.n	1000569e <process_control_request+0x1e2>
10005692:	4b66      	ldr	r3, [pc, #408]	; (1000582c <process_control_request+0x370>)
10005694:	781b      	ldrb	r3, [r3, #0]
10005696:	4299      	cmp	r1, r3
10005698:	d328      	bcc.n	100056ec <process_control_request+0x230>
1000569a:	1ac9      	subs	r1, r1, r3
1000569c:	b2c9      	uxtb	r1, r1
1000569e:	2900      	cmp	r1, #0
100056a0:	d000      	beq.n	100056a4 <process_control_request+0x1e8>
100056a2:	e0b0      	b.n	10005806 <process_control_request+0x34a>
100056a4:	004b      	lsls	r3, r1, #1
100056a6:	185b      	adds	r3, r3, r1
100056a8:	00db      	lsls	r3, r3, #3
100056aa:	4961      	ldr	r1, [pc, #388]	; (10005830 <process_control_request+0x374>)
100056ac:	18c9      	adds	r1, r1, r3
100056ae:	2900      	cmp	r1, #0
100056b0:	d100      	bne.n	100056b4 <process_control_request+0x1f8>
100056b2:	e0aa      	b.n	1000580a <process_control_request+0x34e>
100056b4:	0022      	movs	r2, r4
100056b6:	0028      	movs	r0, r5
100056b8:	f7ff fc2c 	bl	10004f14 <invoke_class_control>
100056bc:	2800      	cmp	r0, #0
100056be:	d000      	beq.n	100056c2 <process_control_request+0x206>
100056c0:	e719      	b.n	100054f6 <process_control_request+0x3a>
100056c2:	7823      	ldrb	r3, [r4, #0]
100056c4:	2260      	movs	r2, #96	; 0x60
100056c6:	421a      	tst	r2, r3
100056c8:	d000      	beq.n	100056cc <process_control_request+0x210>
100056ca:	e714      	b.n	100054f6 <process_control_request+0x3a>
100056cc:	7863      	ldrb	r3, [r4, #1]
100056ce:	3b0a      	subs	r3, #10
100056d0:	2b01      	cmp	r3, #1
100056d2:	d900      	bls.n	100056d6 <process_control_request+0x21a>
100056d4:	e70f      	b.n	100054f6 <process_control_request+0x3a>
100056d6:	f000 fa17 	bl	10005b08 <usbd_control_set_complete_callback>
100056da:	7863      	ldrb	r3, [r4, #1]
100056dc:	2b0a      	cmp	r3, #10
100056de:	d00c      	beq.n	100056fa <process_control_request+0x23e>
100056e0:	0021      	movs	r1, r4
100056e2:	0028      	movs	r0, r5
100056e4:	f000 f9b0 	bl	10005a48 <tud_control_status>
100056e8:	2001      	movs	r0, #1
100056ea:	e704      	b.n	100054f6 <process_control_request+0x3a>
100056ec:	004b      	lsls	r3, r1, #1
100056ee:	185b      	adds	r3, r3, r1
100056f0:	00db      	lsls	r3, r3, #3
100056f2:	4a50      	ldr	r2, [pc, #320]	; (10005834 <process_control_request+0x378>)
100056f4:	6811      	ldr	r1, [r2, #0]
100056f6:	18c9      	adds	r1, r1, r3
100056f8:	e7d9      	b.n	100056ae <process_control_request+0x1f2>
100056fa:	466b      	mov	r3, sp
100056fc:	1d9a      	adds	r2, r3, #6
100056fe:	2300      	movs	r3, #0
10005700:	7013      	strb	r3, [r2, #0]
10005702:	3301      	adds	r3, #1
10005704:	0021      	movs	r1, r4
10005706:	0028      	movs	r0, r5
10005708:	f000 f9ba 	bl	10005a80 <tud_control_xfer>
1000570c:	2001      	movs	r0, #1
1000570e:	e6f2      	b.n	100054f6 <process_control_request+0x3a>
10005710:	7921      	ldrb	r1, [r4, #4]
10005712:	227f      	movs	r2, #127	; 0x7f
10005714:	400a      	ands	r2, r1
10005716:	09ce      	lsrs	r6, r1, #7
10005718:	2070      	movs	r0, #112	; 0x70
1000571a:	4208      	tst	r0, r1
1000571c:	d177      	bne.n	1000580e <process_control_request+0x352>
1000571e:	0052      	lsls	r2, r2, #1
10005720:	4840      	ldr	r0, [pc, #256]	; (10005824 <process_control_request+0x368>)
10005722:	1882      	adds	r2, r0, r2
10005724:	1992      	adds	r2, r2, r6
10005726:	7cd2      	ldrb	r2, [r2, #19]
10005728:	483f      	ldr	r0, [pc, #252]	; (10005828 <process_control_request+0x36c>)
1000572a:	2800      	cmp	r0, #0
1000572c:	d005      	beq.n	1000573a <process_control_request+0x27e>
1000572e:	483f      	ldr	r0, [pc, #252]	; (1000582c <process_control_request+0x370>)
10005730:	7800      	ldrb	r0, [r0, #0]
10005732:	4282      	cmp	r2, r0
10005734:	d312      	bcc.n	1000575c <process_control_request+0x2a0>
10005736:	1a12      	subs	r2, r2, r0
10005738:	b2d2      	uxtb	r2, r2
1000573a:	2a00      	cmp	r2, #0
1000573c:	d115      	bne.n	1000576a <process_control_request+0x2ae>
1000573e:	0056      	lsls	r6, r2, #1
10005740:	18b2      	adds	r2, r6, r2
10005742:	00d2      	lsls	r2, r2, #3
10005744:	4e3a      	ldr	r6, [pc, #232]	; (10005830 <process_control_request+0x374>)
10005746:	18b6      	adds	r6, r6, r2
10005748:	2b00      	cmp	r3, #0
1000574a:	d010      	beq.n	1000576e <process_control_request+0x2b2>
1000574c:	2e00      	cmp	r6, #0
1000574e:	d060      	beq.n	10005812 <process_control_request+0x356>
10005750:	0022      	movs	r2, r4
10005752:	0031      	movs	r1, r6
10005754:	0028      	movs	r0, r5
10005756:	f7ff fbdd 	bl	10004f14 <invoke_class_control>
1000575a:	e6cc      	b.n	100054f6 <process_control_request+0x3a>
1000575c:	0056      	lsls	r6, r2, #1
1000575e:	18b2      	adds	r2, r6, r2
10005760:	00d2      	lsls	r2, r2, #3
10005762:	4834      	ldr	r0, [pc, #208]	; (10005834 <process_control_request+0x378>)
10005764:	6806      	ldr	r6, [r0, #0]
10005766:	18b6      	adds	r6, r6, r2
10005768:	e7ee      	b.n	10005748 <process_control_request+0x28c>
1000576a:	2600      	movs	r6, #0
1000576c:	e7ec      	b.n	10005748 <process_control_request+0x28c>
1000576e:	7863      	ldrb	r3, [r4, #1]
10005770:	2b01      	cmp	r3, #1
10005772:	d012      	beq.n	1000579a <process_control_request+0x2de>
10005774:	2b03      	cmp	r3, #3
10005776:	d010      	beq.n	1000579a <process_control_request+0x2de>
10005778:	2b00      	cmp	r3, #0
1000577a:	d001      	beq.n	10005780 <process_control_request+0x2c4>
1000577c:	2000      	movs	r0, #0
1000577e:	e6ba      	b.n	100054f6 <process_control_request+0x3a>
10005780:	0028      	movs	r0, r5
10005782:	f7ff fe8d 	bl	100054a0 <usbd_edpt_stalled>
10005786:	466b      	mov	r3, sp
10005788:	1d9a      	adds	r2, r3, #6
1000578a:	8010      	strh	r0, [r2, #0]
1000578c:	2302      	movs	r3, #2
1000578e:	0021      	movs	r1, r4
10005790:	0028      	movs	r0, r5
10005792:	f000 f975 	bl	10005a80 <tud_control_xfer>
10005796:	2001      	movs	r0, #1
10005798:	e6ad      	b.n	100054f6 <process_control_request+0x3a>
1000579a:	78a7      	ldrb	r7, [r4, #2]
1000579c:	78e2      	ldrb	r2, [r4, #3]
1000579e:	0212      	lsls	r2, r2, #8
100057a0:	433a      	orrs	r2, r7
100057a2:	d104      	bne.n	100057ae <process_control_request+0x2f2>
100057a4:	2b01      	cmp	r3, #1
100057a6:	d01a      	beq.n	100057de <process_control_request+0x322>
100057a8:	0028      	movs	r0, r5
100057aa:	f7ff fe31 	bl	10005410 <usbd_edpt_stall>
100057ae:	2e00      	cmp	r6, #0
100057b0:	d031      	beq.n	10005816 <process_control_request+0x35a>
100057b2:	0022      	movs	r2, r4
100057b4:	0031      	movs	r1, r6
100057b6:	0028      	movs	r0, r5
100057b8:	f7ff fbac 	bl	10004f14 <invoke_class_control>
100057bc:	2000      	movs	r0, #0
100057be:	f000 f9a3 	bl	10005b08 <usbd_control_set_complete_callback>
100057c2:	4a18      	ldr	r2, [pc, #96]	; (10005824 <process_control_request+0x368>)
100057c4:	2334      	movs	r3, #52	; 0x34
100057c6:	5cd3      	ldrb	r3, [r2, r3]
100057c8:	07db      	lsls	r3, r3, #31
100057ca:	0fd8      	lsrs	r0, r3, #31
100057cc:	2b00      	cmp	r3, #0
100057ce:	d000      	beq.n	100057d2 <process_control_request+0x316>
100057d0:	e691      	b.n	100054f6 <process_control_request+0x3a>
100057d2:	0021      	movs	r1, r4
100057d4:	0028      	movs	r0, r5
100057d6:	f000 f937 	bl	10005a48 <tud_control_status>
100057da:	2001      	movs	r0, #1
100057dc:	e68b      	b.n	100054f6 <process_control_request+0x3a>
100057de:	0028      	movs	r0, r5
100057e0:	f7ff fe3a 	bl	10005458 <usbd_edpt_clear_stall>
100057e4:	e7e3      	b.n	100057ae <process_control_request+0x2f2>
100057e6:	2000      	movs	r0, #0
100057e8:	e685      	b.n	100054f6 <process_control_request+0x3a>
100057ea:	2000      	movs	r0, #0
100057ec:	e683      	b.n	100054f6 <process_control_request+0x3a>
100057ee:	2000      	movs	r0, #0
100057f0:	e681      	b.n	100054f6 <process_control_request+0x3a>
100057f2:	2000      	movs	r0, #0
100057f4:	e67f      	b.n	100054f6 <process_control_request+0x3a>
100057f6:	2000      	movs	r0, #0
100057f8:	e67d      	b.n	100054f6 <process_control_request+0x3a>
100057fa:	2000      	movs	r0, #0
100057fc:	e67b      	b.n	100054f6 <process_control_request+0x3a>
100057fe:	2000      	movs	r0, #0
10005800:	e679      	b.n	100054f6 <process_control_request+0x3a>
10005802:	2000      	movs	r0, #0
10005804:	e677      	b.n	100054f6 <process_control_request+0x3a>
10005806:	2000      	movs	r0, #0
10005808:	e675      	b.n	100054f6 <process_control_request+0x3a>
1000580a:	2000      	movs	r0, #0
1000580c:	e673      	b.n	100054f6 <process_control_request+0x3a>
1000580e:	2000      	movs	r0, #0
10005810:	e671      	b.n	100054f6 <process_control_request+0x3a>
10005812:	2000      	movs	r0, #0
10005814:	e66f      	b.n	100054f6 <process_control_request+0x3a>
10005816:	2001      	movs	r0, #1
10005818:	e66d      	b.n	100054f6 <process_control_request+0x3a>
1000581a:	46c0      	nop			; (mov r8, r8)
1000581c:	00000000 	.word	0x00000000
10005820:	100082b0 	.word	0x100082b0
10005824:	200010fc 	.word	0x200010fc
10005828:	10004515 	.word	0x10004515
1000582c:	20001a4d 	.word	0x20001a4d
10005830:	100082fc 	.word	0x100082fc
10005834:	20000dd4 	.word	0x20000dd4

10005838 <tud_task_ext>:
10005838:	b530      	push	{r4, r5, lr}
1000583a:	b085      	sub	sp, #20
1000583c:	f000 fce9 	bl	10006212 <tusb_inited>
10005840:	2800      	cmp	r0, #0
10005842:	d108      	bne.n	10005856 <tud_task_ext+0x1e>
10005844:	b005      	add	sp, #20
10005846:	bd30      	pop	{r4, r5, pc}
10005848:	ac01      	add	r4, sp, #4
1000584a:	7820      	ldrb	r0, [r4, #0]
1000584c:	f7ff fb5c 	bl	10004f08 <usbd_reset>
10005850:	7922      	ldrb	r2, [r4, #4]
10005852:	4b5d      	ldr	r3, [pc, #372]	; (100059c8 <tud_task_ext+0x190>)
10005854:	709a      	strb	r2, [r3, #2]
10005856:	4b5d      	ldr	r3, [pc, #372]	; (100059cc <tud_task_ext+0x194>)
10005858:	681c      	ldr	r4, [r3, #0]
1000585a:	0021      	movs	r1, r4
1000585c:	3114      	adds	r1, #20
1000585e:	6962      	ldr	r2, [r4, #20]
10005860:	f3ef 8010 	mrs	r0, PRIMASK
10005864:	b672      	cpsid	i
10005866:	6813      	ldr	r3, [r2, #0]
10005868:	2b00      	cmp	r3, #0
1000586a:	d0fc      	beq.n	10005866 <tud_task_ext+0x2e>
1000586c:	f3bf 8f5f 	dmb	sy
10005870:	6048      	str	r0, [r1, #4]
10005872:	a901      	add	r1, sp, #4
10005874:	0020      	movs	r0, r4
10005876:	f001 f84d 	bl	10006914 <tu_fifo_read>
1000587a:	6962      	ldr	r2, [r4, #20]
1000587c:	69a3      	ldr	r3, [r4, #24]
1000587e:	f3bf 8f5f 	dmb	sy
10005882:	2100      	movs	r1, #0
10005884:	6011      	str	r1, [r2, #0]
10005886:	f383 8810 	msr	PRIMASK, r3
1000588a:	2800      	cmp	r0, #0
1000588c:	d0da      	beq.n	10005844 <tud_task_ext+0xc>
1000588e:	ab01      	add	r3, sp, #4
10005890:	785b      	ldrb	r3, [r3, #1]
10005892:	2b08      	cmp	r3, #8
10005894:	d8df      	bhi.n	10005856 <tud_task_ext+0x1e>
10005896:	009b      	lsls	r3, r3, #2
10005898:	4a4d      	ldr	r2, [pc, #308]	; (100059d0 <tud_task_ext+0x198>)
1000589a:	58d3      	ldr	r3, [r2, r3]
1000589c:	469f      	mov	pc, r3
1000589e:	ab01      	add	r3, sp, #4
100058a0:	7818      	ldrb	r0, [r3, #0]
100058a2:	f7ff fb31 	bl	10004f08 <usbd_reset>
100058a6:	4b4b      	ldr	r3, [pc, #300]	; (100059d4 <tud_task_ext+0x19c>)
100058a8:	2b00      	cmp	r3, #0
100058aa:	d0d4      	beq.n	10005856 <tud_task_ext+0x1e>
100058ac:	e000      	b.n	100058b0 <tud_task_ext+0x78>
100058ae:	bf00      	nop
100058b0:	e7d1      	b.n	10005856 <tud_task_ext+0x1e>
100058b2:	4b45      	ldr	r3, [pc, #276]	; (100059c8 <tud_task_ext+0x190>)
100058b4:	781a      	ldrb	r2, [r3, #0]
100058b6:	2401      	movs	r4, #1
100058b8:	2101      	movs	r1, #1
100058ba:	430a      	orrs	r2, r1
100058bc:	701a      	strb	r2, [r3, #0]
100058be:	2233      	movs	r2, #51	; 0x33
100058c0:	5c99      	ldrb	r1, [r3, r2]
100058c2:	43a1      	bics	r1, r4
100058c4:	5499      	strb	r1, [r3, r2]
100058c6:	5c99      	ldrb	r1, [r3, r2]
100058c8:	2004      	movs	r0, #4
100058ca:	4381      	bics	r1, r0
100058cc:	5499      	strb	r1, [r3, r2]
100058ce:	3201      	adds	r2, #1
100058d0:	5c99      	ldrb	r1, [r3, r2]
100058d2:	43a1      	bics	r1, r4
100058d4:	5499      	strb	r1, [r3, r2]
100058d6:	5c99      	ldrb	r1, [r3, r2]
100058d8:	4381      	bics	r1, r0
100058da:	5499      	strb	r1, [r3, r2]
100058dc:	ab01      	add	r3, sp, #4
100058de:	7818      	ldrb	r0, [r3, #0]
100058e0:	a902      	add	r1, sp, #8
100058e2:	f7ff fdeb 	bl	100054bc <process_control_request>
100058e6:	2800      	cmp	r0, #0
100058e8:	d1b5      	bne.n	10005856 <tud_task_ext+0x1e>
100058ea:	ac01      	add	r4, sp, #4
100058ec:	7820      	ldrb	r0, [r4, #0]
100058ee:	2100      	movs	r1, #0
100058f0:	f7ff fa54 	bl	10004d9c <dcd_edpt_stall>
100058f4:	7820      	ldrb	r0, [r4, #0]
100058f6:	2180      	movs	r1, #128	; 0x80
100058f8:	f7ff fa50 	bl	10004d9c <dcd_edpt_stall>
100058fc:	e7ab      	b.n	10005856 <tud_task_ext+0x1e>
100058fe:	ab01      	add	r3, sp, #4
10005900:	7919      	ldrb	r1, [r3, #4]
10005902:	227f      	movs	r2, #127	; 0x7f
10005904:	400a      	ands	r2, r1
10005906:	09cc      	lsrs	r4, r1, #7
10005908:	0050      	lsls	r0, r2, #1
1000590a:	4b2f      	ldr	r3, [pc, #188]	; (100059c8 <tud_task_ext+0x190>)
1000590c:	181b      	adds	r3, r3, r0
1000590e:	191b      	adds	r3, r3, r4
10005910:	3330      	adds	r3, #48	; 0x30
10005912:	78d8      	ldrb	r0, [r3, #3]
10005914:	2501      	movs	r5, #1
10005916:	43a8      	bics	r0, r5
10005918:	70d8      	strb	r0, [r3, #3]
1000591a:	78d8      	ldrb	r0, [r3, #3]
1000591c:	3503      	adds	r5, #3
1000591e:	43a8      	bics	r0, r5
10005920:	70d8      	strb	r0, [r3, #3]
10005922:	2a00      	cmp	r2, #0
10005924:	d01f      	beq.n	10005966 <tud_task_ext+0x12e>
10005926:	0052      	lsls	r2, r2, #1
10005928:	4b27      	ldr	r3, [pc, #156]	; (100059c8 <tud_task_ext+0x190>)
1000592a:	189a      	adds	r2, r3, r2
1000592c:	1912      	adds	r2, r2, r4
1000592e:	7cd3      	ldrb	r3, [r2, #19]
10005930:	4a29      	ldr	r2, [pc, #164]	; (100059d8 <tud_task_ext+0x1a0>)
10005932:	2a00      	cmp	r2, #0
10005934:	d005      	beq.n	10005942 <tud_task_ext+0x10a>
10005936:	4a29      	ldr	r2, [pc, #164]	; (100059dc <tud_task_ext+0x1a4>)
10005938:	7812      	ldrb	r2, [r2, #0]
1000593a:	4293      	cmp	r3, r2
1000593c:	d31a      	bcc.n	10005974 <tud_task_ext+0x13c>
1000593e:	1a9b      	subs	r3, r3, r2
10005940:	b2db      	uxtb	r3, r3
10005942:	2b00      	cmp	r3, #0
10005944:	d000      	beq.n	10005948 <tud_task_ext+0x110>
10005946:	e77d      	b.n	10005844 <tud_task_ext+0xc>
10005948:	005a      	lsls	r2, r3, #1
1000594a:	18d2      	adds	r2, r2, r3
1000594c:	00d2      	lsls	r2, r2, #3
1000594e:	4b24      	ldr	r3, [pc, #144]	; (100059e0 <tud_task_ext+0x1a8>)
10005950:	189b      	adds	r3, r3, r2
10005952:	2b00      	cmp	r3, #0
10005954:	d100      	bne.n	10005958 <tud_task_ext+0x120>
10005956:	e775      	b.n	10005844 <tud_task_ext+0xc>
10005958:	691c      	ldr	r4, [r3, #16]
1000595a:	a801      	add	r0, sp, #4
1000595c:	7942      	ldrb	r2, [r0, #5]
1000595e:	9b03      	ldr	r3, [sp, #12]
10005960:	7800      	ldrb	r0, [r0, #0]
10005962:	47a0      	blx	r4
10005964:	e777      	b.n	10005856 <tud_task_ext+0x1e>
10005966:	a801      	add	r0, sp, #4
10005968:	7942      	ldrb	r2, [r0, #5]
1000596a:	9b03      	ldr	r3, [sp, #12]
1000596c:	7800      	ldrb	r0, [r0, #0]
1000596e:	f000 f8df 	bl	10005b30 <usbd_control_xfer_cb>
10005972:	e770      	b.n	10005856 <tud_task_ext+0x1e>
10005974:	005a      	lsls	r2, r3, #1
10005976:	18d2      	adds	r2, r2, r3
10005978:	00d2      	lsls	r2, r2, #3
1000597a:	4b1a      	ldr	r3, [pc, #104]	; (100059e4 <tud_task_ext+0x1ac>)
1000597c:	681b      	ldr	r3, [r3, #0]
1000597e:	189b      	adds	r3, r3, r2
10005980:	e7e7      	b.n	10005952 <tud_task_ext+0x11a>
10005982:	4b11      	ldr	r3, [pc, #68]	; (100059c8 <tud_task_ext+0x190>)
10005984:	781b      	ldrb	r3, [r3, #0]
10005986:	07db      	lsls	r3, r3, #31
10005988:	d400      	bmi.n	1000598c <tud_task_ext+0x154>
1000598a:	e764      	b.n	10005856 <tud_task_ext+0x1e>
1000598c:	4b16      	ldr	r3, [pc, #88]	; (100059e8 <tud_task_ext+0x1b0>)
1000598e:	2b00      	cmp	r3, #0
10005990:	d100      	bne.n	10005994 <tud_task_ext+0x15c>
10005992:	e760      	b.n	10005856 <tud_task_ext+0x1e>
10005994:	4b0c      	ldr	r3, [pc, #48]	; (100059c8 <tud_task_ext+0x190>)
10005996:	7818      	ldrb	r0, [r3, #0]
10005998:	0700      	lsls	r0, r0, #28
1000599a:	0fc0      	lsrs	r0, r0, #31
1000599c:	e000      	b.n	100059a0 <tud_task_ext+0x168>
1000599e:	bf00      	nop
100059a0:	e759      	b.n	10005856 <tud_task_ext+0x1e>
100059a2:	4b09      	ldr	r3, [pc, #36]	; (100059c8 <tud_task_ext+0x190>)
100059a4:	781b      	ldrb	r3, [r3, #0]
100059a6:	07db      	lsls	r3, r3, #31
100059a8:	d400      	bmi.n	100059ac <tud_task_ext+0x174>
100059aa:	e754      	b.n	10005856 <tud_task_ext+0x1e>
100059ac:	4b0f      	ldr	r3, [pc, #60]	; (100059ec <tud_task_ext+0x1b4>)
100059ae:	2b00      	cmp	r3, #0
100059b0:	d100      	bne.n	100059b4 <tud_task_ext+0x17c>
100059b2:	e750      	b.n	10005856 <tud_task_ext+0x1e>
100059b4:	e000      	b.n	100059b8 <tud_task_ext+0x180>
100059b6:	bf00      	nop
100059b8:	e74d      	b.n	10005856 <tud_task_ext+0x1e>
100059ba:	9b02      	ldr	r3, [sp, #8]
100059bc:	2b00      	cmp	r3, #0
100059be:	d100      	bne.n	100059c2 <tud_task_ext+0x18a>
100059c0:	e749      	b.n	10005856 <tud_task_ext+0x1e>
100059c2:	9803      	ldr	r0, [sp, #12]
100059c4:	4798      	blx	r3
100059c6:	e746      	b.n	10005856 <tud_task_ext+0x1e>
100059c8:	200010fc 	.word	0x200010fc
100059cc:	20001154 	.word	0x20001154
100059d0:	100082d8 	.word	0x100082d8
100059d4:	00000000 	.word	0x00000000
100059d8:	10004515 	.word	0x10004515
100059dc:	20001a4d 	.word	0x20001a4d
100059e0:	100082fc 	.word	0x100082fc
100059e4:	20000dd4 	.word	0x20000dd4
	...

100059f0 <_data_stage_xact>:
100059f0:	b5f8      	push	{r3, r4, r5, r6, r7, lr}
100059f2:	0005      	movs	r5, r0
100059f4:	4b12      	ldr	r3, [pc, #72]	; (10005a40 <_data_stage_xact+0x50>)
100059f6:	899f      	ldrh	r7, [r3, #12]
100059f8:	89de      	ldrh	r6, [r3, #14]
100059fa:	1bb9      	subs	r1, r7, r6
100059fc:	b289      	uxth	r1, r1
100059fe:	1c0b      	adds	r3, r1, #0
10005a00:	2940      	cmp	r1, #64	; 0x40
10005a02:	d900      	bls.n	10005a06 <_data_stage_xact+0x16>
10005a04:	2340      	movs	r3, #64	; 0x40
10005a06:	b29c      	uxth	r4, r3
10005a08:	4b0d      	ldr	r3, [pc, #52]	; (10005a40 <_data_stage_xact+0x50>)
10005a0a:	781b      	ldrb	r3, [r3, #0]
10005a0c:	b25b      	sxtb	r3, r3
10005a0e:	2b00      	cmp	r3, #0
10005a10:	db08      	blt.n	10005a24 <_data_stage_xact+0x34>
10005a12:	2100      	movs	r1, #0
10005a14:	42b7      	cmp	r7, r6
10005a16:	d011      	beq.n	10005a3c <_data_stage_xact+0x4c>
10005a18:	4a0a      	ldr	r2, [pc, #40]	; (10005a44 <_data_stage_xact+0x54>)
10005a1a:	0023      	movs	r3, r4
10005a1c:	0028      	movs	r0, r5
10005a1e:	f7ff fcbb 	bl	10005398 <usbd_edpt_xfer>
10005a22:	bdf8      	pop	{r3, r4, r5, r6, r7, pc}
10005a24:	42b7      	cmp	r7, r6
10005a26:	d101      	bne.n	10005a2c <_data_stage_xact+0x3c>
10005a28:	2180      	movs	r1, #128	; 0x80
10005a2a:	e7f3      	b.n	10005a14 <_data_stage_xact+0x24>
10005a2c:	4b04      	ldr	r3, [pc, #16]	; (10005a40 <_data_stage_xact+0x50>)
10005a2e:	6899      	ldr	r1, [r3, #8]
10005a30:	0022      	movs	r2, r4
10005a32:	4804      	ldr	r0, [pc, #16]	; (10005a44 <_data_stage_xact+0x54>)
10005a34:	f7fe fba8 	bl	10004188 <__wrap___aeabi_memcpy>
10005a38:	2180      	movs	r1, #128	; 0x80
10005a3a:	e7eb      	b.n	10005a14 <_data_stage_xact+0x24>
10005a3c:	2200      	movs	r2, #0
10005a3e:	e7ec      	b.n	10005a1a <_data_stage_xact+0x2a>
10005a40:	200010a0 	.word	0x200010a0
10005a44:	200010bc 	.word	0x200010bc

10005a48 <tud_control_status>:
10005a48:	b570      	push	{r4, r5, r6, lr}
10005a4a:	0006      	movs	r6, r0
10005a4c:	000c      	movs	r4, r1
10005a4e:	4d0b      	ldr	r5, [pc, #44]	; (10005a7c <tud_control_status+0x34>)
10005a50:	2208      	movs	r2, #8
10005a52:	0028      	movs	r0, r5
10005a54:	f7fe fb98 	bl	10004188 <__wrap___aeabi_memcpy>
10005a58:	2300      	movs	r3, #0
10005a5a:	60ab      	str	r3, [r5, #8]
10005a5c:	81eb      	strh	r3, [r5, #14]
10005a5e:	81ab      	strh	r3, [r5, #12]
10005a60:	2300      	movs	r3, #0
10005a62:	56e3      	ldrsb	r3, [r4, r3]
10005a64:	2b00      	cmp	r3, #0
10005a66:	db06      	blt.n	10005a76 <tud_control_status+0x2e>
10005a68:	2180      	movs	r1, #128	; 0x80
10005a6a:	2300      	movs	r3, #0
10005a6c:	2200      	movs	r2, #0
10005a6e:	0030      	movs	r0, r6
10005a70:	f7ff fc92 	bl	10005398 <usbd_edpt_xfer>
10005a74:	bd70      	pop	{r4, r5, r6, pc}
10005a76:	2100      	movs	r1, #0
10005a78:	e7f7      	b.n	10005a6a <tud_control_status+0x22>
10005a7a:	46c0      	nop			; (mov r8, r8)
10005a7c:	200010a0 	.word	0x200010a0

10005a80 <tud_control_xfer>:
10005a80:	b5f0      	push	{r4, r5, r6, r7, lr}
10005a82:	46c6      	mov	lr, r8
10005a84:	b500      	push	{lr}
10005a86:	4680      	mov	r8, r0
10005a88:	000c      	movs	r4, r1
10005a8a:	0016      	movs	r6, r2
10005a8c:	001d      	movs	r5, r3
10005a8e:	4f18      	ldr	r7, [pc, #96]	; (10005af0 <tud_control_xfer+0x70>)
10005a90:	2208      	movs	r2, #8
10005a92:	0038      	movs	r0, r7
10005a94:	f7fe fb78 	bl	10004188 <__wrap___aeabi_memcpy>
10005a98:	60be      	str	r6, [r7, #8]
10005a9a:	2300      	movs	r3, #0
10005a9c:	81fb      	strh	r3, [r7, #14]
10005a9e:	79a3      	ldrb	r3, [r4, #6]
10005aa0:	79e1      	ldrb	r1, [r4, #7]
10005aa2:	0209      	lsls	r1, r1, #8
10005aa4:	4319      	orrs	r1, r3
10005aa6:	1c0b      	adds	r3, r1, #0
10005aa8:	42a9      	cmp	r1, r5
10005aaa:	d900      	bls.n	10005aae <tud_control_xfer+0x2e>
10005aac:	1c2b      	adds	r3, r5, #0
10005aae:	b299      	uxth	r1, r3
10005ab0:	4a0f      	ldr	r2, [pc, #60]	; (10005af0 <tud_control_xfer+0x70>)
10005ab2:	8193      	strh	r3, [r2, #12]
10005ab4:	79a2      	ldrb	r2, [r4, #6]
10005ab6:	79e3      	ldrb	r3, [r4, #7]
10005ab8:	021b      	lsls	r3, r3, #8
10005aba:	4313      	orrs	r3, r2
10005abc:	d009      	beq.n	10005ad2 <tud_control_xfer+0x52>
10005abe:	2900      	cmp	r1, #0
10005ac0:	d001      	beq.n	10005ac6 <tud_control_xfer+0x46>
10005ac2:	2e00      	cmp	r6, #0
10005ac4:	d012      	beq.n	10005aec <tud_control_xfer+0x6c>
10005ac6:	4640      	mov	r0, r8
10005ac8:	f7ff ff92 	bl	100059f0 <_data_stage_xact>
10005acc:	bc80      	pop	{r7}
10005ace:	46b8      	mov	r8, r7
10005ad0:	bdf0      	pop	{r4, r5, r6, r7, pc}
10005ad2:	2300      	movs	r3, #0
10005ad4:	56e3      	ldrsb	r3, [r4, r3]
10005ad6:	2b00      	cmp	r3, #0
10005ad8:	db06      	blt.n	10005ae8 <tud_control_xfer+0x68>
10005ada:	2180      	movs	r1, #128	; 0x80
10005adc:	2300      	movs	r3, #0
10005ade:	2200      	movs	r2, #0
10005ae0:	4640      	mov	r0, r8
10005ae2:	f7ff fc59 	bl	10005398 <usbd_edpt_xfer>
10005ae6:	e7f1      	b.n	10005acc <tud_control_xfer+0x4c>
10005ae8:	2100      	movs	r1, #0
10005aea:	e7f7      	b.n	10005adc <tud_control_xfer+0x5c>
10005aec:	2000      	movs	r0, #0
10005aee:	e7ed      	b.n	10005acc <tud_control_xfer+0x4c>
10005af0:	200010a0 	.word	0x200010a0

10005af4 <usbd_control_reset>:
10005af4:	b510      	push	{r4, lr}
10005af6:	2214      	movs	r2, #20
10005af8:	2100      	movs	r1, #0
10005afa:	4802      	ldr	r0, [pc, #8]	; (10005b04 <usbd_control_reset+0x10>)
10005afc:	f7fe fb3e 	bl	1000417c <__wrap_memset>
10005b00:	bd10      	pop	{r4, pc}
10005b02:	46c0      	nop			; (mov r8, r8)
10005b04:	200010a0 	.word	0x200010a0

10005b08 <usbd_control_set_complete_callback>:
10005b08:	4b01      	ldr	r3, [pc, #4]	; (10005b10 <usbd_control_set_complete_callback+0x8>)
10005b0a:	6118      	str	r0, [r3, #16]
10005b0c:	4770      	bx	lr
10005b0e:	46c0      	nop			; (mov r8, r8)
10005b10:	200010a0 	.word	0x200010a0

10005b14 <usbd_control_set_request>:
10005b14:	b510      	push	{r4, lr}
10005b16:	0001      	movs	r1, r0
10005b18:	4c04      	ldr	r4, [pc, #16]	; (10005b2c <usbd_control_set_request+0x18>)
10005b1a:	2208      	movs	r2, #8
10005b1c:	0020      	movs	r0, r4
10005b1e:	f7fe fb33 	bl	10004188 <__wrap___aeabi_memcpy>
10005b22:	2300      	movs	r3, #0
10005b24:	60a3      	str	r3, [r4, #8]
10005b26:	81e3      	strh	r3, [r4, #14]
10005b28:	81a3      	strh	r3, [r4, #12]
10005b2a:	bd10      	pop	{r4, pc}
10005b2c:	200010a0 	.word	0x200010a0

10005b30 <usbd_control_xfer_cb>:
10005b30:	b570      	push	{r4, r5, r6, lr}
10005b32:	0005      	movs	r5, r0
10005b34:	001c      	movs	r4, r3
10005b36:	09c9      	lsrs	r1, r1, #7
10005b38:	4b2d      	ldr	r3, [pc, #180]	; (10005bf0 <usbd_control_xfer_cb+0xc0>)
10005b3a:	781b      	ldrb	r3, [r3, #0]
10005b3c:	09db      	lsrs	r3, r3, #7
10005b3e:	428b      	cmp	r3, r1
10005b40:	d011      	beq.n	10005b66 <usbd_control_xfer_cb+0x36>
10005b42:	2c00      	cmp	r4, #0
10005b44:	d150      	bne.n	10005be8 <usbd_control_xfer_cb+0xb8>
10005b46:	4b2b      	ldr	r3, [pc, #172]	; (10005bf4 <usbd_control_xfer_cb+0xc4>)
10005b48:	2b00      	cmp	r3, #0
10005b4a:	d002      	beq.n	10005b52 <usbd_control_xfer_cb+0x22>
10005b4c:	4928      	ldr	r1, [pc, #160]	; (10005bf0 <usbd_control_xfer_cb+0xc0>)
10005b4e:	f7ff f8d9 	bl	10004d04 <dcd_edpt0_status_complete>
10005b52:	4b27      	ldr	r3, [pc, #156]	; (10005bf0 <usbd_control_xfer_cb+0xc0>)
10005b54:	691b      	ldr	r3, [r3, #16]
10005b56:	2b00      	cmp	r3, #0
10005b58:	d003      	beq.n	10005b62 <usbd_control_xfer_cb+0x32>
10005b5a:	4a25      	ldr	r2, [pc, #148]	; (10005bf0 <usbd_control_xfer_cb+0xc0>)
10005b5c:	2103      	movs	r1, #3
10005b5e:	0028      	movs	r0, r5
10005b60:	4798      	blx	r3
10005b62:	2001      	movs	r0, #1
10005b64:	bd70      	pop	{r4, r5, r6, pc}
10005b66:	4b22      	ldr	r3, [pc, #136]	; (10005bf0 <usbd_control_xfer_cb+0xc0>)
10005b68:	781b      	ldrb	r3, [r3, #0]
10005b6a:	b25b      	sxtb	r3, r3
10005b6c:	2b00      	cmp	r3, #0
10005b6e:	db07      	blt.n	10005b80 <usbd_control_xfer_cb+0x50>
10005b70:	4b1f      	ldr	r3, [pc, #124]	; (10005bf0 <usbd_control_xfer_cb+0xc0>)
10005b72:	6898      	ldr	r0, [r3, #8]
10005b74:	2800      	cmp	r0, #0
10005b76:	d039      	beq.n	10005bec <usbd_control_xfer_cb+0xbc>
10005b78:	0022      	movs	r2, r4
10005b7a:	491f      	ldr	r1, [pc, #124]	; (10005bf8 <usbd_control_xfer_cb+0xc8>)
10005b7c:	f7fe fb04 	bl	10004188 <__wrap___aeabi_memcpy>
10005b80:	b2a2      	uxth	r2, r4
10005b82:	491b      	ldr	r1, [pc, #108]	; (10005bf0 <usbd_control_xfer_cb+0xc0>)
10005b84:	89cb      	ldrh	r3, [r1, #14]
10005b86:	18d3      	adds	r3, r2, r3
10005b88:	b29b      	uxth	r3, r3
10005b8a:	81cb      	strh	r3, [r1, #14]
10005b8c:	688a      	ldr	r2, [r1, #8]
10005b8e:	1912      	adds	r2, r2, r4
10005b90:	608a      	str	r2, [r1, #8]
10005b92:	88ca      	ldrh	r2, [r1, #6]
10005b94:	4293      	cmp	r3, r2
10005b96:	d001      	beq.n	10005b9c <usbd_control_xfer_cb+0x6c>
10005b98:	2c3f      	cmp	r4, #63	; 0x3f
10005b9a:	d821      	bhi.n	10005be0 <usbd_control_xfer_cb+0xb0>
10005b9c:	4b14      	ldr	r3, [pc, #80]	; (10005bf0 <usbd_control_xfer_cb+0xc0>)
10005b9e:	691b      	ldr	r3, [r3, #16]
10005ba0:	2b00      	cmp	r3, #0
10005ba2:	d005      	beq.n	10005bb0 <usbd_control_xfer_cb+0x80>
10005ba4:	4a12      	ldr	r2, [pc, #72]	; (10005bf0 <usbd_control_xfer_cb+0xc0>)
10005ba6:	2102      	movs	r1, #2
10005ba8:	0028      	movs	r0, r5
10005baa:	4798      	blx	r3
10005bac:	2800      	cmp	r0, #0
10005bae:	d00d      	beq.n	10005bcc <usbd_control_xfer_cb+0x9c>
10005bb0:	4b0f      	ldr	r3, [pc, #60]	; (10005bf0 <usbd_control_xfer_cb+0xc0>)
10005bb2:	781b      	ldrb	r3, [r3, #0]
10005bb4:	b25b      	sxtb	r3, r3
10005bb6:	2b00      	cmp	r3, #0
10005bb8:	db06      	blt.n	10005bc8 <usbd_control_xfer_cb+0x98>
10005bba:	2180      	movs	r1, #128	; 0x80
10005bbc:	2300      	movs	r3, #0
10005bbe:	2200      	movs	r2, #0
10005bc0:	0028      	movs	r0, r5
10005bc2:	f7ff fbe9 	bl	10005398 <usbd_edpt_xfer>
10005bc6:	e7cd      	b.n	10005b64 <usbd_control_xfer_cb+0x34>
10005bc8:	2100      	movs	r1, #0
10005bca:	e7f7      	b.n	10005bbc <usbd_control_xfer_cb+0x8c>
10005bcc:	2100      	movs	r1, #0
10005bce:	0028      	movs	r0, r5
10005bd0:	f7ff f8e4 	bl	10004d9c <dcd_edpt_stall>
10005bd4:	2180      	movs	r1, #128	; 0x80
10005bd6:	0028      	movs	r0, r5
10005bd8:	f7ff f8e0 	bl	10004d9c <dcd_edpt_stall>
10005bdc:	2001      	movs	r0, #1
10005bde:	e7c1      	b.n	10005b64 <usbd_control_xfer_cb+0x34>
10005be0:	0028      	movs	r0, r5
10005be2:	f7ff ff05 	bl	100059f0 <_data_stage_xact>
10005be6:	e7bd      	b.n	10005b64 <usbd_control_xfer_cb+0x34>
10005be8:	2000      	movs	r0, #0
10005bea:	e7bb      	b.n	10005b64 <usbd_control_xfer_cb+0x34>
10005bec:	2000      	movs	r0, #0
10005bee:	e7b9      	b.n	10005b64 <usbd_control_xfer_cb+0x34>
10005bf0:	200010a0 	.word	0x200010a0
10005bf4:	10004d05 	.word	0x10004d05
10005bf8:	200010bc 	.word	0x200010bc

10005bfc <_prep_out_transaction>:
10005bfc:	b570      	push	{r4, r5, r6, lr}
10005bfe:	0004      	movs	r4, r0
10005c00:	0005      	movs	r5, r0
10005c02:	3510      	adds	r5, #16
10005c04:	0028      	movs	r0, r5
10005c06:	f000 fe6f 	bl	100068e8 <tu_fifo_remaining>
10005c0a:	283f      	cmp	r0, #63	; 0x3f
10005c0c:	d801      	bhi.n	10005c12 <_prep_out_transaction+0x16>
10005c0e:	2000      	movs	r0, #0
10005c10:	bd70      	pop	{r4, r5, r6, pc}
10005c12:	78e1      	ldrb	r1, [r4, #3]
10005c14:	2000      	movs	r0, #0
10005c16:	f7ff fb97 	bl	10005348 <usbd_edpt_claim>
10005c1a:	2800      	cmp	r0, #0
10005c1c:	d0f8      	beq.n	10005c10 <_prep_out_transaction+0x14>
10005c1e:	0028      	movs	r0, r5
10005c20:	f000 fe62 	bl	100068e8 <tu_fifo_remaining>
10005c24:	283f      	cmp	r0, #63	; 0x3f
10005c26:	d908      	bls.n	10005c3a <_prep_out_transaction+0x3e>
10005c28:	2392      	movs	r3, #146	; 0x92
10005c2a:	009b      	lsls	r3, r3, #2
10005c2c:	18e2      	adds	r2, r4, r3
10005c2e:	78e1      	ldrb	r1, [r4, #3]
10005c30:	2340      	movs	r3, #64	; 0x40
10005c32:	2000      	movs	r0, #0
10005c34:	f7ff fbb0 	bl	10005398 <usbd_edpt_xfer>
10005c38:	e7ea      	b.n	10005c10 <_prep_out_transaction+0x14>
10005c3a:	78e1      	ldrb	r1, [r4, #3]
10005c3c:	2000      	movs	r0, #0
10005c3e:	f7ff fb97 	bl	10005370 <usbd_edpt_release>
10005c42:	2000      	movs	r0, #0
10005c44:	e7e4      	b.n	10005c10 <_prep_out_transaction+0x14>
	...

10005c48 <tud_cdc_n_connected>:
10005c48:	b510      	push	{r4, lr}
10005c4a:	0004      	movs	r4, r0
10005c4c:	f7ff fa9a 	bl	10005184 <tud_mounted>
10005c50:	2800      	cmp	r0, #0
10005c52:	d10c      	bne.n	10005c6e <tud_cdc_n_connected+0x26>
10005c54:	2200      	movs	r2, #0
10005c56:	2a00      	cmp	r2, #0
10005c58:	d011      	beq.n	10005c7e <tud_cdc_n_connected+0x36>
10005c5a:	23b2      	movs	r3, #178	; 0xb2
10005c5c:	009b      	lsls	r3, r3, #2
10005c5e:	4363      	muls	r3, r4
10005c60:	4809      	ldr	r0, [pc, #36]	; (10005c88 <tud_cdc_n_connected+0x40>)
10005c62:	18c0      	adds	r0, r0, r3
10005c64:	7903      	ldrb	r3, [r0, #4]
10005c66:	07db      	lsls	r3, r3, #31
10005c68:	d50b      	bpl.n	10005c82 <tud_cdc_n_connected+0x3a>
10005c6a:	2001      	movs	r0, #1
10005c6c:	e008      	b.n	10005c80 <tud_cdc_n_connected+0x38>
10005c6e:	f7ff fa91 	bl	10005194 <tud_suspended>
10005c72:	2800      	cmp	r0, #0
10005c74:	d101      	bne.n	10005c7a <tud_cdc_n_connected+0x32>
10005c76:	2201      	movs	r2, #1
10005c78:	e7ed      	b.n	10005c56 <tud_cdc_n_connected+0xe>
10005c7a:	2200      	movs	r2, #0
10005c7c:	e7eb      	b.n	10005c56 <tud_cdc_n_connected+0xe>
10005c7e:	2000      	movs	r0, #0
10005c80:	bd10      	pop	{r4, pc}
10005c82:	2000      	movs	r0, #0
10005c84:	e7fc      	b.n	10005c80 <tud_cdc_n_connected+0x38>
10005c86:	46c0      	nop			; (mov r8, r8)
10005c88:	20000dd8 	.word	0x20000dd8

10005c8c <tud_cdc_n_available>:
10005c8c:	b510      	push	{r4, lr}
10005c8e:	23b2      	movs	r3, #178	; 0xb2
10005c90:	009b      	lsls	r3, r3, #2
10005c92:	4358      	muls	r0, r3
10005c94:	3010      	adds	r0, #16
10005c96:	4b02      	ldr	r3, [pc, #8]	; (10005ca0 <tud_cdc_n_available+0x14>)
10005c98:	18c0      	adds	r0, r0, r3
10005c9a:	f000 fdf4 	bl	10006886 <tu_fifo_count>
10005c9e:	bd10      	pop	{r4, pc}
10005ca0:	20000dd8 	.word	0x20000dd8

10005ca4 <tud_cdc_n_read>:
10005ca4:	b570      	push	{r4, r5, r6, lr}
10005ca6:	23b2      	movs	r3, #178	; 0xb2
10005ca8:	009b      	lsls	r3, r3, #2
10005caa:	4358      	muls	r0, r3
10005cac:	4b06      	ldr	r3, [pc, #24]	; (10005cc8 <tud_cdc_n_read+0x24>)
10005cae:	18c5      	adds	r5, r0, r3
10005cb0:	b292      	uxth	r2, r2
10005cb2:	3010      	adds	r0, #16
10005cb4:	18c0      	adds	r0, r0, r3
10005cb6:	f000 fe4e 	bl	10006956 <tu_fifo_read_n>
10005cba:	0004      	movs	r4, r0
10005cbc:	0028      	movs	r0, r5
10005cbe:	f7ff ff9d 	bl	10005bfc <_prep_out_transaction>
10005cc2:	0020      	movs	r0, r4
10005cc4:	bd70      	pop	{r4, r5, r6, pc}
10005cc6:	46c0      	nop			; (mov r8, r8)
10005cc8:	20000dd8 	.word	0x20000dd8

10005ccc <tud_cdc_n_write_flush>:
10005ccc:	b570      	push	{r4, r5, r6, lr}
10005cce:	0005      	movs	r5, r0
10005cd0:	f7ff fa58 	bl	10005184 <tud_mounted>
10005cd4:	2800      	cmp	r0, #0
10005cd6:	d104      	bne.n	10005ce2 <tud_cdc_n_write_flush+0x16>
10005cd8:	2300      	movs	r3, #0
10005cda:	2b00      	cmp	r3, #0
10005cdc:	d109      	bne.n	10005cf2 <tud_cdc_n_write_flush+0x26>
10005cde:	2000      	movs	r0, #0
10005ce0:	bd70      	pop	{r4, r5, r6, pc}
10005ce2:	f7ff fa57 	bl	10005194 <tud_suspended>
10005ce6:	2800      	cmp	r0, #0
10005ce8:	d101      	bne.n	10005cee <tud_cdc_n_write_flush+0x22>
10005cea:	2301      	movs	r3, #1
10005cec:	e7f5      	b.n	10005cda <tud_cdc_n_write_flush+0xe>
10005cee:	2300      	movs	r3, #0
10005cf0:	e7f3      	b.n	10005cda <tud_cdc_n_write_flush+0xe>
10005cf2:	24b2      	movs	r4, #178	; 0xb2
10005cf4:	00a4      	lsls	r4, r4, #2
10005cf6:	436c      	muls	r4, r5
10005cf8:	3420      	adds	r4, #32
10005cfa:	4b21      	ldr	r3, [pc, #132]	; (10005d80 <tud_cdc_n_write_flush+0xb4>)
10005cfc:	18e4      	adds	r4, r4, r3
10005cfe:	3404      	adds	r4, #4
10005d00:	0020      	movs	r0, r4
10005d02:	f000 fdc0 	bl	10006886 <tu_fifo_count>
10005d06:	2800      	cmp	r0, #0
10005d08:	d101      	bne.n	10005d0e <tud_cdc_n_write_flush+0x42>
10005d0a:	2000      	movs	r0, #0
10005d0c:	e7e8      	b.n	10005ce0 <tud_cdc_n_write_flush+0x14>
10005d0e:	22b2      	movs	r2, #178	; 0xb2
10005d10:	0092      	lsls	r2, r2, #2
10005d12:	436a      	muls	r2, r5
10005d14:	4b1a      	ldr	r3, [pc, #104]	; (10005d80 <tud_cdc_n_write_flush+0xb4>)
10005d16:	189b      	adds	r3, r3, r2
10005d18:	7899      	ldrb	r1, [r3, #2]
10005d1a:	2000      	movs	r0, #0
10005d1c:	f7ff fb14 	bl	10005348 <usbd_edpt_claim>
10005d20:	2800      	cmp	r0, #0
10005d22:	d101      	bne.n	10005d28 <tud_cdc_n_write_flush+0x5c>
10005d24:	2000      	movs	r0, #0
10005d26:	e7db      	b.n	10005ce0 <tud_cdc_n_write_flush+0x14>
10005d28:	26b2      	movs	r6, #178	; 0xb2
10005d2a:	00b6      	lsls	r6, r6, #2
10005d2c:	436e      	muls	r6, r5
10005d2e:	23a2      	movs	r3, #162	; 0xa2
10005d30:	009b      	lsls	r3, r3, #2
10005d32:	469c      	mov	ip, r3
10005d34:	4466      	add	r6, ip
10005d36:	4b12      	ldr	r3, [pc, #72]	; (10005d80 <tud_cdc_n_write_flush+0xb4>)
10005d38:	18f6      	adds	r6, r6, r3
10005d3a:	2240      	movs	r2, #64	; 0x40
10005d3c:	0031      	movs	r1, r6
10005d3e:	0020      	movs	r0, r4
10005d40:	f000 fe09 	bl	10006956 <tu_fifo_read_n>
10005d44:	1e04      	subs	r4, r0, #0
10005d46:	d00e      	beq.n	10005d66 <tud_cdc_n_write_flush+0x9a>
10005d48:	20b2      	movs	r0, #178	; 0xb2
10005d4a:	0080      	lsls	r0, r0, #2
10005d4c:	4368      	muls	r0, r5
10005d4e:	4d0c      	ldr	r5, [pc, #48]	; (10005d80 <tud_cdc_n_write_flush+0xb4>)
10005d50:	182d      	adds	r5, r5, r0
10005d52:	78a9      	ldrb	r1, [r5, #2]
10005d54:	0023      	movs	r3, r4
10005d56:	0032      	movs	r2, r6
10005d58:	2000      	movs	r0, #0
10005d5a:	f7ff fb1d 	bl	10005398 <usbd_edpt_xfer>
10005d5e:	2800      	cmp	r0, #0
10005d60:	d00c      	beq.n	10005d7c <tud_cdc_n_write_flush+0xb0>
10005d62:	0020      	movs	r0, r4
10005d64:	e7bc      	b.n	10005ce0 <tud_cdc_n_write_flush+0x14>
10005d66:	20b2      	movs	r0, #178	; 0xb2
10005d68:	0080      	lsls	r0, r0, #2
10005d6a:	4368      	muls	r0, r5
10005d6c:	4d04      	ldr	r5, [pc, #16]	; (10005d80 <tud_cdc_n_write_flush+0xb4>)
10005d6e:	182d      	adds	r5, r5, r0
10005d70:	78a9      	ldrb	r1, [r5, #2]
10005d72:	2000      	movs	r0, #0
10005d74:	f7ff fafc 	bl	10005370 <usbd_edpt_release>
10005d78:	2000      	movs	r0, #0
10005d7a:	e7b1      	b.n	10005ce0 <tud_cdc_n_write_flush+0x14>
10005d7c:	2000      	movs	r0, #0
10005d7e:	e7af      	b.n	10005ce0 <tud_cdc_n_write_flush+0x14>
10005d80:	20000dd8 	.word	0x20000dd8

10005d84 <tud_cdc_n_write>:
10005d84:	b570      	push	{r4, r5, r6, lr}
10005d86:	0005      	movs	r5, r0
10005d88:	24b2      	movs	r4, #178	; 0xb2
10005d8a:	00a4      	lsls	r4, r4, #2
10005d8c:	4344      	muls	r4, r0
10005d8e:	3420      	adds	r4, #32
10005d90:	4b09      	ldr	r3, [pc, #36]	; (10005db8 <tud_cdc_n_write+0x34>)
10005d92:	18e4      	adds	r4, r4, r3
10005d94:	3404      	adds	r4, #4
10005d96:	b292      	uxth	r2, r2
10005d98:	0020      	movs	r0, r4
10005d9a:	f000 fe13 	bl	100069c4 <tu_fifo_write_n>
10005d9e:	0006      	movs	r6, r0
10005da0:	0020      	movs	r0, r4
10005da2:	f000 fd70 	bl	10006886 <tu_fifo_count>
10005da6:	283f      	cmp	r0, #63	; 0x3f
10005da8:	d801      	bhi.n	10005dae <tud_cdc_n_write+0x2a>
10005daa:	0030      	movs	r0, r6
10005dac:	bd70      	pop	{r4, r5, r6, pc}
10005dae:	0028      	movs	r0, r5
10005db0:	f7ff ff8c 	bl	10005ccc <tud_cdc_n_write_flush>
10005db4:	e7f9      	b.n	10005daa <tud_cdc_n_write+0x26>
10005db6:	46c0      	nop			; (mov r8, r8)
10005db8:	20000dd8 	.word	0x20000dd8

10005dbc <tud_cdc_n_write_available>:
10005dbc:	b510      	push	{r4, lr}
10005dbe:	23b2      	movs	r3, #178	; 0xb2
10005dc0:	009b      	lsls	r3, r3, #2
10005dc2:	4358      	muls	r0, r3
10005dc4:	3020      	adds	r0, #32
10005dc6:	4b03      	ldr	r3, [pc, #12]	; (10005dd4 <tud_cdc_n_write_available+0x18>)
10005dc8:	18c0      	adds	r0, r0, r3
10005dca:	3004      	adds	r0, #4
10005dcc:	f000 fd8c 	bl	100068e8 <tu_fifo_remaining>
10005dd0:	bd10      	pop	{r4, pc}
10005dd2:	46c0      	nop			; (mov r8, r8)
10005dd4:	20000dd8 	.word	0x20000dd8

10005dd8 <cdcd_init>:
10005dd8:	b5f0      	push	{r4, r5, r6, r7, lr}
10005dda:	46ce      	mov	lr, r9
10005ddc:	4647      	mov	r7, r8
10005dde:	b580      	push	{r7, lr}
10005de0:	b083      	sub	sp, #12
10005de2:	22b2      	movs	r2, #178	; 0xb2
10005de4:	0092      	lsls	r2, r2, #2
10005de6:	2100      	movs	r1, #0
10005de8:	4828      	ldr	r0, [pc, #160]	; (10005e8c <cdcd_init+0xb4>)
10005dea:	f7fe f9c7 	bl	1000417c <__wrap_memset>
10005dee:	2600      	movs	r6, #0
10005df0:	2e00      	cmp	r6, #0
10005df2:	d004      	beq.n	10005dfe <cdcd_init+0x26>
10005df4:	b003      	add	sp, #12
10005df6:	bcc0      	pop	{r6, r7}
10005df8:	46b9      	mov	r9, r7
10005dfa:	46b0      	mov	r8, r6
10005dfc:	bdf0      	pop	{r4, r5, r6, r7, pc}
10005dfe:	4f23      	ldr	r7, [pc, #140]	; (10005e8c <cdcd_init+0xb4>)
10005e00:	24b2      	movs	r4, #178	; 0xb2
10005e02:	00a4      	lsls	r4, r4, #2
10005e04:	4374      	muls	r4, r6
10005e06:	193d      	adds	r5, r7, r4
10005e08:	23ff      	movs	r3, #255	; 0xff
10005e0a:	716b      	strb	r3, [r5, #5]
10005e0c:	2300      	movs	r3, #0
10005e0e:	4698      	mov	r8, r3
10005e10:	4a1f      	ldr	r2, [pc, #124]	; (10005e90 <cdcd_init+0xb8>)
10005e12:	80ea      	strh	r2, [r5, #6]
10005e14:	2201      	movs	r2, #1
10005e16:	812a      	strh	r2, [r5, #8]
10005e18:	72ab      	strb	r3, [r5, #10]
10005e1a:	72eb      	strb	r3, [r5, #11]
10005e1c:	2308      	movs	r3, #8
10005e1e:	732b      	strb	r3, [r5, #12]
10005e20:	0021      	movs	r1, r4
10005e22:	3138      	adds	r1, #56	; 0x38
10005e24:	19c9      	adds	r1, r1, r7
10005e26:	33f8      	adds	r3, #248	; 0xf8
10005e28:	4699      	mov	r9, r3
10005e2a:	0020      	movs	r0, r4
10005e2c:	3010      	adds	r0, #16
10005e2e:	19c0      	adds	r0, r0, r7
10005e30:	4643      	mov	r3, r8
10005e32:	9300      	str	r3, [sp, #0]
10005e34:	3301      	adds	r3, #1
10005e36:	464a      	mov	r2, r9
10005e38:	f000 fce7 	bl	1000680a <tu_fifo_config>
10005e3c:	0021      	movs	r1, r4
10005e3e:	3139      	adds	r1, #57	; 0x39
10005e40:	31ff      	adds	r1, #255	; 0xff
10005e42:	19c9      	adds	r1, r1, r7
10005e44:	0020      	movs	r0, r4
10005e46:	3020      	adds	r0, #32
10005e48:	19c0      	adds	r0, r0, r7
10005e4a:	3004      	adds	r0, #4
10005e4c:	2301      	movs	r3, #1
10005e4e:	9300      	str	r3, [sp, #0]
10005e50:	464a      	mov	r2, r9
10005e52:	f000 fcda 	bl	1000680a <tu_fifo_config>
10005e56:	238e      	movs	r3, #142	; 0x8e
10005e58:	009b      	lsls	r3, r3, #2
10005e5a:	18e3      	adds	r3, r4, r3
10005e5c:	4699      	mov	r9, r3
10005e5e:	44b9      	add	r9, r7
10005e60:	4648      	mov	r0, r9
10005e62:	f7fb f8eb 	bl	1000103c <mutex_init>
10005e66:	4643      	mov	r3, r8
10005e68:	61eb      	str	r3, [r5, #28]
10005e6a:	464b      	mov	r3, r9
10005e6c:	622b      	str	r3, [r5, #32]
10005e6e:	2390      	movs	r3, #144	; 0x90
10005e70:	009b      	lsls	r3, r3, #2
10005e72:	469c      	mov	ip, r3
10005e74:	4464      	add	r4, ip
10005e76:	19e4      	adds	r4, r4, r7
10005e78:	0020      	movs	r0, r4
10005e7a:	f7fb f8df 	bl	1000103c <mutex_init>
10005e7e:	632c      	str	r4, [r5, #48]	; 0x30
10005e80:	4643      	mov	r3, r8
10005e82:	636b      	str	r3, [r5, #52]	; 0x34
10005e84:	3601      	adds	r6, #1
10005e86:	b2f6      	uxtb	r6, r6
10005e88:	e7b2      	b.n	10005df0 <cdcd_init+0x18>
10005e8a:	46c0      	nop			; (mov r8, r8)
10005e8c:	20000dd8 	.word	0x20000dd8
10005e90:	ffffc200 	.word	0xffffc200

10005e94 <cdcd_reset>:
10005e94:	b570      	push	{r4, r5, r6, lr}
10005e96:	2500      	movs	r5, #0
10005e98:	2d00      	cmp	r5, #0
10005e9a:	d000      	beq.n	10005e9e <cdcd_reset+0xa>
10005e9c:	bd70      	pop	{r4, r5, r6, pc}
10005e9e:	24b2      	movs	r4, #178	; 0xb2
10005ea0:	00a4      	lsls	r4, r4, #2
10005ea2:	436c      	muls	r4, r5
10005ea4:	4e0b      	ldr	r6, [pc, #44]	; (10005ed4 <cdcd_reset+0x40>)
10005ea6:	19a0      	adds	r0, r4, r6
10005ea8:	2205      	movs	r2, #5
10005eaa:	2100      	movs	r1, #0
10005eac:	f7fe f966 	bl	1000417c <__wrap_memset>
10005eb0:	0020      	movs	r0, r4
10005eb2:	3010      	adds	r0, #16
10005eb4:	1980      	adds	r0, r0, r6
10005eb6:	f000 fd8a 	bl	100069ce <tu_fifo_clear>
10005eba:	3420      	adds	r4, #32
10005ebc:	19a4      	adds	r4, r4, r6
10005ebe:	3404      	adds	r4, #4
10005ec0:	0020      	movs	r0, r4
10005ec2:	f000 fd84 	bl	100069ce <tu_fifo_clear>
10005ec6:	2101      	movs	r1, #1
10005ec8:	0020      	movs	r0, r4
10005eca:	f000 fd9f 	bl	10006a0c <tu_fifo_set_overwritable>
10005ece:	3501      	adds	r5, #1
10005ed0:	b2ed      	uxtb	r5, r5
10005ed2:	e7e1      	b.n	10005e98 <cdcd_reset+0x4>
10005ed4:	20000dd8 	.word	0x20000dd8

10005ed8 <cdcd_open>:
10005ed8:	b5f0      	push	{r4, r5, r6, r7, lr}
10005eda:	b083      	sub	sp, #12
10005edc:	0006      	movs	r6, r0
10005ede:	794b      	ldrb	r3, [r1, #5]
10005ee0:	2b02      	cmp	r3, #2
10005ee2:	d150      	bne.n	10005f86 <cdcd_open+0xae>
10005ee4:	798b      	ldrb	r3, [r1, #6]
10005ee6:	2b02      	cmp	r3, #2
10005ee8:	d151      	bne.n	10005f8e <cdcd_open+0xb6>
10005eea:	2300      	movs	r3, #0
10005eec:	2b00      	cmp	r3, #0
10005eee:	d008      	beq.n	10005f02 <cdcd_open+0x2a>
10005ef0:	2700      	movs	r7, #0
10005ef2:	2f00      	cmp	r7, #0
10005ef4:	d04d      	beq.n	10005f92 <cdcd_open+0xba>
10005ef6:	788b      	ldrb	r3, [r1, #2]
10005ef8:	703b      	strb	r3, [r7, #0]
10005efa:	780c      	ldrb	r4, [r1, #0]
10005efc:	190c      	adds	r4, r1, r4
10005efe:	2509      	movs	r5, #9
10005f00:	e011      	b.n	10005f26 <cdcd_open+0x4e>
10005f02:	24b2      	movs	r4, #178	; 0xb2
10005f04:	00a4      	lsls	r4, r4, #2
10005f06:	435c      	muls	r4, r3
10005f08:	4825      	ldr	r0, [pc, #148]	; (10005fa0 <cdcd_open+0xc8>)
10005f0a:	1900      	adds	r0, r0, r4
10005f0c:	7880      	ldrb	r0, [r0, #2]
10005f0e:	2800      	cmp	r0, #0
10005f10:	d002      	beq.n	10005f18 <cdcd_open+0x40>
10005f12:	3301      	adds	r3, #1
10005f14:	b2db      	uxtb	r3, r3
10005f16:	e7e9      	b.n	10005eec <cdcd_open+0x14>
10005f18:	4f21      	ldr	r7, [pc, #132]	; (10005fa0 <cdcd_open+0xc8>)
10005f1a:	19e7      	adds	r7, r4, r7
10005f1c:	e7e9      	b.n	10005ef2 <cdcd_open+0x1a>
10005f1e:	7821      	ldrb	r1, [r4, #0]
10005f20:	194d      	adds	r5, r1, r5
10005f22:	b2ad      	uxth	r5, r5
10005f24:	1864      	adds	r4, r4, r1
10005f26:	7863      	ldrb	r3, [r4, #1]
10005f28:	2b24      	cmp	r3, #36	; 0x24
10005f2a:	d101      	bne.n	10005f30 <cdcd_open+0x58>
10005f2c:	4295      	cmp	r5, r2
10005f2e:	d9f6      	bls.n	10005f1e <cdcd_open+0x46>
10005f30:	2b05      	cmp	r3, #5
10005f32:	d009      	beq.n	10005f48 <cdcd_open+0x70>
10005f34:	7863      	ldrb	r3, [r4, #1]
10005f36:	2b04      	cmp	r3, #4
10005f38:	d102      	bne.n	10005f40 <cdcd_open+0x68>
10005f3a:	7963      	ldrb	r3, [r4, #5]
10005f3c:	2b0a      	cmp	r3, #10
10005f3e:	d010      	beq.n	10005f62 <cdcd_open+0x8a>
10005f40:	0038      	movs	r0, r7
10005f42:	f7ff fe5b 	bl	10005bfc <_prep_out_transaction>
10005f46:	e01f      	b.n	10005f88 <cdcd_open+0xb0>
10005f48:	0021      	movs	r1, r4
10005f4a:	0030      	movs	r0, r6
10005f4c:	f7ff f9b0 	bl	100052b0 <usbd_edpt_open>
10005f50:	2800      	cmp	r0, #0
10005f52:	d020      	beq.n	10005f96 <cdcd_open+0xbe>
10005f54:	78a3      	ldrb	r3, [r4, #2]
10005f56:	707b      	strb	r3, [r7, #1]
10005f58:	7822      	ldrb	r2, [r4, #0]
10005f5a:	1955      	adds	r5, r2, r5
10005f5c:	b2ad      	uxth	r5, r5
10005f5e:	18a4      	adds	r4, r4, r2
10005f60:	e7e8      	b.n	10005f34 <cdcd_open+0x5c>
10005f62:	7821      	ldrb	r1, [r4, #0]
10005f64:	194d      	adds	r5, r1, r5
10005f66:	b2ad      	uxth	r5, r5
10005f68:	1861      	adds	r1, r4, r1
10005f6a:	1cbb      	adds	r3, r7, #2
10005f6c:	9301      	str	r3, [sp, #4]
10005f6e:	1cfb      	adds	r3, r7, #3
10005f70:	9300      	str	r3, [sp, #0]
10005f72:	2302      	movs	r3, #2
10005f74:	2202      	movs	r2, #2
10005f76:	0030      	movs	r0, r6
10005f78:	f7ff f9b4 	bl	100052e4 <usbd_open_edpt_pair>
10005f7c:	2800      	cmp	r0, #0
10005f7e:	d00c      	beq.n	10005f9a <cdcd_open+0xc2>
10005f80:	350e      	adds	r5, #14
10005f82:	b2ad      	uxth	r5, r5
10005f84:	e7dc      	b.n	10005f40 <cdcd_open+0x68>
10005f86:	2500      	movs	r5, #0
10005f88:	0028      	movs	r0, r5
10005f8a:	b003      	add	sp, #12
10005f8c:	bdf0      	pop	{r4, r5, r6, r7, pc}
10005f8e:	2500      	movs	r5, #0
10005f90:	e7fa      	b.n	10005f88 <cdcd_open+0xb0>
10005f92:	2500      	movs	r5, #0
10005f94:	e7f8      	b.n	10005f88 <cdcd_open+0xb0>
10005f96:	2500      	movs	r5, #0
10005f98:	e7f6      	b.n	10005f88 <cdcd_open+0xb0>
10005f9a:	2500      	movs	r5, #0
10005f9c:	e7f4      	b.n	10005f88 <cdcd_open+0xb0>
10005f9e:	46c0      	nop			; (mov r8, r8)
10005fa0:	20000dd8 	.word	0x20000dd8

10005fa4 <cdcd_control_xfer_cb>:
10005fa4:	b5f8      	push	{r3, r4, r5, r6, r7, lr}
10005fa6:	0014      	movs	r4, r2
10005fa8:	7812      	ldrb	r2, [r2, #0]
10005faa:	2360      	movs	r3, #96	; 0x60
10005fac:	4013      	ands	r3, r2
10005fae:	2b20      	cmp	r3, #32
10005fb0:	d000      	beq.n	10005fb4 <cdcd_control_xfer_cb+0x10>
10005fb2:	e07f      	b.n	100060b4 <cdcd_control_xfer_cb+0x110>
10005fb4:	4a44      	ldr	r2, [pc, #272]	; (100060c8 <cdcd_control_xfer_cb+0x124>)
10005fb6:	2500      	movs	r5, #0
10005fb8:	2d00      	cmp	r5, #0
10005fba:	d000      	beq.n	10005fbe <cdcd_control_xfer_cb+0x1a>
10005fbc:	e07c      	b.n	100060b8 <cdcd_control_xfer_cb+0x114>
10005fbe:	7816      	ldrb	r6, [r2, #0]
10005fc0:	7927      	ldrb	r7, [r4, #4]
10005fc2:	7963      	ldrb	r3, [r4, #5]
10005fc4:	021b      	lsls	r3, r3, #8
10005fc6:	433b      	orrs	r3, r7
10005fc8:	429e      	cmp	r6, r3
10005fca:	d006      	beq.n	10005fda <cdcd_control_xfer_cb+0x36>
10005fcc:	3501      	adds	r5, #1
10005fce:	b2ed      	uxtb	r5, r5
10005fd0:	23b2      	movs	r3, #178	; 0xb2
10005fd2:	009b      	lsls	r3, r3, #2
10005fd4:	469c      	mov	ip, r3
10005fd6:	4462      	add	r2, ip
10005fd8:	e7ee      	b.n	10005fb8 <cdcd_control_xfer_cb+0x14>
10005fda:	7863      	ldrb	r3, [r4, #1]
10005fdc:	2b22      	cmp	r3, #34	; 0x22
10005fde:	d031      	beq.n	10006044 <cdcd_control_xfer_cb+0xa0>
10005fe0:	d809      	bhi.n	10005ff6 <cdcd_control_xfer_cb+0x52>
10005fe2:	2b20      	cmp	r3, #32
10005fe4:	d011      	beq.n	1000600a <cdcd_control_xfer_cb+0x66>
10005fe6:	2b21      	cmp	r3, #33	; 0x21
10005fe8:	d103      	bne.n	10005ff2 <cdcd_control_xfer_cb+0x4e>
10005fea:	2901      	cmp	r1, #1
10005fec:	d023      	beq.n	10006036 <cdcd_control_xfer_cb+0x92>
10005fee:	2001      	movs	r0, #1
10005ff0:	e061      	b.n	100060b6 <cdcd_control_xfer_cb+0x112>
10005ff2:	2000      	movs	r0, #0
10005ff4:	e05f      	b.n	100060b6 <cdcd_control_xfer_cb+0x112>
10005ff6:	2b23      	cmp	r3, #35	; 0x23
10005ff8:	d105      	bne.n	10006006 <cdcd_control_xfer_cb+0x62>
10005ffa:	2901      	cmp	r1, #1
10005ffc:	d049      	beq.n	10006092 <cdcd_control_xfer_cb+0xee>
10005ffe:	2903      	cmp	r1, #3
10006000:	d04c      	beq.n	1000609c <cdcd_control_xfer_cb+0xf8>
10006002:	2001      	movs	r0, #1
10006004:	e057      	b.n	100060b6 <cdcd_control_xfer_cb+0x112>
10006006:	2000      	movs	r0, #0
10006008:	e055      	b.n	100060b6 <cdcd_control_xfer_cb+0x112>
1000600a:	2901      	cmp	r1, #1
1000600c:	d003      	beq.n	10006016 <cdcd_control_xfer_cb+0x72>
1000600e:	2903      	cmp	r1, #3
10006010:	d008      	beq.n	10006024 <cdcd_control_xfer_cb+0x80>
10006012:	2001      	movs	r0, #1
10006014:	e04f      	b.n	100060b6 <cdcd_control_xfer_cb+0x112>
10006016:	3206      	adds	r2, #6
10006018:	2307      	movs	r3, #7
1000601a:	0021      	movs	r1, r4
1000601c:	f7ff fd30 	bl	10005a80 <tud_control_xfer>
10006020:	2001      	movs	r0, #1
10006022:	e048      	b.n	100060b6 <cdcd_control_xfer_cb+0x112>
10006024:	4b29      	ldr	r3, [pc, #164]	; (100060cc <cdcd_control_xfer_cb+0x128>)
10006026:	2b00      	cmp	r3, #0
10006028:	d048      	beq.n	100060bc <cdcd_control_xfer_cb+0x118>
1000602a:	1d91      	adds	r1, r2, #6
1000602c:	0028      	movs	r0, r5
1000602e:	f7fe fa77 	bl	10004520 <tud_cdc_line_coding_cb>
10006032:	2001      	movs	r0, #1
10006034:	e03f      	b.n	100060b6 <cdcd_control_xfer_cb+0x112>
10006036:	3206      	adds	r2, #6
10006038:	2307      	movs	r3, #7
1000603a:	0021      	movs	r1, r4
1000603c:	f7ff fd20 	bl	10005a80 <tud_control_xfer>
10006040:	2001      	movs	r0, #1
10006042:	e038      	b.n	100060b6 <cdcd_control_xfer_cb+0x112>
10006044:	2901      	cmp	r1, #1
10006046:	d003      	beq.n	10006050 <cdcd_control_xfer_cb+0xac>
10006048:	2903      	cmp	r1, #3
1000604a:	d006      	beq.n	1000605a <cdcd_control_xfer_cb+0xb6>
1000604c:	2001      	movs	r0, #1
1000604e:	e032      	b.n	100060b6 <cdcd_control_xfer_cb+0x112>
10006050:	0021      	movs	r1, r4
10006052:	f7ff fcf9 	bl	10005a48 <tud_control_status>
10006056:	2001      	movs	r0, #1
10006058:	e02d      	b.n	100060b6 <cdcd_control_xfer_cb+0x112>
1000605a:	78a1      	ldrb	r1, [r4, #2]
1000605c:	78e3      	ldrb	r3, [r4, #3]
1000605e:	021b      	lsls	r3, r3, #8
10006060:	430b      	orrs	r3, r1
10006062:	2001      	movs	r0, #1
10006064:	0019      	movs	r1, r3
10006066:	4001      	ands	r1, r0
10006068:	000e      	movs	r6, r1
1000606a:	085c      	lsrs	r4, r3, #1
1000606c:	4004      	ands	r4, r0
1000606e:	7113      	strb	r3, [r2, #4]
10006070:	424b      	negs	r3, r1
10006072:	4159      	adcs	r1, r3
10006074:	b2c9      	uxtb	r1, r1
10006076:	3224      	adds	r2, #36	; 0x24
10006078:	0010      	movs	r0, r2
1000607a:	f000 fcc7 	bl	10006a0c <tu_fifo_set_overwritable>
1000607e:	4b14      	ldr	r3, [pc, #80]	; (100060d0 <cdcd_control_xfer_cb+0x12c>)
10006080:	2b00      	cmp	r3, #0
10006082:	d01d      	beq.n	100060c0 <cdcd_control_xfer_cb+0x11c>
10006084:	0022      	movs	r2, r4
10006086:	0031      	movs	r1, r6
10006088:	0028      	movs	r0, r5
1000608a:	e000      	b.n	1000608e <cdcd_control_xfer_cb+0xea>
1000608c:	bf00      	nop
1000608e:	2001      	movs	r0, #1
10006090:	e011      	b.n	100060b6 <cdcd_control_xfer_cb+0x112>
10006092:	0021      	movs	r1, r4
10006094:	f7ff fcd8 	bl	10005a48 <tud_control_status>
10006098:	2001      	movs	r0, #1
1000609a:	e00c      	b.n	100060b6 <cdcd_control_xfer_cb+0x112>
1000609c:	4b0d      	ldr	r3, [pc, #52]	; (100060d4 <cdcd_control_xfer_cb+0x130>)
1000609e:	2b00      	cmp	r3, #0
100060a0:	d010      	beq.n	100060c4 <cdcd_control_xfer_cb+0x120>
100060a2:	78a3      	ldrb	r3, [r4, #2]
100060a4:	78e1      	ldrb	r1, [r4, #3]
100060a6:	0209      	lsls	r1, r1, #8
100060a8:	4319      	orrs	r1, r3
100060aa:	0028      	movs	r0, r5
100060ac:	e000      	b.n	100060b0 <cdcd_control_xfer_cb+0x10c>
100060ae:	bf00      	nop
100060b0:	2001      	movs	r0, #1
100060b2:	e000      	b.n	100060b6 <cdcd_control_xfer_cb+0x112>
100060b4:	2000      	movs	r0, #0
100060b6:	bdf8      	pop	{r3, r4, r5, r6, r7, pc}
100060b8:	2000      	movs	r0, #0
100060ba:	e7fc      	b.n	100060b6 <cdcd_control_xfer_cb+0x112>
100060bc:	2001      	movs	r0, #1
100060be:	e7fa      	b.n	100060b6 <cdcd_control_xfer_cb+0x112>
100060c0:	2001      	movs	r0, #1
100060c2:	e7f8      	b.n	100060b6 <cdcd_control_xfer_cb+0x112>
100060c4:	2001      	movs	r0, #1
100060c6:	e7f6      	b.n	100060b6 <cdcd_control_xfer_cb+0x112>
100060c8:	20000dd8 	.word	0x20000dd8
100060cc:	10004521 	.word	0x10004521
	...

100060d8 <cdcd_xfer_cb>:
100060d8:	b5f0      	push	{r4, r5, r6, r7, lr}
100060da:	46d6      	mov	lr, sl
100060dc:	b500      	push	{lr}
100060de:	b082      	sub	sp, #8
100060e0:	9001      	str	r0, [sp, #4]
100060e2:	000f      	movs	r7, r1
100060e4:	9300      	str	r3, [sp, #0]
100060e6:	2400      	movs	r4, #0
100060e8:	2c00      	cmp	r4, #0
100060ea:	d00e      	beq.n	1000610a <cdcd_xfer_cb+0x32>
100060ec:	2c00      	cmp	r4, #0
100060ee:	d000      	beq.n	100060f2 <cdcd_xfer_cb+0x1a>
100060f0:	e07c      	b.n	100061ec <cdcd_xfer_cb+0x114>
100060f2:	78eb      	ldrb	r3, [r5, #3]
100060f4:	42bb      	cmp	r3, r7
100060f6:	d016      	beq.n	10006126 <cdcd_xfer_cb+0x4e>
100060f8:	78ab      	ldrb	r3, [r5, #2]
100060fa:	42bb      	cmp	r3, r7
100060fc:	d04d      	beq.n	1000619a <cdcd_xfer_cb+0xc2>
100060fe:	2401      	movs	r4, #1
10006100:	0020      	movs	r0, r4
10006102:	b002      	add	sp, #8
10006104:	bc80      	pop	{r7}
10006106:	46ba      	mov	sl, r7
10006108:	bdf0      	pop	{r4, r5, r6, r7, pc}
1000610a:	25b2      	movs	r5, #178	; 0xb2
1000610c:	00ad      	lsls	r5, r5, #2
1000610e:	4365      	muls	r5, r4
10006110:	4b39      	ldr	r3, [pc, #228]	; (100061f8 <cdcd_xfer_cb+0x120>)
10006112:	18ed      	adds	r5, r5, r3
10006114:	78eb      	ldrb	r3, [r5, #3]
10006116:	42bb      	cmp	r3, r7
10006118:	d0e8      	beq.n	100060ec <cdcd_xfer_cb+0x14>
1000611a:	78ab      	ldrb	r3, [r5, #2]
1000611c:	42bb      	cmp	r3, r7
1000611e:	d0e5      	beq.n	100060ec <cdcd_xfer_cb+0x14>
10006120:	3401      	adds	r4, #1
10006122:	b2e4      	uxtb	r4, r4
10006124:	e7e0      	b.n	100060e8 <cdcd_xfer_cb+0x10>
10006126:	2310      	movs	r3, #16
10006128:	469a      	mov	sl, r3
1000612a:	44aa      	add	sl, r5
1000612c:	2392      	movs	r3, #146	; 0x92
1000612e:	009b      	lsls	r3, r3, #2
10006130:	18e9      	adds	r1, r5, r3
10006132:	466b      	mov	r3, sp
10006134:	881a      	ldrh	r2, [r3, #0]
10006136:	4650      	mov	r0, sl
10006138:	f000 fc44 	bl	100069c4 <tu_fifo_write_n>
1000613c:	4b2f      	ldr	r3, [pc, #188]	; (100061fc <cdcd_xfer_cb+0x124>)
1000613e:	2b00      	cmp	r3, #0
10006140:	d01b      	beq.n	1000617a <cdcd_xfer_cb+0xa2>
10006142:	796b      	ldrb	r3, [r5, #5]
10006144:	2bff      	cmp	r3, #255	; 0xff
10006146:	d018      	beq.n	1000617a <cdcd_xfer_cb+0xa2>
10006148:	2600      	movs	r6, #0
1000614a:	e000      	b.n	1000614e <cdcd_xfer_cb+0x76>
1000614c:	3601      	adds	r6, #1
1000614e:	9b00      	ldr	r3, [sp, #0]
10006150:	429e      	cmp	r6, r3
10006152:	d212      	bcs.n	1000617a <cdcd_xfer_cb+0xa2>
10006154:	796a      	ldrb	r2, [r5, #5]
10006156:	19ab      	adds	r3, r5, r6
10006158:	2192      	movs	r1, #146	; 0x92
1000615a:	0089      	lsls	r1, r1, #2
1000615c:	468c      	mov	ip, r1
1000615e:	4463      	add	r3, ip
10006160:	781b      	ldrb	r3, [r3, #0]
10006162:	429a      	cmp	r2, r3
10006164:	d1f2      	bne.n	1000614c <cdcd_xfer_cb+0x74>
10006166:	4650      	mov	r0, sl
10006168:	f000 fba2 	bl	100068b0 <tu_fifo_empty>
1000616c:	2800      	cmp	r0, #0
1000616e:	d1ed      	bne.n	1000614c <cdcd_xfer_cb+0x74>
10006170:	7969      	ldrb	r1, [r5, #5]
10006172:	0020      	movs	r0, r4
10006174:	e000      	b.n	10006178 <cdcd_xfer_cb+0xa0>
10006176:	bf00      	nop
10006178:	e7e8      	b.n	1000614c <cdcd_xfer_cb+0x74>
1000617a:	4b21      	ldr	r3, [pc, #132]	; (10006200 <cdcd_xfer_cb+0x128>)
1000617c:	2b00      	cmp	r3, #0
1000617e:	d004      	beq.n	1000618a <cdcd_xfer_cb+0xb2>
10006180:	4650      	mov	r0, sl
10006182:	f000 fb95 	bl	100068b0 <tu_fifo_empty>
10006186:	2800      	cmp	r0, #0
10006188:	d003      	beq.n	10006192 <cdcd_xfer_cb+0xba>
1000618a:	0028      	movs	r0, r5
1000618c:	f7ff fd36 	bl	10005bfc <_prep_out_transaction>
10006190:	e7b2      	b.n	100060f8 <cdcd_xfer_cb+0x20>
10006192:	0020      	movs	r0, r4
10006194:	f7fe fa86 	bl	100046a4 <tud_cdc_rx_cb>
10006198:	e7f7      	b.n	1000618a <cdcd_xfer_cb+0xb2>
1000619a:	4b1a      	ldr	r3, [pc, #104]	; (10006204 <cdcd_xfer_cb+0x12c>)
1000619c:	2b00      	cmp	r3, #0
1000619e:	d002      	beq.n	100061a6 <cdcd_xfer_cb+0xce>
100061a0:	0020      	movs	r0, r4
100061a2:	e000      	b.n	100061a6 <cdcd_xfer_cb+0xce>
100061a4:	bf00      	nop
100061a6:	0020      	movs	r0, r4
100061a8:	f7ff fd90 	bl	10005ccc <tud_cdc_n_write_flush>
100061ac:	2800      	cmp	r0, #0
100061ae:	d001      	beq.n	100061b4 <cdcd_xfer_cb+0xdc>
100061b0:	2401      	movs	r4, #1
100061b2:	e7a5      	b.n	10006100 <cdcd_xfer_cb+0x28>
100061b4:	0028      	movs	r0, r5
100061b6:	3024      	adds	r0, #36	; 0x24
100061b8:	f000 fb65 	bl	10006886 <tu_fifo_count>
100061bc:	2800      	cmp	r0, #0
100061be:	d117      	bne.n	100061f0 <cdcd_xfer_cb+0x118>
100061c0:	9b00      	ldr	r3, [sp, #0]
100061c2:	2b00      	cmp	r3, #0
100061c4:	d016      	beq.n	100061f4 <cdcd_xfer_cb+0x11c>
100061c6:	069b      	lsls	r3, r3, #26
100061c8:	d001      	beq.n	100061ce <cdcd_xfer_cb+0xf6>
100061ca:	2401      	movs	r4, #1
100061cc:	e798      	b.n	10006100 <cdcd_xfer_cb+0x28>
100061ce:	78a9      	ldrb	r1, [r5, #2]
100061d0:	9801      	ldr	r0, [sp, #4]
100061d2:	f7ff f8b9 	bl	10005348 <usbd_edpt_claim>
100061d6:	1e04      	subs	r4, r0, #0
100061d8:	d101      	bne.n	100061de <cdcd_xfer_cb+0x106>
100061da:	2401      	movs	r4, #1
100061dc:	e790      	b.n	10006100 <cdcd_xfer_cb+0x28>
100061de:	78a9      	ldrb	r1, [r5, #2]
100061e0:	2300      	movs	r3, #0
100061e2:	2200      	movs	r2, #0
100061e4:	9801      	ldr	r0, [sp, #4]
100061e6:	f7ff f8d7 	bl	10005398 <usbd_edpt_xfer>
100061ea:	e789      	b.n	10006100 <cdcd_xfer_cb+0x28>
100061ec:	2400      	movs	r4, #0
100061ee:	e787      	b.n	10006100 <cdcd_xfer_cb+0x28>
100061f0:	2401      	movs	r4, #1
100061f2:	e785      	b.n	10006100 <cdcd_xfer_cb+0x28>
100061f4:	2401      	movs	r4, #1
100061f6:	e783      	b.n	10006100 <cdcd_xfer_cb+0x28>
100061f8:	20000dd8 	.word	0x20000dd8
100061fc:	00000000 	.word	0x00000000
10006200:	100046a5 	.word	0x100046a5
10006204:	00000000 	.word	0x00000000

10006208 <tusb_init>:
10006208:	b510      	push	{r4, lr}
1000620a:	2000      	movs	r0, #0
1000620c:	f7fe ffd4 	bl	100051b8 <tud_init>
10006210:	bd10      	pop	{r4, pc}

10006212 <tusb_inited>:
10006212:	b510      	push	{r4, lr}
10006214:	f7fe ffc6 	bl	100051a4 <tud_inited>
10006218:	2800      	cmp	r0, #0
1000621a:	d000      	beq.n	1000621e <tusb_inited+0xc>
1000621c:	2001      	movs	r0, #1
1000621e:	bd10      	pop	{r4, pc}

10006220 <tu_edpt_claim>:
10006220:	b570      	push	{r4, r5, r6, lr}
10006222:	0004      	movs	r4, r0
10006224:	000d      	movs	r5, r1
10006226:	7803      	ldrb	r3, [r0, #0]
10006228:	07db      	lsls	r3, r3, #31
1000622a:	0fde      	lsrs	r6, r3, #31
1000622c:	2b00      	cmp	r3, #0
1000622e:	d11c      	bne.n	1000626a <tu_edpt_claim+0x4a>
10006230:	7803      	ldrb	r3, [r0, #0]
10006232:	075b      	lsls	r3, r3, #29
10006234:	d41a      	bmi.n	1000626c <tu_edpt_claim+0x4c>
10006236:	2101      	movs	r1, #1
10006238:	4249      	negs	r1, r1
1000623a:	0028      	movs	r0, r5
1000623c:	f000 fc84 	bl	10006b48 <__mutex_enter_timeout_ms_veneer>
10006240:	7823      	ldrb	r3, [r4, #0]
10006242:	07db      	lsls	r3, r3, #31
10006244:	d404      	bmi.n	10006250 <tu_edpt_claim+0x30>
10006246:	7823      	ldrb	r3, [r4, #0]
10006248:	075b      	lsls	r3, r3, #29
1000624a:	d50c      	bpl.n	10006266 <tu_edpt_claim+0x46>
1000624c:	2600      	movs	r6, #0
1000624e:	e000      	b.n	10006252 <tu_edpt_claim+0x32>
10006250:	2600      	movs	r6, #0
10006252:	2e00      	cmp	r6, #0
10006254:	d003      	beq.n	1000625e <tu_edpt_claim+0x3e>
10006256:	7823      	ldrb	r3, [r4, #0]
10006258:	2204      	movs	r2, #4
1000625a:	4313      	orrs	r3, r2
1000625c:	7023      	strb	r3, [r4, #0]
1000625e:	0028      	movs	r0, r5
10006260:	f000 fc4a 	bl	10006af8 <__mutex_exit_veneer>
10006264:	e002      	b.n	1000626c <tu_edpt_claim+0x4c>
10006266:	2601      	movs	r6, #1
10006268:	e7f3      	b.n	10006252 <tu_edpt_claim+0x32>
1000626a:	2600      	movs	r6, #0
1000626c:	0030      	movs	r0, r6
1000626e:	bd70      	pop	{r4, r5, r6, pc}

10006270 <tu_edpt_release>:
10006270:	b570      	push	{r4, r5, r6, lr}
10006272:	0004      	movs	r4, r0
10006274:	000e      	movs	r6, r1
10006276:	2101      	movs	r1, #1
10006278:	4249      	negs	r1, r1
1000627a:	0030      	movs	r0, r6
1000627c:	f000 fc64 	bl	10006b48 <__mutex_enter_timeout_ms_veneer>
10006280:	7823      	ldrb	r3, [r4, #0]
10006282:	075b      	lsls	r3, r3, #29
10006284:	d40b      	bmi.n	1000629e <tu_edpt_release+0x2e>
10006286:	2500      	movs	r5, #0
10006288:	2d00      	cmp	r5, #0
1000628a:	d003      	beq.n	10006294 <tu_edpt_release+0x24>
1000628c:	7823      	ldrb	r3, [r4, #0]
1000628e:	2204      	movs	r2, #4
10006290:	4393      	bics	r3, r2
10006292:	7023      	strb	r3, [r4, #0]
10006294:	0030      	movs	r0, r6
10006296:	f000 fc2f 	bl	10006af8 <__mutex_exit_veneer>
1000629a:	0028      	movs	r0, r5
1000629c:	bd70      	pop	{r4, r5, r6, pc}
1000629e:	7823      	ldrb	r3, [r4, #0]
100062a0:	07db      	lsls	r3, r3, #31
100062a2:	d501      	bpl.n	100062a8 <tu_edpt_release+0x38>
100062a4:	2500      	movs	r5, #0
100062a6:	e7ef      	b.n	10006288 <tu_edpt_release+0x18>
100062a8:	2501      	movs	r5, #1
100062aa:	e7ed      	b.n	10006288 <tu_edpt_release+0x18>

100062ac <tu_edpt_validate>:
100062ac:	b510      	push	{r4, lr}
100062ae:	7904      	ldrb	r4, [r0, #4]
100062b0:	7943      	ldrb	r3, [r0, #5]
100062b2:	021b      	lsls	r3, r3, #8
100062b4:	4323      	orrs	r3, r4
100062b6:	055b      	lsls	r3, r3, #21
100062b8:	0d5b      	lsrs	r3, r3, #21
100062ba:	78c2      	ldrb	r2, [r0, #3]
100062bc:	0792      	lsls	r2, r2, #30
100062be:	0f92      	lsrs	r2, r2, #30
100062c0:	2a02      	cmp	r2, #2
100062c2:	d00f      	beq.n	100062e4 <tu_edpt_validate+0x38>
100062c4:	2a03      	cmp	r2, #3
100062c6:	d019      	beq.n	100062fc <tu_edpt_validate+0x50>
100062c8:	2a01      	cmp	r2, #1
100062ca:	d001      	beq.n	100062d0 <tu_edpt_validate+0x24>
100062cc:	2000      	movs	r0, #0
100062ce:	bd10      	pop	{r4, pc}
100062d0:	2902      	cmp	r1, #2
100062d2:	d004      	beq.n	100062de <tu_edpt_validate+0x32>
100062d4:	4a12      	ldr	r2, [pc, #72]	; (10006320 <tu_edpt_validate+0x74>)
100062d6:	429a      	cmp	r2, r3
100062d8:	d31a      	bcc.n	10006310 <tu_edpt_validate+0x64>
100062da:	2001      	movs	r0, #1
100062dc:	e7f7      	b.n	100062ce <tu_edpt_validate+0x22>
100062de:	2280      	movs	r2, #128	; 0x80
100062e0:	00d2      	lsls	r2, r2, #3
100062e2:	e7f8      	b.n	100062d6 <tu_edpt_validate+0x2a>
100062e4:	2902      	cmp	r1, #2
100062e6:	d003      	beq.n	100062f0 <tu_edpt_validate+0x44>
100062e8:	2b40      	cmp	r3, #64	; 0x40
100062ea:	d815      	bhi.n	10006318 <tu_edpt_validate+0x6c>
100062ec:	2001      	movs	r0, #1
100062ee:	e7ee      	b.n	100062ce <tu_edpt_validate+0x22>
100062f0:	2280      	movs	r2, #128	; 0x80
100062f2:	0092      	lsls	r2, r2, #2
100062f4:	4293      	cmp	r3, r2
100062f6:	d10d      	bne.n	10006314 <tu_edpt_validate+0x68>
100062f8:	2001      	movs	r0, #1
100062fa:	e7e8      	b.n	100062ce <tu_edpt_validate+0x22>
100062fc:	2902      	cmp	r1, #2
100062fe:	d004      	beq.n	1000630a <tu_edpt_validate+0x5e>
10006300:	2240      	movs	r2, #64	; 0x40
10006302:	429a      	cmp	r2, r3
10006304:	d30a      	bcc.n	1000631c <tu_edpt_validate+0x70>
10006306:	2001      	movs	r0, #1
10006308:	e7e1      	b.n	100062ce <tu_edpt_validate+0x22>
1000630a:	2280      	movs	r2, #128	; 0x80
1000630c:	00d2      	lsls	r2, r2, #3
1000630e:	e7f8      	b.n	10006302 <tu_edpt_validate+0x56>
10006310:	2000      	movs	r0, #0
10006312:	e7dc      	b.n	100062ce <tu_edpt_validate+0x22>
10006314:	2000      	movs	r0, #0
10006316:	e7da      	b.n	100062ce <tu_edpt_validate+0x22>
10006318:	2000      	movs	r0, #0
1000631a:	e7d8      	b.n	100062ce <tu_edpt_validate+0x22>
1000631c:	2000      	movs	r0, #0
1000631e:	e7d6      	b.n	100062ce <tu_edpt_validate+0x22>
10006320:	000003ff 	.word	0x000003ff

10006324 <tu_edpt_bind_driver>:
10006324:	b530      	push	{r4, r5, lr}
10006326:	188a      	adds	r2, r1, r2
10006328:	e001      	b.n	1000632e <tu_edpt_bind_driver+0xa>
1000632a:	780c      	ldrb	r4, [r1, #0]
1000632c:	1909      	adds	r1, r1, r4
1000632e:	4291      	cmp	r1, r2
10006330:	d20a      	bcs.n	10006348 <tu_edpt_bind_driver+0x24>
10006332:	784c      	ldrb	r4, [r1, #1]
10006334:	2c05      	cmp	r4, #5
10006336:	d1f8      	bne.n	1000632a <tu_edpt_bind_driver+0x6>
10006338:	788d      	ldrb	r5, [r1, #2]
1000633a:	347a      	adds	r4, #122	; 0x7a
1000633c:	402c      	ands	r4, r5
1000633e:	0064      	lsls	r4, r4, #1
10006340:	1904      	adds	r4, r0, r4
10006342:	09ed      	lsrs	r5, r5, #7
10006344:	5563      	strb	r3, [r4, r5]
10006346:	e7f0      	b.n	1000632a <tu_edpt_bind_driver+0x6>
10006348:	bd30      	pop	{r4, r5, pc}

1000634a <advance_index>:
1000634a:	0003      	movs	r3, r0
1000634c:	188a      	adds	r2, r1, r2
1000634e:	b290      	uxth	r0, r2
10006350:	4281      	cmp	r1, r0
10006352:	d802      	bhi.n	1000635a <advance_index+0x10>
10006354:	005a      	lsls	r2, r3, #1
10006356:	4290      	cmp	r0, r2
10006358:	db03      	blt.n	10006362 <advance_index+0x18>
1000635a:	005b      	lsls	r3, r3, #1
1000635c:	b29b      	uxth	r3, r3
1000635e:	1ac0      	subs	r0, r0, r3
10006360:	b280      	uxth	r0, r0
10006362:	4770      	bx	lr

10006364 <_tu_fifo_peek>:
10006364:	b570      	push	{r4, r5, r6, lr}
10006366:	0005      	movs	r5, r0
10006368:	0008      	movs	r0, r1
1000636a:	88ac      	ldrh	r4, [r5, #4]
1000636c:	429a      	cmp	r2, r3
1000636e:	d30b      	bcc.n	10006388 <_tu_fifo_peek+0x24>
10006370:	1ad1      	subs	r1, r2, r3
10006372:	b289      	uxth	r1, r1
10006374:	2900      	cmp	r1, #0
10006376:	d01e      	beq.n	100063b6 <_tu_fifo_peek+0x52>
10006378:	428c      	cmp	r4, r1
1000637a:	d210      	bcs.n	1000639e <_tu_fifo_peek+0x3a>
1000637c:	4294      	cmp	r4, r2
1000637e:	d809      	bhi.n	10006394 <_tu_fifo_peek+0x30>
10006380:	1b13      	subs	r3, r2, r4
10006382:	b29b      	uxth	r3, r3
10006384:	816b      	strh	r3, [r5, #10]
10006386:	e00a      	b.n	1000639e <_tu_fifo_peek+0x3a>
10006388:	1ad1      	subs	r1, r2, r3
1000638a:	b289      	uxth	r1, r1
1000638c:	0066      	lsls	r6, r4, #1
1000638e:	1989      	adds	r1, r1, r6
10006390:	b289      	uxth	r1, r1
10006392:	e7ef      	b.n	10006374 <_tu_fifo_peek+0x10>
10006394:	18a2      	adds	r2, r4, r2
10006396:	b293      	uxth	r3, r2
10006398:	e7f4      	b.n	10006384 <_tu_fifo_peek+0x20>
1000639a:	1b1b      	subs	r3, r3, r4
1000639c:	b29b      	uxth	r3, r3
1000639e:	429c      	cmp	r4, r3
100063a0:	d9fb      	bls.n	1000639a <_tu_fifo_peek+0x36>
100063a2:	6829      	ldr	r1, [r5, #0]
100063a4:	88ea      	ldrh	r2, [r5, #6]
100063a6:	0452      	lsls	r2, r2, #17
100063a8:	0c52      	lsrs	r2, r2, #17
100063aa:	4353      	muls	r3, r2
100063ac:	18c9      	adds	r1, r1, r3
100063ae:	f7fd feeb 	bl	10004188 <__wrap___aeabi_memcpy>
100063b2:	2001      	movs	r0, #1
100063b4:	bd70      	pop	{r4, r5, r6, pc}
100063b6:	2000      	movs	r0, #0
100063b8:	e7fc      	b.n	100063b4 <_tu_fifo_peek+0x50>

100063ba <_ff_pull_const_addr>:
100063ba:	b5f0      	push	{r4, r5, r6, r7, lr}
100063bc:	b083      	sub	sp, #12
100063be:	0006      	movs	r6, r0
100063c0:	0893      	lsrs	r3, r2, #2
100063c2:	e00c      	b.n	100063de <_ff_pull_const_addr+0x24>
100063c4:	780b      	ldrb	r3, [r1, #0]
100063c6:	784d      	ldrb	r5, [r1, #1]
100063c8:	022d      	lsls	r5, r5, #8
100063ca:	431d      	orrs	r5, r3
100063cc:	788c      	ldrb	r4, [r1, #2]
100063ce:	0424      	lsls	r4, r4, #16
100063d0:	4325      	orrs	r5, r4
100063d2:	78cb      	ldrb	r3, [r1, #3]
100063d4:	061b      	lsls	r3, r3, #24
100063d6:	432b      	orrs	r3, r5
100063d8:	6033      	str	r3, [r6, #0]
100063da:	3104      	adds	r1, #4
100063dc:	003b      	movs	r3, r7
100063de:	1e5f      	subs	r7, r3, #1
100063e0:	b2bf      	uxth	r7, r7
100063e2:	2b00      	cmp	r3, #0
100063e4:	d1ee      	bne.n	100063c4 <_ff_pull_const_addr+0xa>
100063e6:	3303      	adds	r3, #3
100063e8:	0010      	movs	r0, r2
100063ea:	4018      	ands	r0, r3
100063ec:	421a      	tst	r2, r3
100063ee:	d101      	bne.n	100063f4 <_ff_pull_const_addr+0x3a>
100063f0:	b003      	add	sp, #12
100063f2:	bdf0      	pop	{r4, r5, r6, r7, pc}
100063f4:	2300      	movs	r3, #0
100063f6:	9301      	str	r3, [sp, #4]
100063f8:	0002      	movs	r2, r0
100063fa:	a801      	add	r0, sp, #4
100063fc:	f7fd fec4 	bl	10004188 <__wrap___aeabi_memcpy>
10006400:	9b01      	ldr	r3, [sp, #4]
10006402:	6033      	str	r3, [r6, #0]
10006404:	e7f4      	b.n	100063f0 <_ff_pull_const_addr+0x36>

10006406 <_ff_pull_n>:
10006406:	b5f0      	push	{r4, r5, r6, r7, lr}
10006408:	46de      	mov	lr, fp
1000640a:	4657      	mov	r7, sl
1000640c:	464e      	mov	r6, r9
1000640e:	4645      	mov	r5, r8
10006410:	b5e0      	push	{r5, r6, r7, lr}
10006412:	b083      	sub	sp, #12
10006414:	0005      	movs	r5, r0
10006416:	468a      	mov	sl, r1
10006418:	a90c      	add	r1, sp, #48	; 0x30
1000641a:	7809      	ldrb	r1, [r1, #0]
1000641c:	8884      	ldrh	r4, [r0, #4]
1000641e:	1ae0      	subs	r0, r4, r3
10006420:	b280      	uxth	r0, r0
10006422:	1b1c      	subs	r4, r3, r4
10006424:	1914      	adds	r4, r2, r4
10006426:	b2a4      	uxth	r4, r4
10006428:	88ef      	ldrh	r7, [r5, #6]
1000642a:	047f      	lsls	r7, r7, #17
1000642c:	0c7e      	lsrs	r6, r7, #17
1000642e:	0007      	movs	r7, r0
10006430:	4377      	muls	r7, r6
10006432:	b2bf      	uxth	r7, r7
10006434:	4374      	muls	r4, r6
10006436:	b2a4      	uxth	r4, r4
10006438:	46a3      	mov	fp, r4
1000643a:	4373      	muls	r3, r6
1000643c:	682c      	ldr	r4, [r5, #0]
1000643e:	46a0      	mov	r8, r4
10006440:	4498      	add	r8, r3
10006442:	2900      	cmp	r1, #0
10006444:	d008      	beq.n	10006458 <_ff_pull_n+0x52>
10006446:	2901      	cmp	r1, #1
10006448:	d01a      	beq.n	10006480 <_ff_pull_n+0x7a>
1000644a:	b003      	add	sp, #12
1000644c:	bcf0      	pop	{r4, r5, r6, r7}
1000644e:	46bb      	mov	fp, r7
10006450:	46b2      	mov	sl, r6
10006452:	46a9      	mov	r9, r5
10006454:	46a0      	mov	r8, r4
10006456:	bdf0      	pop	{r4, r5, r6, r7, pc}
10006458:	4290      	cmp	r0, r2
1000645a:	d305      	bcc.n	10006468 <_ff_pull_n+0x62>
1000645c:	4372      	muls	r2, r6
1000645e:	4641      	mov	r1, r8
10006460:	4650      	mov	r0, sl
10006462:	f7fd fe91 	bl	10004188 <__wrap___aeabi_memcpy>
10006466:	e7f0      	b.n	1000644a <_ff_pull_n+0x44>
10006468:	003a      	movs	r2, r7
1000646a:	4641      	mov	r1, r8
1000646c:	4650      	mov	r0, sl
1000646e:	f7fd fe8b 	bl	10004188 <__wrap___aeabi_memcpy>
10006472:	6829      	ldr	r1, [r5, #0]
10006474:	0038      	movs	r0, r7
10006476:	4450      	add	r0, sl
10006478:	465a      	mov	r2, fp
1000647a:	f7fd fe85 	bl	10004188 <__wrap___aeabi_memcpy>
1000647e:	e7e4      	b.n	1000644a <_ff_pull_n+0x44>
10006480:	4290      	cmp	r0, r2
10006482:	d306      	bcc.n	10006492 <_ff_pull_n+0x8c>
10006484:	4372      	muls	r2, r6
10006486:	b292      	uxth	r2, r2
10006488:	4641      	mov	r1, r8
1000648a:	4650      	mov	r0, sl
1000648c:	f7ff ff95 	bl	100063ba <_ff_pull_const_addr>
10006490:	e7db      	b.n	1000644a <_ff_pull_n+0x44>
10006492:	2303      	movs	r3, #3
10006494:	003a      	movs	r2, r7
10006496:	439a      	bics	r2, r3
10006498:	4691      	mov	r9, r2
1000649a:	4641      	mov	r1, r8
1000649c:	4650      	mov	r0, sl
1000649e:	f7ff ff8c 	bl	100063ba <_ff_pull_const_addr>
100064a2:	4643      	mov	r3, r8
100064a4:	444b      	add	r3, r9
100064a6:	2103      	movs	r1, #3
100064a8:	003a      	movs	r2, r7
100064aa:	400a      	ands	r2, r1
100064ac:	420f      	tst	r7, r1
100064ae:	d030      	beq.n	10006512 <_ff_pull_n+0x10c>
100064b0:	2104      	movs	r1, #4
100064b2:	1a89      	subs	r1, r1, r2
100064b4:	b289      	uxth	r1, r1
100064b6:	1c08      	adds	r0, r1, #0
100064b8:	4559      	cmp	r1, fp
100064ba:	d900      	bls.n	100064be <_ff_pull_n+0xb8>
100064bc:	4658      	mov	r0, fp
100064be:	b2c7      	uxtb	r7, r0
100064c0:	21ff      	movs	r1, #255	; 0xff
100064c2:	4001      	ands	r1, r0
100064c4:	4658      	mov	r0, fp
100064c6:	1a44      	subs	r4, r0, r1
100064c8:	b2a1      	uxth	r1, r4
100064ca:	468b      	mov	fp, r1
100064cc:	2100      	movs	r1, #0
100064ce:	9101      	str	r1, [sp, #4]
100064d0:	a801      	add	r0, sp, #4
100064d2:	e004      	b.n	100064de <_ff_pull_n+0xd8>
100064d4:	781a      	ldrb	r2, [r3, #0]
100064d6:	7002      	strb	r2, [r0, #0]
100064d8:	3001      	adds	r0, #1
100064da:	000a      	movs	r2, r1
100064dc:	3301      	adds	r3, #1
100064de:	1e51      	subs	r1, r2, #1
100064e0:	b2c9      	uxtb	r1, r1
100064e2:	2a00      	cmp	r2, #0
100064e4:	d1f6      	bne.n	100064d4 <_ff_pull_n+0xce>
100064e6:	6829      	ldr	r1, [r5, #0]
100064e8:	e004      	b.n	100064f4 <_ff_pull_n+0xee>
100064ea:	780a      	ldrb	r2, [r1, #0]
100064ec:	7002      	strb	r2, [r0, #0]
100064ee:	3001      	adds	r0, #1
100064f0:	001f      	movs	r7, r3
100064f2:	3101      	adds	r1, #1
100064f4:	1e7b      	subs	r3, r7, #1
100064f6:	b2db      	uxtb	r3, r3
100064f8:	2f00      	cmp	r7, #0
100064fa:	d1f6      	bne.n	100064ea <_ff_pull_n+0xe4>
100064fc:	4653      	mov	r3, sl
100064fe:	9a01      	ldr	r2, [sp, #4]
10006500:	601a      	str	r2, [r3, #0]
10006502:	465b      	mov	r3, fp
10006504:	2b00      	cmp	r3, #0
10006506:	d0a0      	beq.n	1000644a <_ff_pull_n+0x44>
10006508:	465a      	mov	r2, fp
1000650a:	4650      	mov	r0, sl
1000650c:	f7ff ff55 	bl	100063ba <_ff_pull_const_addr>
10006510:	e79b      	b.n	1000644a <_ff_pull_n+0x44>
10006512:	6829      	ldr	r1, [r5, #0]
10006514:	e7f5      	b.n	10006502 <_ff_pull_n+0xfc>

10006516 <_tu_fifo_peek_n>:
10006516:	b5f0      	push	{r4, r5, r6, r7, lr}
10006518:	46c6      	mov	lr, r8
1000651a:	b500      	push	{lr}
1000651c:	b082      	sub	sp, #8
1000651e:	001e      	movs	r6, r3
10006520:	ab08      	add	r3, sp, #32
10006522:	881b      	ldrh	r3, [r3, #0]
10006524:	ac09      	add	r4, sp, #36	; 0x24
10006526:	7827      	ldrb	r7, [r4, #0]
10006528:	8884      	ldrh	r4, [r0, #4]
1000652a:	429e      	cmp	r6, r3
1000652c:	d30f      	bcc.n	1000654e <_tu_fifo_peek_n+0x38>
1000652e:	1af5      	subs	r5, r6, r3
10006530:	b2ad      	uxth	r5, r5
10006532:	2d00      	cmp	r5, #0
10006534:	d01f      	beq.n	10006576 <_tu_fifo_peek_n+0x60>
10006536:	42ac      	cmp	r4, r5
10006538:	d205      	bcs.n	10006546 <_tu_fifo_peek_n+0x30>
1000653a:	42b4      	cmp	r4, r6
1000653c:	d810      	bhi.n	10006560 <_tu_fifo_peek_n+0x4a>
1000653e:	1b33      	subs	r3, r6, r4
10006540:	b29b      	uxth	r3, r3
10006542:	8143      	strh	r3, [r0, #10]
10006544:	0025      	movs	r5, r4
10006546:	4295      	cmp	r5, r2
10006548:	d30f      	bcc.n	1000656a <_tu_fifo_peek_n+0x54>
1000654a:	0015      	movs	r5, r2
1000654c:	e00d      	b.n	1000656a <_tu_fifo_peek_n+0x54>
1000654e:	1af5      	subs	r5, r6, r3
10006550:	b2ad      	uxth	r5, r5
10006552:	46a8      	mov	r8, r5
10006554:	0065      	lsls	r5, r4, #1
10006556:	46ac      	mov	ip, r5
10006558:	4645      	mov	r5, r8
1000655a:	4465      	add	r5, ip
1000655c:	b2ad      	uxth	r5, r5
1000655e:	e7e8      	b.n	10006532 <_tu_fifo_peek_n+0x1c>
10006560:	19a6      	adds	r6, r4, r6
10006562:	b2b3      	uxth	r3, r6
10006564:	e7ed      	b.n	10006542 <_tu_fifo_peek_n+0x2c>
10006566:	1b1b      	subs	r3, r3, r4
10006568:	b29b      	uxth	r3, r3
1000656a:	429c      	cmp	r4, r3
1000656c:	d9fb      	bls.n	10006566 <_tu_fifo_peek_n+0x50>
1000656e:	9700      	str	r7, [sp, #0]
10006570:	002a      	movs	r2, r5
10006572:	f7ff ff48 	bl	10006406 <_ff_pull_n>
10006576:	0028      	movs	r0, r5
10006578:	b002      	add	sp, #8
1000657a:	bc80      	pop	{r7}
1000657c:	46b8      	mov	r8, r7
1000657e:	bdf0      	pop	{r4, r5, r6, r7, pc}

10006580 <_tu_fifo_read_n>:
10006580:	b5f0      	push	{r4, r5, r6, r7, lr}
10006582:	b083      	sub	sp, #12
10006584:	0004      	movs	r4, r0
10006586:	000d      	movs	r5, r1
10006588:	0016      	movs	r6, r2
1000658a:	001f      	movs	r7, r3
1000658c:	6900      	ldr	r0, [r0, #16]
1000658e:	2800      	cmp	r0, #0
10006590:	d003      	beq.n	1000659a <_tu_fifo_read_n+0x1a>
10006592:	2101      	movs	r1, #1
10006594:	4249      	negs	r1, r1
10006596:	f000 fad7 	bl	10006b48 <__mutex_enter_timeout_ms_veneer>
1000659a:	8923      	ldrh	r3, [r4, #8]
1000659c:	b29b      	uxth	r3, r3
1000659e:	8962      	ldrh	r2, [r4, #10]
100065a0:	9701      	str	r7, [sp, #4]
100065a2:	9200      	str	r2, [sp, #0]
100065a4:	0032      	movs	r2, r6
100065a6:	0029      	movs	r1, r5
100065a8:	0020      	movs	r0, r4
100065aa:	f7ff ffb4 	bl	10006516 <_tu_fifo_peek_n>
100065ae:	0005      	movs	r5, r0
100065b0:	8961      	ldrh	r1, [r4, #10]
100065b2:	b289      	uxth	r1, r1
100065b4:	88a0      	ldrh	r0, [r4, #4]
100065b6:	002a      	movs	r2, r5
100065b8:	f7ff fec7 	bl	1000634a <advance_index>
100065bc:	8160      	strh	r0, [r4, #10]
100065be:	6920      	ldr	r0, [r4, #16]
100065c0:	2800      	cmp	r0, #0
100065c2:	d001      	beq.n	100065c8 <_tu_fifo_read_n+0x48>
100065c4:	f000 fa98 	bl	10006af8 <__mutex_exit_veneer>
100065c8:	0028      	movs	r0, r5
100065ca:	b003      	add	sp, #12
100065cc:	bdf0      	pop	{r4, r5, r6, r7, pc}

100065ce <_ff_push_const_addr>:
100065ce:	b570      	push	{r4, r5, r6, lr}
100065d0:	b082      	sub	sp, #8
100065d2:	0016      	movs	r6, r2
100065d4:	0895      	lsrs	r5, r2, #2
100065d6:	e009      	b.n	100065ec <_ff_push_const_addr+0x1e>
100065d8:	680b      	ldr	r3, [r1, #0]
100065da:	7003      	strb	r3, [r0, #0]
100065dc:	0a1d      	lsrs	r5, r3, #8
100065de:	7045      	strb	r5, [r0, #1]
100065e0:	0c1d      	lsrs	r5, r3, #16
100065e2:	7085      	strb	r5, [r0, #2]
100065e4:	0e1b      	lsrs	r3, r3, #24
100065e6:	70c3      	strb	r3, [r0, #3]
100065e8:	3004      	adds	r0, #4
100065ea:	0025      	movs	r5, r4
100065ec:	1e6c      	subs	r4, r5, #1
100065ee:	b2a4      	uxth	r4, r4
100065f0:	2d00      	cmp	r5, #0
100065f2:	d1f1      	bne.n	100065d8 <_ff_push_const_addr+0xa>
100065f4:	2303      	movs	r3, #3
100065f6:	0032      	movs	r2, r6
100065f8:	401a      	ands	r2, r3
100065fa:	421e      	tst	r6, r3
100065fc:	d101      	bne.n	10006602 <_ff_push_const_addr+0x34>
100065fe:	b002      	add	sp, #8
10006600:	bd70      	pop	{r4, r5, r6, pc}
10006602:	680b      	ldr	r3, [r1, #0]
10006604:	9301      	str	r3, [sp, #4]
10006606:	a901      	add	r1, sp, #4
10006608:	f7fd fdbe 	bl	10004188 <__wrap___aeabi_memcpy>
1000660c:	e7f7      	b.n	100065fe <_ff_push_const_addr+0x30>

1000660e <_ff_push_n>:
1000660e:	b5f0      	push	{r4, r5, r6, r7, lr}
10006610:	46de      	mov	lr, fp
10006612:	4657      	mov	r7, sl
10006614:	464e      	mov	r6, r9
10006616:	4645      	mov	r5, r8
10006618:	b5e0      	push	{r5, r6, r7, lr}
1000661a:	b083      	sub	sp, #12
1000661c:	0005      	movs	r5, r0
1000661e:	468a      	mov	sl, r1
10006620:	a90c      	add	r1, sp, #48	; 0x30
10006622:	7808      	ldrb	r0, [r1, #0]
10006624:	88ac      	ldrh	r4, [r5, #4]
10006626:	1ae1      	subs	r1, r4, r3
10006628:	b289      	uxth	r1, r1
1000662a:	1b1c      	subs	r4, r3, r4
1000662c:	1914      	adds	r4, r2, r4
1000662e:	b2a4      	uxth	r4, r4
10006630:	88ef      	ldrh	r7, [r5, #6]
10006632:	047f      	lsls	r7, r7, #17
10006634:	0c7e      	lsrs	r6, r7, #17
10006636:	000f      	movs	r7, r1
10006638:	4377      	muls	r7, r6
1000663a:	b2bf      	uxth	r7, r7
1000663c:	4374      	muls	r4, r6
1000663e:	b2a4      	uxth	r4, r4
10006640:	46a3      	mov	fp, r4
10006642:	4373      	muls	r3, r6
10006644:	682c      	ldr	r4, [r5, #0]
10006646:	46a0      	mov	r8, r4
10006648:	4498      	add	r8, r3
1000664a:	2800      	cmp	r0, #0
1000664c:	d008      	beq.n	10006660 <_ff_push_n+0x52>
1000664e:	2801      	cmp	r0, #1
10006650:	d01a      	beq.n	10006688 <_ff_push_n+0x7a>
10006652:	b003      	add	sp, #12
10006654:	bcf0      	pop	{r4, r5, r6, r7}
10006656:	46bb      	mov	fp, r7
10006658:	46b2      	mov	sl, r6
1000665a:	46a9      	mov	r9, r5
1000665c:	46a0      	mov	r8, r4
1000665e:	bdf0      	pop	{r4, r5, r6, r7, pc}
10006660:	4291      	cmp	r1, r2
10006662:	d305      	bcc.n	10006670 <_ff_push_n+0x62>
10006664:	4372      	muls	r2, r6
10006666:	4651      	mov	r1, sl
10006668:	4640      	mov	r0, r8
1000666a:	f7fd fd8d 	bl	10004188 <__wrap___aeabi_memcpy>
1000666e:	e7f0      	b.n	10006652 <_ff_push_n+0x44>
10006670:	003a      	movs	r2, r7
10006672:	4651      	mov	r1, sl
10006674:	4640      	mov	r0, r8
10006676:	f7fd fd87 	bl	10004188 <__wrap___aeabi_memcpy>
1000667a:	6828      	ldr	r0, [r5, #0]
1000667c:	0039      	movs	r1, r7
1000667e:	4451      	add	r1, sl
10006680:	465a      	mov	r2, fp
10006682:	f7fd fd81 	bl	10004188 <__wrap___aeabi_memcpy>
10006686:	e7e4      	b.n	10006652 <_ff_push_n+0x44>
10006688:	4291      	cmp	r1, r2
1000668a:	d306      	bcc.n	1000669a <_ff_push_n+0x8c>
1000668c:	4372      	muls	r2, r6
1000668e:	b292      	uxth	r2, r2
10006690:	4651      	mov	r1, sl
10006692:	4640      	mov	r0, r8
10006694:	f7ff ff9b 	bl	100065ce <_ff_push_const_addr>
10006698:	e7db      	b.n	10006652 <_ff_push_n+0x44>
1000669a:	2303      	movs	r3, #3
1000669c:	003a      	movs	r2, r7
1000669e:	439a      	bics	r2, r3
100066a0:	4691      	mov	r9, r2
100066a2:	4651      	mov	r1, sl
100066a4:	4640      	mov	r0, r8
100066a6:	f7ff ff92 	bl	100065ce <_ff_push_const_addr>
100066aa:	4643      	mov	r3, r8
100066ac:	444b      	add	r3, r9
100066ae:	2103      	movs	r1, #3
100066b0:	003a      	movs	r2, r7
100066b2:	400a      	ands	r2, r1
100066b4:	420f      	tst	r7, r1
100066b6:	d02e      	beq.n	10006716 <_ff_push_n+0x108>
100066b8:	2104      	movs	r1, #4
100066ba:	1a89      	subs	r1, r1, r2
100066bc:	b289      	uxth	r1, r1
100066be:	1c08      	adds	r0, r1, #0
100066c0:	4559      	cmp	r1, fp
100066c2:	d900      	bls.n	100066c6 <_ff_push_n+0xb8>
100066c4:	4658      	mov	r0, fp
100066c6:	b2c7      	uxtb	r7, r0
100066c8:	21ff      	movs	r1, #255	; 0xff
100066ca:	4001      	ands	r1, r0
100066cc:	4658      	mov	r0, fp
100066ce:	1a44      	subs	r4, r0, r1
100066d0:	b2a1      	uxth	r1, r4
100066d2:	468b      	mov	fp, r1
100066d4:	4651      	mov	r1, sl
100066d6:	6809      	ldr	r1, [r1, #0]
100066d8:	9101      	str	r1, [sp, #4]
100066da:	a901      	add	r1, sp, #4
100066dc:	e004      	b.n	100066e8 <_ff_push_n+0xda>
100066de:	780a      	ldrb	r2, [r1, #0]
100066e0:	701a      	strb	r2, [r3, #0]
100066e2:	3101      	adds	r1, #1
100066e4:	0002      	movs	r2, r0
100066e6:	3301      	adds	r3, #1
100066e8:	1e50      	subs	r0, r2, #1
100066ea:	b2c0      	uxtb	r0, r0
100066ec:	2a00      	cmp	r2, #0
100066ee:	d1f6      	bne.n	100066de <_ff_push_n+0xd0>
100066f0:	6828      	ldr	r0, [r5, #0]
100066f2:	e004      	b.n	100066fe <_ff_push_n+0xf0>
100066f4:	780a      	ldrb	r2, [r1, #0]
100066f6:	7002      	strb	r2, [r0, #0]
100066f8:	3101      	adds	r1, #1
100066fa:	001f      	movs	r7, r3
100066fc:	3001      	adds	r0, #1
100066fe:	1e7b      	subs	r3, r7, #1
10006700:	b2db      	uxtb	r3, r3
10006702:	2f00      	cmp	r7, #0
10006704:	d1f6      	bne.n	100066f4 <_ff_push_n+0xe6>
10006706:	465b      	mov	r3, fp
10006708:	2b00      	cmp	r3, #0
1000670a:	d0a2      	beq.n	10006652 <_ff_push_n+0x44>
1000670c:	465a      	mov	r2, fp
1000670e:	4651      	mov	r1, sl
10006710:	f7ff ff5d 	bl	100065ce <_ff_push_const_addr>
10006714:	e79d      	b.n	10006652 <_ff_push_n+0x44>
10006716:	6828      	ldr	r0, [r5, #0]
10006718:	e7f5      	b.n	10006706 <_ff_push_n+0xf8>

1000671a <_tu_fifo_write_n>:
1000671a:	b5f0      	push	{r4, r5, r6, r7, lr}
1000671c:	b085      	sub	sp, #20
1000671e:	0006      	movs	r6, r0
10006720:	9103      	str	r1, [sp, #12]
10006722:	1e15      	subs	r5, r2, #0
10006724:	9302      	str	r3, [sp, #8]
10006726:	d100      	bne.n	1000672a <_tu_fifo_write_n+0x10>
10006728:	e06d      	b.n	10006806 <_tu_fifo_write_n+0xec>
1000672a:	68c0      	ldr	r0, [r0, #12]
1000672c:	2800      	cmp	r0, #0
1000672e:	d003      	beq.n	10006738 <_tu_fifo_write_n+0x1e>
10006730:	2101      	movs	r1, #1
10006732:	4249      	negs	r1, r1
10006734:	f000 fa08 	bl	10006b48 <__mutex_enter_timeout_ms_veneer>
10006738:	8934      	ldrh	r4, [r6, #8]
1000673a:	b2a4      	uxth	r4, r4
1000673c:	8971      	ldrh	r1, [r6, #10]
1000673e:	b289      	uxth	r1, r1
10006740:	79f3      	ldrb	r3, [r6, #7]
10006742:	09db      	lsrs	r3, r3, #7
10006744:	d11a      	bne.n	1000677c <_tu_fifo_write_n+0x62>
10006746:	88b3      	ldrh	r3, [r6, #4]
10006748:	428c      	cmp	r4, r1
1000674a:	d30f      	bcc.n	1000676c <_tu_fifo_write_n+0x52>
1000674c:	1a61      	subs	r1, r4, r1
1000674e:	b289      	uxth	r1, r1
10006750:	428b      	cmp	r3, r1
10006752:	d911      	bls.n	10006778 <_tu_fifo_write_n+0x5e>
10006754:	1a5b      	subs	r3, r3, r1
10006756:	b29b      	uxth	r3, r3
10006758:	1c2f      	adds	r7, r5, #0
1000675a:	429d      	cmp	r5, r3
1000675c:	d900      	bls.n	10006760 <_tu_fifo_write_n+0x46>
1000675e:	1c1f      	adds	r7, r3, #0
10006760:	b2bf      	uxth	r7, r7
10006762:	2f00      	cmp	r7, #0
10006764:	d047      	beq.n	100067f6 <_tu_fifo_write_n+0xdc>
10006766:	88b2      	ldrh	r2, [r6, #4]
10006768:	0023      	movs	r3, r4
1000676a:	e035      	b.n	100067d8 <_tu_fifo_write_n+0xbe>
1000676c:	1a61      	subs	r1, r4, r1
1000676e:	b289      	uxth	r1, r1
10006770:	005a      	lsls	r2, r3, #1
10006772:	1889      	adds	r1, r1, r2
10006774:	b289      	uxth	r1, r1
10006776:	e7eb      	b.n	10006750 <_tu_fifo_write_n+0x36>
10006778:	2300      	movs	r3, #0
1000677a:	e7ed      	b.n	10006758 <_tu_fifo_write_n+0x3e>
1000677c:	88b7      	ldrh	r7, [r6, #4]
1000677e:	42af      	cmp	r7, r5
10006780:	d80e      	bhi.n	100067a0 <_tu_fifo_write_n+0x86>
10006782:	9b02      	ldr	r3, [sp, #8]
10006784:	2b00      	cmp	r3, #0
10006786:	d121      	bne.n	100067cc <_tu_fifo_write_n+0xb2>
10006788:	1bed      	subs	r5, r5, r7
1000678a:	88f3      	ldrh	r3, [r6, #6]
1000678c:	045b      	lsls	r3, r3, #17
1000678e:	0c5a      	lsrs	r2, r3, #17
10006790:	436a      	muls	r2, r5
10006792:	9b03      	ldr	r3, [sp, #12]
10006794:	469c      	mov	ip, r3
10006796:	4494      	add	ip, r2
10006798:	4663      	mov	r3, ip
1000679a:	9303      	str	r3, [sp, #12]
1000679c:	000c      	movs	r4, r1
1000679e:	e7e0      	b.n	10006762 <_tu_fifo_write_n+0x48>
100067a0:	428c      	cmp	r4, r1
100067a2:	d30d      	bcc.n	100067c0 <_tu_fifo_write_n+0xa6>
100067a4:	1a63      	subs	r3, r4, r1
100067a6:	b29b      	uxth	r3, r3
100067a8:	195b      	adds	r3, r3, r5
100067aa:	007a      	lsls	r2, r7, #1
100067ac:	4293      	cmp	r3, r2
100067ae:	db0f      	blt.n	100067d0 <_tu_fifo_write_n+0xb6>
100067b0:	1b7a      	subs	r2, r7, r5
100067b2:	b292      	uxth	r2, r2
100067b4:	0038      	movs	r0, r7
100067b6:	f7ff fdc8 	bl	1000634a <advance_index>
100067ba:	0004      	movs	r4, r0
100067bc:	002f      	movs	r7, r5
100067be:	e7d0      	b.n	10006762 <_tu_fifo_write_n+0x48>
100067c0:	1a63      	subs	r3, r4, r1
100067c2:	b29b      	uxth	r3, r3
100067c4:	007a      	lsls	r2, r7, #1
100067c6:	189b      	adds	r3, r3, r2
100067c8:	b29b      	uxth	r3, r3
100067ca:	e7ed      	b.n	100067a8 <_tu_fifo_write_n+0x8e>
100067cc:	000c      	movs	r4, r1
100067ce:	e7c8      	b.n	10006762 <_tu_fifo_write_n+0x48>
100067d0:	002f      	movs	r7, r5
100067d2:	e7c6      	b.n	10006762 <_tu_fifo_write_n+0x48>
100067d4:	1a9b      	subs	r3, r3, r2
100067d6:	b29b      	uxth	r3, r3
100067d8:	429a      	cmp	r2, r3
100067da:	d9fb      	bls.n	100067d4 <_tu_fifo_write_n+0xba>
100067dc:	9a02      	ldr	r2, [sp, #8]
100067de:	9200      	str	r2, [sp, #0]
100067e0:	003a      	movs	r2, r7
100067e2:	9903      	ldr	r1, [sp, #12]
100067e4:	0030      	movs	r0, r6
100067e6:	f7ff ff12 	bl	1000660e <_ff_push_n>
100067ea:	88b0      	ldrh	r0, [r6, #4]
100067ec:	003a      	movs	r2, r7
100067ee:	0021      	movs	r1, r4
100067f0:	f7ff fdab 	bl	1000634a <advance_index>
100067f4:	8130      	strh	r0, [r6, #8]
100067f6:	68f0      	ldr	r0, [r6, #12]
100067f8:	2800      	cmp	r0, #0
100067fa:	d001      	beq.n	10006800 <_tu_fifo_write_n+0xe6>
100067fc:	f000 f97c 	bl	10006af8 <__mutex_exit_veneer>
10006800:	0038      	movs	r0, r7
10006802:	b005      	add	sp, #20
10006804:	bdf0      	pop	{r4, r5, r6, r7, pc}
10006806:	0017      	movs	r7, r2
10006808:	e7fa      	b.n	10006800 <_tu_fifo_write_n+0xe6>

1000680a <tu_fifo_config>:
1000680a:	b5f0      	push	{r4, r5, r6, r7, lr}
1000680c:	b083      	sub	sp, #12
1000680e:	0004      	movs	r4, r0
10006810:	9101      	str	r1, [sp, #4]
10006812:	0016      	movs	r6, r2
10006814:	001d      	movs	r5, r3
10006816:	ab08      	add	r3, sp, #32
10006818:	781f      	ldrb	r7, [r3, #0]
1000681a:	2380      	movs	r3, #128	; 0x80
1000681c:	021b      	lsls	r3, r3, #8
1000681e:	429a      	cmp	r2, r3
10006820:	d82d      	bhi.n	1000687e <tu_fifo_config+0x74>
10006822:	68c0      	ldr	r0, [r0, #12]
10006824:	2800      	cmp	r0, #0
10006826:	d003      	beq.n	10006830 <tu_fifo_config+0x26>
10006828:	2101      	movs	r1, #1
1000682a:	4249      	negs	r1, r1
1000682c:	f000 f98c 	bl	10006b48 <__mutex_enter_timeout_ms_veneer>
10006830:	6920      	ldr	r0, [r4, #16]
10006832:	2800      	cmp	r0, #0
10006834:	d003      	beq.n	1000683e <tu_fifo_config+0x34>
10006836:	2101      	movs	r1, #1
10006838:	4249      	negs	r1, r1
1000683a:	f000 f985 	bl	10006b48 <__mutex_enter_timeout_ms_veneer>
1000683e:	9b01      	ldr	r3, [sp, #4]
10006840:	6023      	str	r3, [r4, #0]
10006842:	80a6      	strh	r6, [r4, #4]
10006844:	046d      	lsls	r5, r5, #17
10006846:	0c6b      	lsrs	r3, r5, #17
10006848:	88e2      	ldrh	r2, [r4, #6]
1000684a:	0bd2      	lsrs	r2, r2, #15
1000684c:	03d5      	lsls	r5, r2, #15
1000684e:	431d      	orrs	r5, r3
10006850:	80e5      	strh	r5, [r4, #6]
10006852:	01fb      	lsls	r3, r7, #7
10006854:	79e2      	ldrb	r2, [r4, #7]
10006856:	277f      	movs	r7, #127	; 0x7f
10006858:	4017      	ands	r7, r2
1000685a:	431f      	orrs	r7, r3
1000685c:	71e7      	strb	r7, [r4, #7]
1000685e:	2300      	movs	r3, #0
10006860:	8163      	strh	r3, [r4, #10]
10006862:	8123      	strh	r3, [r4, #8]
10006864:	68e0      	ldr	r0, [r4, #12]
10006866:	2800      	cmp	r0, #0
10006868:	d001      	beq.n	1000686e <tu_fifo_config+0x64>
1000686a:	f000 f945 	bl	10006af8 <__mutex_exit_veneer>
1000686e:	6920      	ldr	r0, [r4, #16]
10006870:	2800      	cmp	r0, #0
10006872:	d006      	beq.n	10006882 <tu_fifo_config+0x78>
10006874:	f000 f940 	bl	10006af8 <__mutex_exit_veneer>
10006878:	2001      	movs	r0, #1
1000687a:	b003      	add	sp, #12
1000687c:	bdf0      	pop	{r4, r5, r6, r7, pc}
1000687e:	2000      	movs	r0, #0
10006880:	e7fb      	b.n	1000687a <tu_fifo_config+0x70>
10006882:	2001      	movs	r0, #1
10006884:	e7f9      	b.n	1000687a <tu_fifo_config+0x70>

10006886 <tu_fifo_count>:
10006886:	8881      	ldrh	r1, [r0, #4]
10006888:	8903      	ldrh	r3, [r0, #8]
1000688a:	b29b      	uxth	r3, r3
1000688c:	8942      	ldrh	r2, [r0, #10]
1000688e:	b292      	uxth	r2, r2
10006890:	4293      	cmp	r3, r2
10006892:	d307      	bcc.n	100068a4 <tu_fifo_count+0x1e>
10006894:	1a9b      	subs	r3, r3, r2
10006896:	b29b      	uxth	r3, r3
10006898:	1c08      	adds	r0, r1, #0
1000689a:	4299      	cmp	r1, r3
1000689c:	d900      	bls.n	100068a0 <tu_fifo_count+0x1a>
1000689e:	1c18      	adds	r0, r3, #0
100068a0:	b280      	uxth	r0, r0
100068a2:	4770      	bx	lr
100068a4:	1a9b      	subs	r3, r3, r2
100068a6:	b29b      	uxth	r3, r3
100068a8:	004a      	lsls	r2, r1, #1
100068aa:	189b      	adds	r3, r3, r2
100068ac:	b29b      	uxth	r3, r3
100068ae:	e7f3      	b.n	10006898 <tu_fifo_count+0x12>

100068b0 <tu_fifo_empty>:
100068b0:	0003      	movs	r3, r0
100068b2:	8900      	ldrh	r0, [r0, #8]
100068b4:	895b      	ldrh	r3, [r3, #10]
100068b6:	1ac0      	subs	r0, r0, r3
100068b8:	4243      	negs	r3, r0
100068ba:	4158      	adcs	r0, r3
100068bc:	b2c0      	uxtb	r0, r0
100068be:	4770      	bx	lr

100068c0 <tu_fifo_full>:
100068c0:	8881      	ldrh	r1, [r0, #4]
100068c2:	8903      	ldrh	r3, [r0, #8]
100068c4:	b29b      	uxth	r3, r3
100068c6:	8942      	ldrh	r2, [r0, #10]
100068c8:	b292      	uxth	r2, r2
100068ca:	4293      	cmp	r3, r2
100068cc:	d306      	bcc.n	100068dc <tu_fifo_full+0x1c>
100068ce:	1a9b      	subs	r3, r3, r2
100068d0:	b29b      	uxth	r3, r3
100068d2:	2000      	movs	r0, #0
100068d4:	428b      	cmp	r3, r1
100068d6:	4140      	adcs	r0, r0
100068d8:	b2c0      	uxtb	r0, r0
100068da:	4770      	bx	lr
100068dc:	1a9b      	subs	r3, r3, r2
100068de:	b29b      	uxth	r3, r3
100068e0:	004a      	lsls	r2, r1, #1
100068e2:	189b      	adds	r3, r3, r2
100068e4:	b29b      	uxth	r3, r3
100068e6:	e7f4      	b.n	100068d2 <tu_fifo_full+0x12>

100068e8 <tu_fifo_remaining>:
100068e8:	8882      	ldrh	r2, [r0, #4]
100068ea:	8903      	ldrh	r3, [r0, #8]
100068ec:	b29b      	uxth	r3, r3
100068ee:	8940      	ldrh	r0, [r0, #10]
100068f0:	b280      	uxth	r0, r0
100068f2:	4283      	cmp	r3, r0
100068f4:	d306      	bcc.n	10006904 <tu_fifo_remaining+0x1c>
100068f6:	1a1b      	subs	r3, r3, r0
100068f8:	b29b      	uxth	r3, r3
100068fa:	429a      	cmp	r2, r3
100068fc:	d908      	bls.n	10006910 <tu_fifo_remaining+0x28>
100068fe:	1ad3      	subs	r3, r2, r3
10006900:	b298      	uxth	r0, r3
10006902:	4770      	bx	lr
10006904:	1a1b      	subs	r3, r3, r0
10006906:	b29b      	uxth	r3, r3
10006908:	0050      	lsls	r0, r2, #1
1000690a:	181b      	adds	r3, r3, r0
1000690c:	b29b      	uxth	r3, r3
1000690e:	e7f4      	b.n	100068fa <tu_fifo_remaining+0x12>
10006910:	2000      	movs	r0, #0
10006912:	e7f6      	b.n	10006902 <tu_fifo_remaining+0x1a>

10006914 <tu_fifo_read>:
10006914:	b570      	push	{r4, r5, r6, lr}
10006916:	0004      	movs	r4, r0
10006918:	000d      	movs	r5, r1
1000691a:	6900      	ldr	r0, [r0, #16]
1000691c:	2800      	cmp	r0, #0
1000691e:	d003      	beq.n	10006928 <tu_fifo_read+0x14>
10006920:	2101      	movs	r1, #1
10006922:	4249      	negs	r1, r1
10006924:	f000 f910 	bl	10006b48 <__mutex_enter_timeout_ms_veneer>
10006928:	8922      	ldrh	r2, [r4, #8]
1000692a:	b292      	uxth	r2, r2
1000692c:	8963      	ldrh	r3, [r4, #10]
1000692e:	b29b      	uxth	r3, r3
10006930:	0029      	movs	r1, r5
10006932:	0020      	movs	r0, r4
10006934:	f7ff fd16 	bl	10006364 <_tu_fifo_peek>
10006938:	0005      	movs	r5, r0
1000693a:	8961      	ldrh	r1, [r4, #10]
1000693c:	b289      	uxth	r1, r1
1000693e:	b282      	uxth	r2, r0
10006940:	88a0      	ldrh	r0, [r4, #4]
10006942:	f7ff fd02 	bl	1000634a <advance_index>
10006946:	8160      	strh	r0, [r4, #10]
10006948:	6920      	ldr	r0, [r4, #16]
1000694a:	2800      	cmp	r0, #0
1000694c:	d001      	beq.n	10006952 <tu_fifo_read+0x3e>
1000694e:	f000 f8d3 	bl	10006af8 <__mutex_exit_veneer>
10006952:	0028      	movs	r0, r5
10006954:	bd70      	pop	{r4, r5, r6, pc}

10006956 <tu_fifo_read_n>:
10006956:	b510      	push	{r4, lr}
10006958:	2300      	movs	r3, #0
1000695a:	f7ff fe11 	bl	10006580 <_tu_fifo_read_n>
1000695e:	bd10      	pop	{r4, pc}

10006960 <tu_fifo_write>:
10006960:	b5f8      	push	{r3, r4, r5, r6, r7, lr}
10006962:	0004      	movs	r4, r0
10006964:	000e      	movs	r6, r1
10006966:	68c0      	ldr	r0, [r0, #12]
10006968:	2800      	cmp	r0, #0
1000696a:	d003      	beq.n	10006974 <tu_fifo_write+0x14>
1000696c:	2101      	movs	r1, #1
1000696e:	4249      	negs	r1, r1
10006970:	f000 f8ea 	bl	10006b48 <__mutex_enter_timeout_ms_veneer>
10006974:	8925      	ldrh	r5, [r4, #8]
10006976:	b2ad      	uxth	r5, r5
10006978:	0020      	movs	r0, r4
1000697a:	f7ff ffa1 	bl	100068c0 <tu_fifo_full>
1000697e:	2800      	cmp	r0, #0
10006980:	d002      	beq.n	10006988 <tu_fifo_write+0x28>
10006982:	79e7      	ldrb	r7, [r4, #7]
10006984:	09ff      	lsrs	r7, r7, #7
10006986:	d016      	beq.n	100069b6 <tu_fifo_write+0x56>
10006988:	88a2      	ldrh	r2, [r4, #4]
1000698a:	002b      	movs	r3, r5
1000698c:	e001      	b.n	10006992 <tu_fifo_write+0x32>
1000698e:	1a9b      	subs	r3, r3, r2
10006990:	b29b      	uxth	r3, r3
10006992:	429a      	cmp	r2, r3
10006994:	d9fb      	bls.n	1000698e <tu_fifo_write+0x2e>
10006996:	88e2      	ldrh	r2, [r4, #6]
10006998:	0452      	lsls	r2, r2, #17
1000699a:	0c52      	lsrs	r2, r2, #17
1000699c:	4353      	muls	r3, r2
1000699e:	6821      	ldr	r1, [r4, #0]
100069a0:	18c8      	adds	r0, r1, r3
100069a2:	0031      	movs	r1, r6
100069a4:	f7fd fbf0 	bl	10004188 <__wrap___aeabi_memcpy>
100069a8:	88a0      	ldrh	r0, [r4, #4]
100069aa:	2201      	movs	r2, #1
100069ac:	0029      	movs	r1, r5
100069ae:	f7ff fccc 	bl	1000634a <advance_index>
100069b2:	8120      	strh	r0, [r4, #8]
100069b4:	2701      	movs	r7, #1
100069b6:	68e0      	ldr	r0, [r4, #12]
100069b8:	2800      	cmp	r0, #0
100069ba:	d001      	beq.n	100069c0 <tu_fifo_write+0x60>
100069bc:	f000 f89c 	bl	10006af8 <__mutex_exit_veneer>
100069c0:	0038      	movs	r0, r7
100069c2:	bdf8      	pop	{r3, r4, r5, r6, r7, pc}

100069c4 <tu_fifo_write_n>:
100069c4:	b510      	push	{r4, lr}
100069c6:	2300      	movs	r3, #0
100069c8:	f7ff fea7 	bl	1000671a <_tu_fifo_write_n>
100069cc:	bd10      	pop	{r4, pc}

100069ce <tu_fifo_clear>:
100069ce:	b510      	push	{r4, lr}
100069d0:	0004      	movs	r4, r0
100069d2:	68c0      	ldr	r0, [r0, #12]
100069d4:	2800      	cmp	r0, #0
100069d6:	d003      	beq.n	100069e0 <tu_fifo_clear+0x12>
100069d8:	2101      	movs	r1, #1
100069da:	4249      	negs	r1, r1
100069dc:	f000 f8b4 	bl	10006b48 <__mutex_enter_timeout_ms_veneer>
100069e0:	6920      	ldr	r0, [r4, #16]
100069e2:	2800      	cmp	r0, #0
100069e4:	d003      	beq.n	100069ee <tu_fifo_clear+0x20>
100069e6:	2101      	movs	r1, #1
100069e8:	4249      	negs	r1, r1
100069ea:	f000 f8ad 	bl	10006b48 <__mutex_enter_timeout_ms_veneer>
100069ee:	2300      	movs	r3, #0
100069f0:	8163      	strh	r3, [r4, #10]
100069f2:	8123      	strh	r3, [r4, #8]
100069f4:	68e0      	ldr	r0, [r4, #12]
100069f6:	2800      	cmp	r0, #0
100069f8:	d001      	beq.n	100069fe <tu_fifo_clear+0x30>
100069fa:	f000 f87d 	bl	10006af8 <__mutex_exit_veneer>
100069fe:	6920      	ldr	r0, [r4, #16]
10006a00:	2800      	cmp	r0, #0
10006a02:	d001      	beq.n	10006a08 <tu_fifo_clear+0x3a>
10006a04:	f000 f878 	bl	10006af8 <__mutex_exit_veneer>
10006a08:	2001      	movs	r0, #1
10006a0a:	bd10      	pop	{r4, pc}

10006a0c <tu_fifo_set_overwritable>:
10006a0c:	b570      	push	{r4, r5, r6, lr}
10006a0e:	0004      	movs	r4, r0
10006a10:	000d      	movs	r5, r1
10006a12:	68c0      	ldr	r0, [r0, #12]
10006a14:	2800      	cmp	r0, #0
10006a16:	d003      	beq.n	10006a20 <tu_fifo_set_overwritable+0x14>
10006a18:	2101      	movs	r1, #1
10006a1a:	4249      	negs	r1, r1
10006a1c:	f000 f894 	bl	10006b48 <__mutex_enter_timeout_ms_veneer>
10006a20:	6920      	ldr	r0, [r4, #16]
10006a22:	2800      	cmp	r0, #0
10006a24:	d003      	beq.n	10006a2e <tu_fifo_set_overwritable+0x22>
10006a26:	2101      	movs	r1, #1
10006a28:	4249      	negs	r1, r1
10006a2a:	f000 f88d 	bl	10006b48 <__mutex_enter_timeout_ms_veneer>
10006a2e:	01ed      	lsls	r5, r5, #7
10006a30:	79e3      	ldrb	r3, [r4, #7]
10006a32:	217f      	movs	r1, #127	; 0x7f
10006a34:	4019      	ands	r1, r3
10006a36:	4329      	orrs	r1, r5
10006a38:	71e1      	strb	r1, [r4, #7]
10006a3a:	68e0      	ldr	r0, [r4, #12]
10006a3c:	2800      	cmp	r0, #0
10006a3e:	d001      	beq.n	10006a44 <tu_fifo_set_overwritable+0x38>
10006a40:	f000 f85a 	bl	10006af8 <__mutex_exit_veneer>
10006a44:	6920      	ldr	r0, [r4, #16]
10006a46:	2800      	cmp	r0, #0
10006a48:	d001      	beq.n	10006a4e <tu_fifo_set_overwritable+0x42>
10006a4a:	f000 f855 	bl	10006af8 <__mutex_exit_veneer>
10006a4e:	2001      	movs	r0, #1
10006a50:	bd70      	pop	{r4, r5, r6, pc}
	...

10006a54 <adc_init>:
10006a54:	2301      	movs	r3, #1
10006a56:	4a08      	ldr	r2, [pc, #32]	; (10006a78 <adc_init+0x24>)
10006a58:	6013      	str	r3, [r2, #0]
10006a5a:	4a08      	ldr	r2, [pc, #32]	; (10006a7c <adc_init+0x28>)
10006a5c:	6013      	str	r3, [r2, #0]
10006a5e:	4b08      	ldr	r3, [pc, #32]	; (10006a80 <adc_init+0x2c>)
10006a60:	689a      	ldr	r2, [r3, #8]
10006a62:	2301      	movs	r3, #1
10006a64:	4393      	bics	r3, r2
10006a66:	d1fa      	bne.n	10006a5e <adc_init+0xa>
10006a68:	4b06      	ldr	r3, [pc, #24]	; (10006a84 <adc_init+0x30>)
10006a6a:	2201      	movs	r2, #1
10006a6c:	601a      	str	r2, [r3, #0]
10006a6e:	4b05      	ldr	r3, [pc, #20]	; (10006a84 <adc_init+0x30>)
10006a70:	681b      	ldr	r3, [r3, #0]
10006a72:	05db      	lsls	r3, r3, #23
10006a74:	d5fb      	bpl.n	10006a6e <adc_init+0x1a>
10006a76:	4770      	bx	lr
10006a78:	4000e000 	.word	0x4000e000
10006a7c:	4000f000 	.word	0x4000f000
10006a80:	4000c000 	.word	0x4000c000
10006a84:	4004c000 	.word	0x4004c000

10006a88 <strlen>:
10006a88:	b510      	push	{r4, lr}
10006a8a:	0783      	lsls	r3, r0, #30
10006a8c:	d00a      	beq.n	10006aa4 <strlen+0x1c>
10006a8e:	0003      	movs	r3, r0
10006a90:	2103      	movs	r1, #3
10006a92:	e002      	b.n	10006a9a <strlen+0x12>
10006a94:	3301      	adds	r3, #1
10006a96:	420b      	tst	r3, r1
10006a98:	d005      	beq.n	10006aa6 <strlen+0x1e>
10006a9a:	781a      	ldrb	r2, [r3, #0]
10006a9c:	2a00      	cmp	r2, #0
10006a9e:	d1f9      	bne.n	10006a94 <strlen+0xc>
10006aa0:	1a18      	subs	r0, r3, r0
10006aa2:	bd10      	pop	{r4, pc}
10006aa4:	0003      	movs	r3, r0
10006aa6:	6819      	ldr	r1, [r3, #0]
10006aa8:	4a0c      	ldr	r2, [pc, #48]	; (10006adc <strlen+0x54>)
10006aaa:	4c0d      	ldr	r4, [pc, #52]	; (10006ae0 <strlen+0x58>)
10006aac:	188a      	adds	r2, r1, r2
10006aae:	438a      	bics	r2, r1
10006ab0:	4222      	tst	r2, r4
10006ab2:	d10f      	bne.n	10006ad4 <strlen+0x4c>
10006ab4:	6859      	ldr	r1, [r3, #4]
10006ab6:	4a09      	ldr	r2, [pc, #36]	; (10006adc <strlen+0x54>)
10006ab8:	3304      	adds	r3, #4
10006aba:	188a      	adds	r2, r1, r2
10006abc:	438a      	bics	r2, r1
10006abe:	4222      	tst	r2, r4
10006ac0:	d108      	bne.n	10006ad4 <strlen+0x4c>
10006ac2:	6859      	ldr	r1, [r3, #4]
10006ac4:	4a05      	ldr	r2, [pc, #20]	; (10006adc <strlen+0x54>)
10006ac6:	3304      	adds	r3, #4
10006ac8:	188a      	adds	r2, r1, r2
10006aca:	438a      	bics	r2, r1
10006acc:	4222      	tst	r2, r4
10006ace:	d0f1      	beq.n	10006ab4 <strlen+0x2c>
10006ad0:	e000      	b.n	10006ad4 <strlen+0x4c>
10006ad2:	3301      	adds	r3, #1
10006ad4:	781a      	ldrb	r2, [r3, #0]
10006ad6:	2a00      	cmp	r2, #0
10006ad8:	d1fb      	bne.n	10006ad2 <strlen+0x4a>
10006ada:	e7e1      	b.n	10006aa0 <strlen+0x18>
10006adc:	fefefeff 	.word	0xfefefeff
10006ae0:	80808080 	.word	0x80808080

10006ae4 <_fini>:
10006ae4:	b5f8      	push	{r3, r4, r5, r6, r7, lr}
10006ae6:	46c0      	nop			; (mov r8, r8)

10006ae8 <__flash_do_cmd_veneer>:
10006ae8:	b401      	push	{r0}
10006aea:	4802      	ldr	r0, [pc, #8]	; (10006af4 <__flash_do_cmd_veneer+0xc>)
10006aec:	4684      	mov	ip, r0
10006aee:	bc01      	pop	{r0}
10006af0:	4760      	bx	ip
10006af2:	bf00      	nop
10006af4:	200002e5 	.word	0x200002e5

10006af8 <__mutex_exit_veneer>:
10006af8:	b401      	push	{r0}
10006afa:	4802      	ldr	r0, [pc, #8]	; (10006b04 <__mutex_exit_veneer+0xc>)
10006afc:	4684      	mov	ip, r0
10006afe:	bc01      	pop	{r0}
10006b00:	4760      	bx	ip
10006b02:	bf00      	nop
10006b04:	20000231 	.word	0x20000231

10006b08 <____aeabi_ldiv0_veneer>:
10006b08:	b401      	push	{r0}
10006b0a:	4802      	ldr	r0, [pc, #8]	; (10006b14 <____aeabi_ldiv0_veneer+0xc>)
10006b0c:	4684      	mov	ip, r0
10006b0e:	bc01      	pop	{r0}
10006b10:	4760      	bx	ip
10006b12:	bf00      	nop
10006b14:	20000b1d 	.word	0x20000b1d

10006b18 <____aeabi_idiv0_veneer>:
10006b18:	b401      	push	{r0}
10006b1a:	4802      	ldr	r0, [pc, #8]	; (10006b24 <____aeabi_idiv0_veneer+0xc>)
10006b1c:	4684      	mov	ip, r0
10006b1e:	bc01      	pop	{r0}
10006b20:	4760      	bx	ip
10006b22:	bf00      	nop
10006b24:	20000b1d 	.word	0x20000b1d

10006b28 <__mutex_try_enter_veneer>:
10006b28:	b401      	push	{r0}
10006b2a:	4802      	ldr	r0, [pc, #8]	; (10006b34 <__mutex_try_enter_veneer+0xc>)
10006b2c:	4684      	mov	ip, r0
10006b2e:	bc01      	pop	{r0}
10006b30:	4760      	bx	ip
10006b32:	bf00      	nop
10006b34:	200000c1 	.word	0x200000c1

10006b38 <__e15_is_bulkin_ep_veneer>:
10006b38:	b401      	push	{r0}
10006b3a:	4802      	ldr	r0, [pc, #8]	; (10006b44 <__e15_is_bulkin_ep_veneer+0xc>)
10006b3c:	4684      	mov	ip, r0
10006b3e:	bc01      	pop	{r0}
10006b40:	4760      	bx	ip
10006b42:	bf00      	nop
10006b44:	2000066d 	.word	0x2000066d

10006b48 <__mutex_enter_timeout_ms_veneer>:
10006b48:	b401      	push	{r0}
10006b4a:	4802      	ldr	r0, [pc, #8]	; (10006b54 <__mutex_enter_timeout_ms_veneer+0xc>)
10006b4c:	4684      	mov	ip, r0
10006b4e:	bc01      	pop	{r0}
10006b50:	4760      	bx	ip
10006b52:	bf00      	nop
10006b54:	200001c9 	.word	0x200001c9

10006b58 <__dcd_event_handler_veneer>:
10006b58:	b401      	push	{r0}
10006b5a:	4802      	ldr	r0, [pc, #8]	; (10006b64 <__dcd_event_handler_veneer+0xc>)
10006b5c:	4684      	mov	ip, r0
10006b5e:	bc01      	pop	{r0}
10006b60:	4760      	bx	ip
10006b62:	bf00      	nop
10006b64:	2000091d 	.word	0x2000091d

10006b68 <__reset_non_control_endpoints_veneer>:
10006b68:	b401      	push	{r0}
10006b6a:	4802      	ldr	r0, [pc, #8]	; (10006b74 <__reset_non_control_endpoints_veneer+0xc>)
10006b6c:	4684      	mov	ip, r0
10006b6e:	bc01      	pop	{r0}
10006b70:	4760      	bx	ip
10006b72:	bf00      	nop
10006b74:	200003bd 	.word	0x200003bd

10006b78 <__mutex_try_enter_block_until_veneer>:
10006b78:	b401      	push	{r0}
10006b7a:	4802      	ldr	r0, [pc, #8]	; (10006b84 <__mutex_try_enter_block_until_veneer+0xc>)
10006b7c:	4684      	mov	ip, r0
10006b7e:	bc01      	pop	{r0}
10006b80:	4760      	bx	ip
10006b82:	bf00      	nop
10006b84:	20000195 	.word	0x20000195

10006b88 <__hw_endpoint_start_next_buffer_veneer>:
10006b88:	b401      	push	{r0}
10006b8a:	4802      	ldr	r0, [pc, #8]	; (10006b94 <__hw_endpoint_start_next_buffer_veneer+0xc>)
10006b8c:	4684      	mov	ip, r0
10006b8e:	bc01      	pop	{r0}
10006b90:	4760      	bx	ip
10006b92:	bf00      	nop
10006b94:	20000845 	.word	0x20000845

10006b98 <__hw_endpoint_reset_transfer_veneer>:
10006b98:	b401      	push	{r0}
10006b9a:	4802      	ldr	r0, [pc, #8]	; (10006ba4 <__hw_endpoint_reset_transfer_veneer+0xc>)
10006b9c:	4684      	mov	ip, r0
10006b9e:	bc01      	pop	{r0}
10006ba0:	4760      	bx	ip
10006ba2:	bf00      	nop
10006ba4:	200007e1 	.word	0x200007e1

10006ba8 <__e15_is_critical_frame_period_veneer>:
10006ba8:	b401      	push	{r0}
10006baa:	4802      	ldr	r0, [pc, #8]	; (10006bb4 <__e15_is_critical_frame_period_veneer+0xc>)
10006bac:	4684      	mov	ip, r0
10006bae:	bc01      	pop	{r0}
10006bb0:	4760      	bx	ip
10006bb2:	bf00      	nop
10006bb4:	20000699 	.word	0x20000699

10006bb8 <___hw_endpoint_buffer_control_update32_veneer>:
10006bb8:	b401      	push	{r0}
10006bba:	4802      	ldr	r0, [pc, #8]	; (10006bc4 <___hw_endpoint_buffer_control_update32_veneer+0xc>)
10006bbc:	4684      	mov	ip, r0
10006bbe:	bc01      	pop	{r0}
10006bc0:	4760      	bx	ip
10006bc2:	bf00      	nop
10006bc4:	200007ed 	.word	0x200007ed

Disassembly of section .data:

200000c0 <mutex_try_enter>:
200000c0:	0003      	movs	r3, r0
200000c2:	6800      	ldr	r0, [r0, #0]
200000c4:	f3ef 8c10 	mrs	ip, PRIMASK
200000c8:	b672      	cpsid	i
200000ca:	6802      	ldr	r2, [r0, #0]
200000cc:	2a00      	cmp	r2, #0
200000ce:	d0fc      	beq.n	200000ca <mutex_try_enter+0xa>
200000d0:	f3bf 8f5f 	dmb	sy
200000d4:	2204      	movs	r2, #4
200000d6:	569a      	ldrsb	r2, [r3, r2]
200000d8:	2a00      	cmp	r2, #0
200000da:	db0b      	blt.n	200000f4 <mutex_try_enter+0x34>
200000dc:	2900      	cmp	r1, #0
200000de:	d010      	beq.n	20000102 <mutex_try_enter+0x42>
200000e0:	600a      	str	r2, [r1, #0]
200000e2:	2000      	movs	r0, #0
200000e4:	681b      	ldr	r3, [r3, #0]
200000e6:	f3bf 8f5f 	dmb	sy
200000ea:	2200      	movs	r2, #0
200000ec:	601a      	str	r2, [r3, #0]
200000ee:	f38c 8810 	msr	PRIMASK, ip
200000f2:	4770      	bx	lr
200000f4:	22d0      	movs	r2, #208	; 0xd0
200000f6:	0612      	lsls	r2, r2, #24
200000f8:	7812      	ldrb	r2, [r2, #0]
200000fa:	b252      	sxtb	r2, r2
200000fc:	711a      	strb	r2, [r3, #4]
200000fe:	2001      	movs	r0, #1
20000100:	e7f0      	b.n	200000e4 <mutex_try_enter+0x24>
20000102:	2000      	movs	r0, #0
20000104:	e7ee      	b.n	200000e4 <mutex_try_enter+0x24>
	...

20000108 <mutex_enter_block_until>:
20000108:	b5f8      	push	{r3, r4, r5, r6, r7, lr}
2000010a:	46ce      	mov	lr, r9
2000010c:	4647      	mov	r7, r8
2000010e:	b580      	push	{r7, lr}
20000110:	0004      	movs	r4, r0
20000112:	0017      	movs	r7, r2
20000114:	4698      	mov	r8, r3
20000116:	6803      	ldr	r3, [r0, #0]
20000118:	2b00      	cmp	r3, #0
2000011a:	d020      	beq.n	2000015e <mutex_enter_block_until+0x56>
2000011c:	23d0      	movs	r3, #208	; 0xd0
2000011e:	061b      	lsls	r3, r3, #24
20000120:	781b      	ldrb	r3, [r3, #0]
20000122:	b25b      	sxtb	r3, r3
20000124:	4699      	mov	r9, r3
20000126:	6826      	ldr	r6, [r4, #0]
20000128:	f3ef 8c10 	mrs	ip, PRIMASK
2000012c:	b672      	cpsid	i
2000012e:	6835      	ldr	r5, [r6, #0]
20000130:	2d00      	cmp	r5, #0
20000132:	d0fc      	beq.n	2000012e <mutex_enter_block_until+0x26>
20000134:	f3bf 8f5f 	dmb	sy
20000138:	2504      	movs	r5, #4
2000013a:	5765      	ldrsb	r5, [r4, r5]
2000013c:	2d00      	cmp	r5, #0
2000013e:	db14      	blt.n	2000016a <mutex_enter_block_until+0x62>
20000140:	6823      	ldr	r3, [r4, #0]
20000142:	f3bf 8f5f 	dmb	sy
20000146:	2200      	movs	r2, #0
20000148:	601a      	str	r2, [r3, #0]
2000014a:	f38c 8810 	msr	PRIMASK, ip
2000014e:	0038      	movs	r0, r7
20000150:	4641      	mov	r1, r8
20000152:	f000 fcfd 	bl	20000b50 <__best_effort_wfe_or_timeout_veneer>
20000156:	2800      	cmp	r0, #0
20000158:	d0e5      	beq.n	20000126 <mutex_enter_block_until+0x1e>
2000015a:	2000      	movs	r0, #0
2000015c:	e00f      	b.n	2000017e <mutex_enter_block_until+0x76>
2000015e:	4b0a      	ldr	r3, [pc, #40]	; (20000188 <mutex_enter_block_until+0x80>)
20000160:	4a0a      	ldr	r2, [pc, #40]	; (2000018c <mutex_enter_block_until+0x84>)
20000162:	2185      	movs	r1, #133	; 0x85
20000164:	480a      	ldr	r0, [pc, #40]	; (20000190 <mutex_enter_block_until+0x88>)
20000166:	f000 fcfb 	bl	20000b60 <____assert_func_veneer>
2000016a:	464b      	mov	r3, r9
2000016c:	7123      	strb	r3, [r4, #4]
2000016e:	6823      	ldr	r3, [r4, #0]
20000170:	f3bf 8f5f 	dmb	sy
20000174:	2200      	movs	r2, #0
20000176:	601a      	str	r2, [r3, #0]
20000178:	f38c 8810 	msr	PRIMASK, ip
2000017c:	2001      	movs	r0, #1
2000017e:	bcc0      	pop	{r6, r7}
20000180:	46b9      	mov	r9, r7
20000182:	46b0      	mov	r8, r6
20000184:	bdf8      	pop	{r3, r4, r5, r6, r7, pc}
20000186:	46c0      	nop			; (mov r8, r8)
20000188:	10006f74 	.word	0x10006f74
2000018c:	1000704c 	.word	0x1000704c
20000190:	10006f20 	.word	0x10006f20

20000194 <mutex_try_enter_block_until>:
20000194:	b570      	push	{r4, r5, r6, lr}
20000196:	b082      	sub	sp, #8
20000198:	0006      	movs	r6, r0
2000019a:	0015      	movs	r5, r2
2000019c:	001c      	movs	r4, r3
2000019e:	a901      	add	r1, sp, #4
200001a0:	f7ff ff8e 	bl	200000c0 <mutex_try_enter>
200001a4:	2800      	cmp	r0, #0
200001a6:	d107      	bne.n	200001b8 <mutex_try_enter_block_until+0x24>
200001a8:	9b01      	ldr	r3, [sp, #4]
200001aa:	b25b      	sxtb	r3, r3
200001ac:	22d0      	movs	r2, #208	; 0xd0
200001ae:	0612      	lsls	r2, r2, #24
200001b0:	7812      	ldrb	r2, [r2, #0]
200001b2:	b252      	sxtb	r2, r2
200001b4:	4293      	cmp	r3, r2
200001b6:	d101      	bne.n	200001bc <mutex_try_enter_block_until+0x28>
200001b8:	b002      	add	sp, #8
200001ba:	bd70      	pop	{r4, r5, r6, pc}
200001bc:	002a      	movs	r2, r5
200001be:	0023      	movs	r3, r4
200001c0:	0030      	movs	r0, r6
200001c2:	f7ff ffa1 	bl	20000108 <mutex_enter_block_until>
200001c6:	e7f7      	b.n	200001b8 <mutex_try_enter_block_until+0x24>

200001c8 <mutex_enter_timeout_ms>:
200001c8:	b5f8      	push	{r3, r4, r5, r6, r7, lr}
200001ca:	0006      	movs	r6, r0
200001cc:	000f      	movs	r7, r1
200001ce:	f000 fca7 	bl	20000b20 <__time_us_64_veneer>
200001d2:	0004      	movs	r4, r0
200001d4:	1e0d      	subs	r5, r1, #0
200001d6:	db12      	blt.n	200001fe <mutex_enter_timeout_ms+0x36>
200001d8:	22fa      	movs	r2, #250	; 0xfa
200001da:	0092      	lsls	r2, r2, #2
200001dc:	2300      	movs	r3, #0
200001de:	0038      	movs	r0, r7
200001e0:	2100      	movs	r1, #0
200001e2:	f000 fcc5 	bl	20000b70 <____wrap___aeabi_lmul_veneer>
200001e6:	0022      	movs	r2, r4
200001e8:	002b      	movs	r3, r5
200001ea:	1812      	adds	r2, r2, r0
200001ec:	414b      	adcs	r3, r1
200001ee:	2b00      	cmp	r3, #0
200001f0:	db0b      	blt.n	2000020a <mutex_enter_timeout_ms+0x42>
200001f2:	2b00      	cmp	r3, #0
200001f4:	db0d      	blt.n	20000212 <mutex_enter_timeout_ms+0x4a>
200001f6:	0030      	movs	r0, r6
200001f8:	f7ff ff86 	bl	20000108 <mutex_enter_block_until>
200001fc:	bdf8      	pop	{r3, r4, r5, r6, r7, pc}
200001fe:	4b08      	ldr	r3, [pc, #32]	; (20000220 <mutex_enter_timeout_ms+0x58>)
20000200:	4a08      	ldr	r2, [pc, #32]	; (20000224 <mutex_enter_timeout_ms+0x5c>)
20000202:	213f      	movs	r1, #63	; 0x3f
20000204:	4808      	ldr	r0, [pc, #32]	; (20000228 <mutex_enter_timeout_ms+0x60>)
20000206:	f000 fcab 	bl	20000b60 <____assert_func_veneer>
2000020a:	2201      	movs	r2, #1
2000020c:	4252      	negs	r2, r2
2000020e:	4b07      	ldr	r3, [pc, #28]	; (2000022c <mutex_enter_timeout_ms+0x64>)
20000210:	e7ef      	b.n	200001f2 <mutex_enter_timeout_ms+0x2a>
20000212:	4b03      	ldr	r3, [pc, #12]	; (20000220 <mutex_enter_timeout_ms+0x58>)
20000214:	4a03      	ldr	r2, [pc, #12]	; (20000224 <mutex_enter_timeout_ms+0x5c>)
20000216:	213f      	movs	r1, #63	; 0x3f
20000218:	4803      	ldr	r0, [pc, #12]	; (20000228 <mutex_enter_timeout_ms+0x60>)
2000021a:	f000 fca1 	bl	20000b60 <____assert_func_veneer>
2000021e:	46c0      	nop			; (mov r8, r8)
20000220:	10006f88 	.word	0x10006f88
20000224:	10007064 	.word	0x10007064
20000228:	10006fa4 	.word	0x10006fa4
2000022c:	7fffffff 	.word	0x7fffffff

20000230 <mutex_exit>:
20000230:	b510      	push	{r4, lr}
20000232:	6802      	ldr	r2, [r0, #0]
20000234:	f3ef 8110 	mrs	r1, PRIMASK
20000238:	b672      	cpsid	i
2000023a:	6813      	ldr	r3, [r2, #0]
2000023c:	2b00      	cmp	r3, #0
2000023e:	d0fc      	beq.n	2000023a <mutex_exit+0xa>
20000240:	f3bf 8f5f 	dmb	sy
20000244:	2304      	movs	r3, #4
20000246:	56c3      	ldrsb	r3, [r0, r3]
20000248:	2b00      	cmp	r3, #0
2000024a:	db0a      	blt.n	20000262 <mutex_exit+0x32>
2000024c:	23ff      	movs	r3, #255	; 0xff
2000024e:	7103      	strb	r3, [r0, #4]
20000250:	6803      	ldr	r3, [r0, #0]
20000252:	f3bf 8f5f 	dmb	sy
20000256:	2200      	movs	r2, #0
20000258:	601a      	str	r2, [r3, #0]
2000025a:	f381 8810 	msr	PRIMASK, r1
2000025e:	bf40      	sev
20000260:	bd10      	pop	{r4, pc}
20000262:	4b03      	ldr	r3, [pc, #12]	; (20000270 <mutex_exit+0x40>)
20000264:	4a03      	ldr	r2, [pc, #12]	; (20000274 <mutex_exit+0x44>)
20000266:	21b4      	movs	r1, #180	; 0xb4
20000268:	4803      	ldr	r0, [pc, #12]	; (20000278 <mutex_exit+0x48>)
2000026a:	f000 fc79 	bl	20000b60 <____assert_func_veneer>
2000026e:	46c0      	nop			; (mov r8, r8)
20000270:	10007008 	.word	0x10007008
20000274:	10007040 	.word	0x10007040
20000278:	10006f20 	.word	0x10006f20

2000027c <flash_init_boot2_copyout>:
2000027c:	4b09      	ldr	r3, [pc, #36]	; (200002a4 <flash_init_boot2_copyout+0x28>)
2000027e:	781b      	ldrb	r3, [r3, #0]
20000280:	2b00      	cmp	r3, #0
20000282:	d008      	beq.n	20000296 <flash_init_boot2_copyout+0x1a>
20000284:	e00c      	b.n	200002a0 <flash_init_boot2_copyout+0x24>
20000286:	009a      	lsls	r2, r3, #2
20000288:	2180      	movs	r1, #128	; 0x80
2000028a:	0549      	lsls	r1, r1, #21
2000028c:	1851      	adds	r1, r2, r1
2000028e:	6808      	ldr	r0, [r1, #0]
20000290:	4905      	ldr	r1, [pc, #20]	; (200002a8 <flash_init_boot2_copyout+0x2c>)
20000292:	5050      	str	r0, [r2, r1]
20000294:	3301      	adds	r3, #1
20000296:	2b3f      	cmp	r3, #63	; 0x3f
20000298:	ddf5      	ble.n	20000286 <flash_init_boot2_copyout+0xa>
2000029a:	4b02      	ldr	r3, [pc, #8]	; (200002a4 <flash_init_boot2_copyout+0x28>)
2000029c:	2201      	movs	r2, #1
2000029e:	701a      	strb	r2, [r3, #0]
200002a0:	4770      	bx	lr
200002a2:	46c0      	nop			; (mov r8, r8)
200002a4:	20001a4f 	.word	0x20001a4f
200002a8:	20001228 	.word	0x20001228

200002ac <flash_enable_xip_via_boot2>:
200002ac:	b510      	push	{r4, lr}
200002ae:	4b02      	ldr	r3, [pc, #8]	; (200002b8 <flash_enable_xip_via_boot2+0xc>)
200002b0:	3301      	adds	r3, #1
200002b2:	4798      	blx	r3
200002b4:	bd10      	pop	{r4, pc}
200002b6:	46c0      	nop			; (mov r8, r8)
200002b8:	20001228 	.word	0x20001228

200002bc <flash_cs_force>:
200002bc:	2800      	cmp	r0, #0
200002be:	d00a      	beq.n	200002d6 <flash_cs_force+0x1a>
200002c0:	2303      	movs	r3, #3
200002c2:	021b      	lsls	r3, r3, #8
200002c4:	4a05      	ldr	r2, [pc, #20]	; (200002dc <flash_cs_force+0x20>)
200002c6:	6812      	ldr	r2, [r2, #0]
200002c8:	4053      	eors	r3, r2
200002ca:	22c0      	movs	r2, #192	; 0xc0
200002cc:	0092      	lsls	r2, r2, #2
200002ce:	4013      	ands	r3, r2
200002d0:	4a03      	ldr	r2, [pc, #12]	; (200002e0 <flash_cs_force+0x24>)
200002d2:	6013      	str	r3, [r2, #0]
200002d4:	4770      	bx	lr
200002d6:	2302      	movs	r3, #2
200002d8:	e7f3      	b.n	200002c2 <flash_cs_force+0x6>
200002da:	46c0      	nop			; (mov r8, r8)
200002dc:	4001800c 	.word	0x4001800c
200002e0:	4001900c 	.word	0x4001900c

200002e4 <flash_do_cmd>:
200002e4:	b5f0      	push	{r4, r5, r6, r7, lr}
200002e6:	46d6      	mov	lr, sl
200002e8:	464f      	mov	r7, r9
200002ea:	4646      	mov	r6, r8
200002ec:	b5c0      	push	{r6, r7, lr}
200002ee:	0007      	movs	r7, r0
200002f0:	000e      	movs	r6, r1
200002f2:	0015      	movs	r5, r2
200002f4:	2318      	movs	r3, #24
200002f6:	469a      	mov	sl, r3
200002f8:	881b      	ldrh	r3, [r3, #0]
200002fa:	2214      	movs	r2, #20
200002fc:	4690      	mov	r8, r2
200002fe:	8810      	ldrh	r0, [r2, #0]
20000300:	4928      	ldr	r1, [pc, #160]	; (200003a4 <flash_do_cmd+0xc0>)
20000302:	4798      	blx	r3
20000304:	4681      	mov	r9, r0
20000306:	4653      	mov	r3, sl
20000308:	881b      	ldrh	r3, [r3, #0]
2000030a:	4642      	mov	r2, r8
2000030c:	8810      	ldrh	r0, [r2, #0]
2000030e:	4926      	ldr	r1, [pc, #152]	; (200003a8 <flash_do_cmd+0xc4>)
20000310:	4798      	blx	r3
20000312:	0004      	movs	r4, r0
20000314:	4653      	mov	r3, sl
20000316:	881b      	ldrh	r3, [r3, #0]
20000318:	4642      	mov	r2, r8
2000031a:	8810      	ldrh	r0, [r2, #0]
2000031c:	4923      	ldr	r1, [pc, #140]	; (200003ac <flash_do_cmd+0xc8>)
2000031e:	4798      	blx	r3
20000320:	4680      	mov	r8, r0
20000322:	464b      	mov	r3, r9
20000324:	2b00      	cmp	r3, #0
20000326:	d00c      	beq.n	20000342 <flash_do_cmd+0x5e>
20000328:	2c00      	cmp	r4, #0
2000032a:	d00a      	beq.n	20000342 <flash_do_cmd+0x5e>
2000032c:	2800      	cmp	r0, #0
2000032e:	d008      	beq.n	20000342 <flash_do_cmd+0x5e>
20000330:	f7ff ffa4 	bl	2000027c <flash_init_boot2_copyout>
20000334:	47c8      	blx	r9
20000336:	47a0      	blx	r4
20000338:	2000      	movs	r0, #0
2000033a:	f7ff ffbf 	bl	200002bc <flash_cs_force>
2000033e:	002a      	movs	r2, r5
20000340:	e00f      	b.n	20000362 <flash_do_cmd+0x7e>
20000342:	4b1b      	ldr	r3, [pc, #108]	; (200003b0 <flash_do_cmd+0xcc>)
20000344:	4a1b      	ldr	r2, [pc, #108]	; (200003b4 <flash_do_cmd+0xd0>)
20000346:	2180      	movs	r1, #128	; 0x80
20000348:	481b      	ldr	r0, [pc, #108]	; (200003b8 <flash_do_cmd+0xd4>)
2000034a:	f000 fc09 	bl	20000b60 <____assert_func_veneer>
2000034e:	2b00      	cmp	r3, #0
20000350:	d007      	beq.n	20000362 <flash_do_cmd+0x7e>
20000352:	2a00      	cmp	r2, #0
20000354:	d005      	beq.n	20000362 <flash_do_cmd+0x7e>
20000356:	23c0      	movs	r3, #192	; 0xc0
20000358:	055b      	lsls	r3, r3, #21
2000035a:	6e1b      	ldr	r3, [r3, #96]	; 0x60
2000035c:	7033      	strb	r3, [r6, #0]
2000035e:	3a01      	subs	r2, #1
20000360:	3601      	adds	r6, #1
20000362:	002b      	movs	r3, r5
20000364:	4313      	orrs	r3, r2
20000366:	d012      	beq.n	2000038e <flash_do_cmd+0xaa>
20000368:	23c0      	movs	r3, #192	; 0xc0
2000036a:	055b      	lsls	r3, r3, #21
2000036c:	6a9c      	ldr	r4, [r3, #40]	; 0x28
2000036e:	2308      	movs	r3, #8
20000370:	4023      	ands	r3, r4
20000372:	07a1      	lsls	r1, r4, #30
20000374:	d5eb      	bpl.n	2000034e <flash_do_cmd+0x6a>
20000376:	2d00      	cmp	r5, #0
20000378:	d0e9      	beq.n	2000034e <flash_do_cmd+0x6a>
2000037a:	1b51      	subs	r1, r2, r5
2000037c:	290d      	cmp	r1, #13
2000037e:	d8e6      	bhi.n	2000034e <flash_do_cmd+0x6a>
20000380:	7838      	ldrb	r0, [r7, #0]
20000382:	21c0      	movs	r1, #192	; 0xc0
20000384:	0549      	lsls	r1, r1, #21
20000386:	6608      	str	r0, [r1, #96]	; 0x60
20000388:	3d01      	subs	r5, #1
2000038a:	3701      	adds	r7, #1
2000038c:	e7df      	b.n	2000034e <flash_do_cmd+0x6a>
2000038e:	2001      	movs	r0, #1
20000390:	f7ff ff94 	bl	200002bc <flash_cs_force>
20000394:	47c0      	blx	r8
20000396:	f7ff ff89 	bl	200002ac <flash_enable_xip_via_boot2>
2000039a:	bce0      	pop	{r5, r6, r7}
2000039c:	46ba      	mov	sl, r7
2000039e:	46b1      	mov	r9, r6
200003a0:	46a8      	mov	r8, r5
200003a2:	bdf0      	pop	{r4, r5, r6, r7, pc}
200003a4:	00004649 	.word	0x00004649
200003a8:	00005845 	.word	0x00005845
200003ac:	00004346 	.word	0x00004346
200003b0:	10007fb8 	.word	0x10007fb8
200003b4:	10007ff8 	.word	0x10007ff8
200003b8:	10007eac 	.word	0x10007eac

200003bc <reset_non_control_endpoints>:
200003bc:	b510      	push	{r4, lr}
200003be:	2300      	movs	r3, #0
200003c0:	e008      	b.n	200003d4 <reset_non_control_endpoints+0x18>
200003c2:	3301      	adds	r3, #1
200003c4:	00da      	lsls	r2, r3, #3
200003c6:	2100      	movs	r1, #0
200003c8:	4808      	ldr	r0, [pc, #32]	; (200003ec <reset_non_control_endpoints+0x30>)
200003ca:	5011      	str	r1, [r2, r0]
200003cc:	4684      	mov	ip, r0
200003ce:	4462      	add	r2, ip
200003d0:	6051      	str	r1, [r2, #4]
200003d2:	b2db      	uxtb	r3, r3
200003d4:	2b0e      	cmp	r3, #14
200003d6:	d9f4      	bls.n	200003c2 <reset_non_control_endpoints+0x6>
200003d8:	22f0      	movs	r2, #240	; 0xf0
200003da:	0092      	lsls	r2, r2, #2
200003dc:	2100      	movs	r1, #0
200003de:	4804      	ldr	r0, [pc, #16]	; (200003f0 <reset_non_control_endpoints+0x34>)
200003e0:	f000 fbd6 	bl	20000b90 <____wrap_memset_veneer>
200003e4:	4b03      	ldr	r3, [pc, #12]	; (200003f4 <reset_non_control_endpoints+0x38>)
200003e6:	4a04      	ldr	r2, [pc, #16]	; (200003f8 <reset_non_control_endpoints+0x3c>)
200003e8:	601a      	str	r2, [r3, #0]
200003ea:	bd10      	pop	{r4, pc}
200003ec:	50100000 	.word	0x50100000
200003f0:	2000142c 	.word	0x2000142c
200003f4:	200017f0 	.word	0x200017f0
200003f8:	50100180 	.word	0x50100180

200003fc <hw_handle_buff_status>:
200003fc:	b5f0      	push	{r4, r5, r6, r7, lr}
200003fe:	46ce      	mov	lr, r9
20000400:	4647      	mov	r7, r8
20000402:	b580      	push	{r7, lr}
20000404:	b085      	sub	sp, #20
20000406:	4b23      	ldr	r3, [pc, #140]	; (20000494 <hw_handle_buff_status+0x98>)
20000408:	6d9f      	ldr	r7, [r3, #88]	; 0x58
2000040a:	2400      	movs	r4, #0
2000040c:	2601      	movs	r6, #1
2000040e:	e003      	b.n	20000418 <hw_handle_buff_status+0x1c>
20000410:	43b7      	bics	r7, r6
20000412:	0076      	lsls	r6, r6, #1
20000414:	3401      	adds	r4, #1
20000416:	b2e4      	uxtb	r4, r4
20000418:	2f00      	cmp	r7, #0
2000041a:	d036      	beq.n	2000048a <hw_handle_buff_status+0x8e>
2000041c:	2c1f      	cmp	r4, #31
2000041e:	d834      	bhi.n	2000048a <hw_handle_buff_status+0x8e>
20000420:	423e      	tst	r6, r7
20000422:	d0f6      	beq.n	20000412 <hw_handle_buff_status+0x16>
20000424:	4b1c      	ldr	r3, [pc, #112]	; (20000498 <hw_handle_buff_status+0x9c>)
20000426:	659e      	str	r6, [r3, #88]	; 0x58
20000428:	0863      	lsrs	r3, r4, #1
2000042a:	4699      	mov	r9, r3
2000042c:	2301      	movs	r3, #1
2000042e:	4063      	eors	r3, r4
20000430:	2201      	movs	r2, #1
20000432:	401a      	ands	r2, r3
20000434:	4690      	mov	r8, r2
20000436:	464b      	mov	r3, r9
20000438:	005d      	lsls	r5, r3, #1
2000043a:	4445      	add	r5, r8
2000043c:	016d      	lsls	r5, r5, #5
2000043e:	4b17      	ldr	r3, [pc, #92]	; (2000049c <hw_handle_buff_status+0xa0>)
20000440:	18ed      	adds	r5, r5, r3
20000442:	0028      	movs	r0, r5
20000444:	f000 fa42 	bl	200008cc <hw_endpoint_xfer_continue>
20000448:	2800      	cmp	r0, #0
2000044a:	d0e1      	beq.n	20000410 <hw_handle_buff_status+0x14>
2000044c:	464b      	mov	r3, r9
2000044e:	005b      	lsls	r3, r3, #1
20000450:	4443      	add	r3, r8
20000452:	015b      	lsls	r3, r3, #5
20000454:	4a11      	ldr	r2, [pc, #68]	; (2000049c <hw_handle_buff_status+0xa0>)
20000456:	18d3      	adds	r3, r2, r3
20000458:	789a      	ldrb	r2, [r3, #2]
2000045a:	4691      	mov	r9, r2
2000045c:	8adb      	ldrh	r3, [r3, #22]
2000045e:	4698      	mov	r8, r3
20000460:	220c      	movs	r2, #12
20000462:	2100      	movs	r1, #0
20000464:	a801      	add	r0, sp, #4
20000466:	f000 fb93 	bl	20000b90 <____wrap_memset_veneer>
2000046a:	2307      	movs	r3, #7
2000046c:	466a      	mov	r2, sp
2000046e:	7153      	strb	r3, [r2, #5]
20000470:	466b      	mov	r3, sp
20000472:	464a      	mov	r2, r9
20000474:	721a      	strb	r2, [r3, #8]
20000476:	4643      	mov	r3, r8
20000478:	9303      	str	r3, [sp, #12]
2000047a:	2101      	movs	r1, #1
2000047c:	a801      	add	r0, sp, #4
2000047e:	f000 fa4d 	bl	2000091c <dcd_event_handler>
20000482:	0028      	movs	r0, r5
20000484:	f000 f9ac 	bl	200007e0 <hw_endpoint_reset_transfer>
20000488:	e7c2      	b.n	20000410 <hw_handle_buff_status+0x14>
2000048a:	b005      	add	sp, #20
2000048c:	bcc0      	pop	{r6, r7}
2000048e:	46b9      	mov	r9, r7
20000490:	46b0      	mov	r8, r6
20000492:	bdf0      	pop	{r4, r5, r6, r7, pc}
20000494:	50110000 	.word	0x50110000
20000498:	50113000 	.word	0x50113000
2000049c:	200013ec 	.word	0x200013ec

200004a0 <dcd_rp2040_irq>:
200004a0:	b5f0      	push	{r4, r5, r6, r7, lr}
200004a2:	b085      	sub	sp, #20
200004a4:	4a68      	ldr	r2, [pc, #416]	; (20000648 <dcd_rp2040_irq+0x1a8>)
200004a6:	2398      	movs	r3, #152	; 0x98
200004a8:	58d5      	ldr	r5, [r2, r3]
200004aa:	2380      	movs	r3, #128	; 0x80
200004ac:	029b      	lsls	r3, r3, #10
200004ae:	002c      	movs	r4, r5
200004b0:	401c      	ands	r4, r3
200004b2:	421d      	tst	r5, r3
200004b4:	d04a      	beq.n	2000054c <dcd_rp2040_irq+0xac>
200004b6:	4b65      	ldr	r3, [pc, #404]	; (2000064c <dcd_rp2040_irq+0x1ac>)
200004b8:	6a9a      	ldr	r2, [r3, #40]	; 0x28
200004ba:	4b65      	ldr	r3, [pc, #404]	; (20000650 <dcd_rp2040_irq+0x1b0>)
200004bc:	601a      	str	r2, [r3, #0]
200004be:	2400      	movs	r4, #0
200004c0:	2600      	movs	r6, #0
200004c2:	e009      	b.n	200004d8 <dcd_rp2040_irq+0x38>
200004c4:	4b63      	ldr	r3, [pc, #396]	; (20000654 <dcd_rp2040_irq+0x1b4>)
200004c6:	1899      	adds	r1, r3, r2
200004c8:	313c      	adds	r1, #60	; 0x3c
200004ca:	2300      	movs	r3, #0
200004cc:	700b      	strb	r3, [r1, #0]
200004ce:	f000 f9b9 	bl	20000844 <hw_endpoint_start_next_buffer>
200004d2:	003e      	movs	r6, r7
200004d4:	3401      	adds	r4, #1
200004d6:	b2e4      	uxtb	r4, r4
200004d8:	2c0f      	cmp	r4, #15
200004da:	d817      	bhi.n	2000050c <dcd_rp2040_irq+0x6c>
200004dc:	01a2      	lsls	r2, r4, #6
200004de:	0010      	movs	r0, r2
200004e0:	3020      	adds	r0, #32
200004e2:	4b5c      	ldr	r3, [pc, #368]	; (20000654 <dcd_rp2040_irq+0x1b4>)
200004e4:	18c0      	adds	r0, r0, r3
200004e6:	189b      	adds	r3, r3, r2
200004e8:	333b      	adds	r3, #59	; 0x3b
200004ea:	781b      	ldrb	r3, [r3, #0]
200004ec:	2b02      	cmp	r3, #2
200004ee:	d1f1      	bne.n	200004d4 <dcd_rp2040_irq+0x34>
200004f0:	4b58      	ldr	r3, [pc, #352]	; (20000654 <dcd_rp2040_irq+0x1b4>)
200004f2:	189b      	adds	r3, r3, r2
200004f4:	333a      	adds	r3, #58	; 0x3a
200004f6:	781f      	ldrb	r7, [r3, #0]
200004f8:	2f00      	cmp	r7, #0
200004fa:	d0eb      	beq.n	200004d4 <dcd_rp2040_irq+0x34>
200004fc:	4b55      	ldr	r3, [pc, #340]	; (20000654 <dcd_rp2040_irq+0x1b4>)
200004fe:	189b      	adds	r3, r3, r2
20000500:	333c      	adds	r3, #60	; 0x3c
20000502:	781b      	ldrb	r3, [r3, #0]
20000504:	2b00      	cmp	r3, #0
20000506:	d1dd      	bne.n	200004c4 <dcd_rp2040_irq+0x24>
20000508:	003e      	movs	r6, r7
2000050a:	e7e3      	b.n	200004d4 <dcd_rp2040_irq+0x34>
2000050c:	2e00      	cmp	r6, #0
2000050e:	d108      	bne.n	20000522 <dcd_rp2040_irq+0x82>
20000510:	4b51      	ldr	r3, [pc, #324]	; (20000658 <dcd_rp2040_irq+0x1b8>)
20000512:	781b      	ldrb	r3, [r3, #0]
20000514:	2b00      	cmp	r3, #0
20000516:	d104      	bne.n	20000522 <dcd_rp2040_irq+0x82>
20000518:	4a50      	ldr	r2, [pc, #320]	; (2000065c <dcd_rp2040_irq+0x1bc>)
2000051a:	3390      	adds	r3, #144	; 0x90
2000051c:	2180      	movs	r1, #128	; 0x80
2000051e:	0289      	lsls	r1, r1, #10
20000520:	50d1      	str	r1, [r2, r3]
20000522:	4b49      	ldr	r3, [pc, #292]	; (20000648 <dcd_rp2040_irq+0x1a8>)
20000524:	6c9c      	ldr	r4, [r3, #72]	; 0x48
20000526:	0564      	lsls	r4, r4, #21
20000528:	0d64      	lsrs	r4, r4, #21
2000052a:	220c      	movs	r2, #12
2000052c:	2100      	movs	r1, #0
2000052e:	a801      	add	r0, sp, #4
20000530:	f000 fb2e 	bl	20000b90 <____wrap_memset_veneer>
20000534:	2300      	movs	r3, #0
20000536:	466a      	mov	r2, sp
20000538:	7113      	strb	r3, [r2, #4]
2000053a:	3303      	adds	r3, #3
2000053c:	7153      	strb	r3, [r2, #5]
2000053e:	9402      	str	r4, [sp, #8]
20000540:	2101      	movs	r1, #1
20000542:	a801      	add	r0, sp, #4
20000544:	f000 f9ea 	bl	2000091c <dcd_event_handler>
20000548:	2480      	movs	r4, #128	; 0x80
2000054a:	02a4      	lsls	r4, r4, #10
2000054c:	06eb      	lsls	r3, r5, #27
2000054e:	d409      	bmi.n	20000564 <dcd_rp2040_irq+0xc4>
20000550:	03eb      	lsls	r3, r5, #15
20000552:	d529      	bpl.n	200005a8 <dcd_rp2040_irq+0x108>
20000554:	2380      	movs	r3, #128	; 0x80
20000556:	025b      	lsls	r3, r3, #9
20000558:	431c      	orrs	r4, r3
2000055a:	ab01      	add	r3, sp, #4
2000055c:	4a40      	ldr	r2, [pc, #256]	; (20000660 <dcd_rp2040_irq+0x1c0>)
2000055e:	801a      	strh	r2, [r3, #0]
20000560:	2600      	movs	r6, #0
20000562:	e00b      	b.n	2000057c <dcd_rp2040_irq+0xdc>
20000564:	2310      	movs	r3, #16
20000566:	431c      	orrs	r4, r3
20000568:	f7ff ff48 	bl	200003fc <hw_handle_buff_status>
2000056c:	e7f0      	b.n	20000550 <dcd_rp2040_irq+0xb0>
2000056e:	ab01      	add	r3, sp, #4
20000570:	5d98      	ldrb	r0, [r3, r6]
20000572:	f000 fb15 	bl	20000ba0 <__hw_endpoint_get_by_addr_veneer>
20000576:	2301      	movs	r3, #1
20000578:	70c3      	strb	r3, [r0, #3]
2000057a:	3601      	adds	r6, #1
2000057c:	2e01      	cmp	r6, #1
2000057e:	d9f6      	bls.n	2000056e <dcd_rp2040_irq+0xce>
20000580:	ae01      	add	r6, sp, #4
20000582:	220c      	movs	r2, #12
20000584:	2100      	movs	r1, #0
20000586:	0030      	movs	r0, r6
20000588:	f000 fb02 	bl	20000b90 <____wrap_memset_veneer>
2000058c:	2306      	movs	r3, #6
2000058e:	7073      	strb	r3, [r6, #1]
20000590:	4a34      	ldr	r2, [pc, #208]	; (20000664 <dcd_rp2040_irq+0x1c4>)
20000592:	ab02      	add	r3, sp, #8
20000594:	ca03      	ldmia	r2!, {r0, r1}
20000596:	c303      	stmia	r3!, {r0, r1}
20000598:	2101      	movs	r1, #1
2000059a:	0030      	movs	r0, r6
2000059c:	f000 f9be 	bl	2000091c <dcd_event_handler>
200005a0:	4b2e      	ldr	r3, [pc, #184]	; (2000065c <dcd_rp2040_irq+0x1bc>)
200005a2:	2280      	movs	r2, #128	; 0x80
200005a4:	0292      	lsls	r2, r2, #10
200005a6:	651a      	str	r2, [r3, #80]	; 0x50
200005a8:	04eb      	lsls	r3, r5, #19
200005aa:	d407      	bmi.n	200005bc <dcd_rp2040_irq+0x11c>
200005ac:	046b      	lsls	r3, r5, #17
200005ae:	d41e      	bmi.n	200005ee <dcd_rp2040_irq+0x14e>
200005b0:	042b      	lsls	r3, r5, #16
200005b2:	d42f      	bmi.n	20000614 <dcd_rp2040_irq+0x174>
200005b4:	42ac      	cmp	r4, r5
200005b6:	d141      	bne.n	2000063c <dcd_rp2040_irq+0x19c>
200005b8:	b005      	add	sp, #20
200005ba:	bdf0      	pop	{r4, r5, r6, r7, pc}
200005bc:	2380      	movs	r3, #128	; 0x80
200005be:	015b      	lsls	r3, r3, #5
200005c0:	431c      	orrs	r4, r3
200005c2:	4b21      	ldr	r3, [pc, #132]	; (20000648 <dcd_rp2040_irq+0x1a8>)
200005c4:	2200      	movs	r2, #0
200005c6:	601a      	str	r2, [r3, #0]
200005c8:	f7ff fef8 	bl	200003bc <reset_non_control_endpoints>
200005cc:	ae01      	add	r6, sp, #4
200005ce:	220c      	movs	r2, #12
200005d0:	2100      	movs	r1, #0
200005d2:	0030      	movs	r0, r6
200005d4:	f000 fadc 	bl	20000b90 <____wrap_memset_veneer>
200005d8:	2301      	movs	r3, #1
200005da:	7073      	strb	r3, [r6, #1]
200005dc:	2101      	movs	r1, #1
200005de:	0030      	movs	r0, r6
200005e0:	f000 f99c 	bl	2000091c <dcd_event_handler>
200005e4:	4b1d      	ldr	r3, [pc, #116]	; (2000065c <dcd_rp2040_irq+0x1bc>)
200005e6:	2280      	movs	r2, #128	; 0x80
200005e8:	0312      	lsls	r2, r2, #12
200005ea:	651a      	str	r2, [r3, #80]	; 0x50
200005ec:	e7de      	b.n	200005ac <dcd_rp2040_irq+0x10c>
200005ee:	2380      	movs	r3, #128	; 0x80
200005f0:	01db      	lsls	r3, r3, #7
200005f2:	431c      	orrs	r4, r3
200005f4:	ae01      	add	r6, sp, #4
200005f6:	220c      	movs	r2, #12
200005f8:	2100      	movs	r1, #0
200005fa:	0030      	movs	r0, r6
200005fc:	f000 fac8 	bl	20000b90 <____wrap_memset_veneer>
20000600:	2304      	movs	r3, #4
20000602:	7073      	strb	r3, [r6, #1]
20000604:	2101      	movs	r1, #1
20000606:	0030      	movs	r0, r6
20000608:	f000 f988 	bl	2000091c <dcd_event_handler>
2000060c:	4b13      	ldr	r3, [pc, #76]	; (2000065c <dcd_rp2040_irq+0x1bc>)
2000060e:	2210      	movs	r2, #16
20000610:	651a      	str	r2, [r3, #80]	; 0x50
20000612:	e7cd      	b.n	200005b0 <dcd_rp2040_irq+0x110>
20000614:	2380      	movs	r3, #128	; 0x80
20000616:	021b      	lsls	r3, r3, #8
20000618:	431c      	orrs	r4, r3
2000061a:	ae01      	add	r6, sp, #4
2000061c:	220c      	movs	r2, #12
2000061e:	2100      	movs	r1, #0
20000620:	0030      	movs	r0, r6
20000622:	f000 fab5 	bl	20000b90 <____wrap_memset_veneer>
20000626:	2305      	movs	r3, #5
20000628:	7073      	strb	r3, [r6, #1]
2000062a:	2101      	movs	r1, #1
2000062c:	0030      	movs	r0, r6
2000062e:	f000 f975 	bl	2000091c <dcd_event_handler>
20000632:	4b0a      	ldr	r3, [pc, #40]	; (2000065c <dcd_rp2040_irq+0x1bc>)
20000634:	2280      	movs	r2, #128	; 0x80
20000636:	0112      	lsls	r2, r2, #4
20000638:	651a      	str	r2, [r3, #80]	; 0x50
2000063a:	e7bb      	b.n	200005b4 <dcd_rp2040_irq+0x114>
2000063c:	0021      	movs	r1, r4
2000063e:	4069      	eors	r1, r5
20000640:	4809      	ldr	r0, [pc, #36]	; (20000668 <dcd_rp2040_irq+0x1c8>)
20000642:	f000 fa9d 	bl	20000b80 <__panic_veneer>
20000646:	46c0      	nop			; (mov r8, r8)
20000648:	50110000 	.word	0x50110000
2000064c:	40054000 	.word	0x40054000
20000650:	200013dc 	.word	0x200013dc
20000654:	200013ec 	.word	0x200013ec
20000658:	20001a4e 	.word	0x20001a4e
2000065c:	50113000 	.word	0x50113000
20000660:	ffff8000 	.word	0xffff8000
20000664:	50100000 	.word	0x50100000
20000668:	100080dc 	.word	0x100080dc

2000066c <e15_is_bulkin_ep>:
2000066c:	4b09      	ldr	r3, [pc, #36]	; (20000694 <e15_is_bulkin_ep+0x28>)
2000066e:	6c1b      	ldr	r3, [r3, #64]	; 0x40
20000670:	079b      	lsls	r3, r3, #30
20000672:	d40c      	bmi.n	2000068e <e15_is_bulkin_ep+0x22>
20000674:	7883      	ldrb	r3, [r0, #2]
20000676:	09db      	lsrs	r3, r3, #7
20000678:	2b01      	cmp	r3, #1
2000067a:	d001      	beq.n	20000680 <e15_is_bulkin_ep+0x14>
2000067c:	2000      	movs	r0, #0
2000067e:	e007      	b.n	20000690 <e15_is_bulkin_ep+0x24>
20000680:	7ec3      	ldrb	r3, [r0, #27]
20000682:	2b02      	cmp	r3, #2
20000684:	d001      	beq.n	2000068a <e15_is_bulkin_ep+0x1e>
20000686:	2000      	movs	r0, #0
20000688:	e002      	b.n	20000690 <e15_is_bulkin_ep+0x24>
2000068a:	2001      	movs	r0, #1
2000068c:	e000      	b.n	20000690 <e15_is_bulkin_ep+0x24>
2000068e:	2000      	movs	r0, #0
20000690:	4770      	bx	lr
20000692:	46c0      	nop			; (mov r8, r8)
20000694:	50110000 	.word	0x50110000

20000698 <e15_is_critical_frame_period>:
20000698:	b510      	push	{r4, lr}
2000069a:	f7ff ffe7 	bl	2000066c <e15_is_bulkin_ep>
2000069e:	2800      	cmp	r0, #0
200006a0:	d009      	beq.n	200006b6 <e15_is_critical_frame_period+0x1e>
200006a2:	4b06      	ldr	r3, [pc, #24]	; (200006bc <e15_is_critical_frame_period+0x24>)
200006a4:	6a9b      	ldr	r3, [r3, #40]	; 0x28
200006a6:	4a06      	ldr	r2, [pc, #24]	; (200006c0 <e15_is_critical_frame_period+0x28>)
200006a8:	6812      	ldr	r2, [r2, #0]
200006aa:	1a9b      	subs	r3, r3, r2
200006ac:	4a05      	ldr	r2, [pc, #20]	; (200006c4 <e15_is_critical_frame_period+0x2c>)
200006ae:	4694      	mov	ip, r2
200006b0:	4463      	add	r3, ip
200006b2:	2bc6      	cmp	r3, #198	; 0xc6
200006b4:	d800      	bhi.n	200006b8 <e15_is_critical_frame_period+0x20>
200006b6:	bd10      	pop	{r4, pc}
200006b8:	2000      	movs	r0, #0
200006ba:	e7fc      	b.n	200006b6 <e15_is_critical_frame_period+0x1e>
200006bc:	40054000 	.word	0x40054000
200006c0:	200013dc 	.word	0x200013dc
200006c4:	fffffce0 	.word	0xfffffce0

200006c8 <prepare_ep_buffer>:
200006c8:	b5f8      	push	{r3, r4, r5, r6, r7, lr}
200006ca:	0004      	movs	r4, r0
200006cc:	000f      	movs	r7, r1
200006ce:	8a83      	ldrh	r3, [r0, #20]
200006d0:	8b02      	ldrh	r2, [r0, #24]
200006d2:	1c1e      	adds	r6, r3, #0
200006d4:	4293      	cmp	r3, r2
200006d6:	d900      	bls.n	200006da <prepare_ep_buffer+0x12>
200006d8:	1c16      	adds	r6, r2, #0
200006da:	b2b6      	uxth	r6, r6
200006dc:	1b9b      	subs	r3, r3, r6
200006de:	82a3      	strh	r3, [r4, #20]
200006e0:	2580      	movs	r5, #128	; 0x80
200006e2:	00ed      	lsls	r5, r5, #3
200006e4:	4335      	orrs	r5, r6
200006e6:	78e3      	ldrb	r3, [r4, #3]
200006e8:	2b00      	cmp	r3, #0
200006ea:	d013      	beq.n	20000714 <prepare_ep_buffer+0x4c>
200006ec:	2280      	movs	r2, #128	; 0x80
200006ee:	0192      	lsls	r2, r2, #6
200006f0:	4315      	orrs	r5, r2
200006f2:	2201      	movs	r2, #1
200006f4:	4053      	eors	r3, r2
200006f6:	70e3      	strb	r3, [r4, #3]
200006f8:	7863      	ldrb	r3, [r4, #1]
200006fa:	2b00      	cmp	r3, #0
200006fc:	d00c      	beq.n	20000718 <prepare_ep_buffer+0x50>
200006fe:	8aa3      	ldrh	r3, [r4, #20]
20000700:	2b00      	cmp	r3, #0
20000702:	d102      	bne.n	2000070a <prepare_ep_buffer+0x42>
20000704:	2380      	movs	r3, #128	; 0x80
20000706:	01db      	lsls	r3, r3, #7
20000708:	431d      	orrs	r5, r3
2000070a:	2f00      	cmp	r7, #0
2000070c:	d000      	beq.n	20000710 <prepare_ep_buffer+0x48>
2000070e:	042d      	lsls	r5, r5, #16
20000710:	0028      	movs	r0, r5
20000712:	bdf8      	pop	{r3, r4, r5, r6, r7, pc}
20000714:	2200      	movs	r2, #0
20000716:	e7eb      	b.n	200006f0 <prepare_ep_buffer+0x28>
20000718:	01b8      	lsls	r0, r7, #6
2000071a:	68e3      	ldr	r3, [r4, #12]
2000071c:	469c      	mov	ip, r3
2000071e:	4460      	add	r0, ip
20000720:	0032      	movs	r2, r6
20000722:	6921      	ldr	r1, [r4, #16]
20000724:	f000 fa04 	bl	20000b30 <____wrap_memcpy_veneer>
20000728:	6923      	ldr	r3, [r4, #16]
2000072a:	469c      	mov	ip, r3
2000072c:	4466      	add	r6, ip
2000072e:	6126      	str	r6, [r4, #16]
20000730:	2380      	movs	r3, #128	; 0x80
20000732:	021b      	lsls	r3, r3, #8
20000734:	431d      	orrs	r5, r3
20000736:	e7e2      	b.n	200006fe <prepare_ep_buffer+0x36>

20000738 <sync_ep_buffer>:
20000738:	b570      	push	{r4, r5, r6, lr}
2000073a:	0004      	movs	r4, r0
2000073c:	6883      	ldr	r3, [r0, #8]
2000073e:	681b      	ldr	r3, [r3, #0]
20000740:	2900      	cmp	r1, #0
20000742:	d000      	beq.n	20000746 <sync_ep_buffer+0xe>
20000744:	0c1b      	lsrs	r3, r3, #16
20000746:	059d      	lsls	r5, r3, #22
20000748:	0dad      	lsrs	r5, r5, #22
2000074a:	7862      	ldrb	r2, [r4, #1]
2000074c:	2a00      	cmp	r2, #0
2000074e:	d112      	bne.n	20000776 <sync_ep_buffer+0x3e>
20000750:	041b      	lsls	r3, r3, #16
20000752:	d409      	bmi.n	20000768 <sync_ep_buffer+0x30>
20000754:	8ae3      	ldrh	r3, [r4, #22]
20000756:	195b      	adds	r3, r3, r5
20000758:	82e3      	strh	r3, [r4, #22]
2000075a:	8b23      	ldrh	r3, [r4, #24]
2000075c:	42ab      	cmp	r3, r5
2000075e:	d901      	bls.n	20000764 <sync_ep_buffer+0x2c>
20000760:	2300      	movs	r3, #0
20000762:	82a3      	strh	r3, [r4, #20]
20000764:	0028      	movs	r0, r5
20000766:	bd70      	pop	{r4, r5, r6, pc}
20000768:	2181      	movs	r1, #129	; 0x81
2000076a:	4b0f      	ldr	r3, [pc, #60]	; (200007a8 <sync_ep_buffer+0x70>)
2000076c:	4a0f      	ldr	r2, [pc, #60]	; (200007ac <sync_ep_buffer+0x74>)
2000076e:	0049      	lsls	r1, r1, #1
20000770:	480f      	ldr	r0, [pc, #60]	; (200007b0 <sync_ep_buffer+0x78>)
20000772:	f000 f9f5 	bl	20000b60 <____assert_func_veneer>
20000776:	041b      	lsls	r3, r3, #16
20000778:	d50e      	bpl.n	20000798 <sync_ep_buffer+0x60>
2000077a:	0189      	lsls	r1, r1, #6
2000077c:	68e3      	ldr	r3, [r4, #12]
2000077e:	469c      	mov	ip, r3
20000780:	4461      	add	r1, ip
20000782:	002a      	movs	r2, r5
20000784:	6920      	ldr	r0, [r4, #16]
20000786:	f000 f9d3 	bl	20000b30 <____wrap_memcpy_veneer>
2000078a:	8ae3      	ldrh	r3, [r4, #22]
2000078c:	195b      	adds	r3, r3, r5
2000078e:	82e3      	strh	r3, [r4, #22]
20000790:	6923      	ldr	r3, [r4, #16]
20000792:	195b      	adds	r3, r3, r5
20000794:	6123      	str	r3, [r4, #16]
20000796:	e7e0      	b.n	2000075a <sync_ep_buffer+0x22>
20000798:	210a      	movs	r1, #10
2000079a:	4b06      	ldr	r3, [pc, #24]	; (200007b4 <sync_ep_buffer+0x7c>)
2000079c:	4a03      	ldr	r2, [pc, #12]	; (200007ac <sync_ep_buffer+0x74>)
2000079e:	31ff      	adds	r1, #255	; 0xff
200007a0:	4803      	ldr	r0, [pc, #12]	; (200007b0 <sync_ep_buffer+0x78>)
200007a2:	f000 f9dd 	bl	20000b60 <____assert_func_veneer>
200007a6:	46c0      	nop			; (mov r8, r8)
200007a8:	1000815c 	.word	0x1000815c
200007ac:	10008260 	.word	0x10008260
200007b0:	1000817c 	.word	0x1000817c
200007b4:	100081ec 	.word	0x100081ec

200007b8 <_hw_endpoint_xfer_sync>:
200007b8:	b510      	push	{r4, lr}
200007ba:	0004      	movs	r4, r0
200007bc:	6883      	ldr	r3, [r0, #8]
200007be:	681b      	ldr	r3, [r3, #0]
200007c0:	2100      	movs	r1, #0
200007c2:	f7ff ffb9 	bl	20000738 <sync_ep_buffer>
200007c6:	6863      	ldr	r3, [r4, #4]
200007c8:	681b      	ldr	r3, [r3, #0]
200007ca:	005b      	lsls	r3, r3, #1
200007cc:	d502      	bpl.n	200007d4 <_hw_endpoint_xfer_sync+0x1c>
200007ce:	8b23      	ldrh	r3, [r4, #24]
200007d0:	4283      	cmp	r3, r0
200007d2:	d000      	beq.n	200007d6 <_hw_endpoint_xfer_sync+0x1e>
200007d4:	bd10      	pop	{r4, pc}
200007d6:	2101      	movs	r1, #1
200007d8:	0020      	movs	r0, r4
200007da:	f7ff ffad 	bl	20000738 <sync_ep_buffer>
200007de:	e7f9      	b.n	200007d4 <_hw_endpoint_xfer_sync+0x1c>

200007e0 <hw_endpoint_reset_transfer>:
200007e0:	2300      	movs	r3, #0
200007e2:	7683      	strb	r3, [r0, #26]
200007e4:	8283      	strh	r3, [r0, #20]
200007e6:	82c3      	strh	r3, [r0, #22]
200007e8:	6103      	str	r3, [r0, #16]
200007ea:	4770      	bx	lr

200007ec <_hw_endpoint_buffer_control_update32>:
200007ec:	b510      	push	{r4, lr}
200007ee:	2900      	cmp	r1, #0
200007f0:	d002      	beq.n	200007f8 <_hw_endpoint_buffer_control_update32+0xc>
200007f2:	6883      	ldr	r3, [r0, #8]
200007f4:	681b      	ldr	r3, [r3, #0]
200007f6:	4019      	ands	r1, r3
200007f8:	2a00      	cmp	r2, #0
200007fa:	d00f      	beq.n	2000081c <_hw_endpoint_buffer_control_update32+0x30>
200007fc:	4311      	orrs	r1, r2
200007fe:	0553      	lsls	r3, r2, #21
20000800:	d50c      	bpl.n	2000081c <_hw_endpoint_buffer_control_update32+0x30>
20000802:	6882      	ldr	r2, [r0, #8]
20000804:	6813      	ldr	r3, [r2, #0]
20000806:	055b      	lsls	r3, r3, #21
20000808:	d40b      	bmi.n	20000822 <_hw_endpoint_buffer_control_update32+0x36>
2000080a:	4b0b      	ldr	r3, [pc, #44]	; (20000838 <_hw_endpoint_buffer_control_update32+0x4c>)
2000080c:	400b      	ands	r3, r1
2000080e:	6013      	str	r3, [r2, #0]
20000810:	e7ff      	b.n	20000812 <_hw_endpoint_buffer_control_update32+0x26>
20000812:	e7ff      	b.n	20000814 <_hw_endpoint_buffer_control_update32+0x28>
20000814:	e7ff      	b.n	20000816 <_hw_endpoint_buffer_control_update32+0x2a>
20000816:	e7ff      	b.n	20000818 <_hw_endpoint_buffer_control_update32+0x2c>
20000818:	e7ff      	b.n	2000081a <_hw_endpoint_buffer_control_update32+0x2e>
2000081a:	e7ff      	b.n	2000081c <_hw_endpoint_buffer_control_update32+0x30>
2000081c:	6883      	ldr	r3, [r0, #8]
2000081e:	6019      	str	r1, [r3, #0]
20000820:	bd10      	pop	{r4, pc}
20000822:	7883      	ldrb	r3, [r0, #2]
20000824:	217f      	movs	r1, #127	; 0x7f
20000826:	4019      	ands	r1, r3
20000828:	09db      	lsrs	r3, r3, #7
2000082a:	009b      	lsls	r3, r3, #2
2000082c:	4a03      	ldr	r2, [pc, #12]	; (2000083c <_hw_endpoint_buffer_control_update32+0x50>)
2000082e:	589a      	ldr	r2, [r3, r2]
20000830:	4803      	ldr	r0, [pc, #12]	; (20000840 <_hw_endpoint_buffer_control_update32+0x54>)
20000832:	f000 f9a5 	bl	20000b80 <__panic_veneer>
20000836:	46c0      	nop			; (mov r8, r8)
20000838:	fffffbff 	.word	0xfffffbff
2000083c:	20000c68 	.word	0x20000c68
20000840:	1000820c 	.word	0x1000820c

20000844 <hw_endpoint_start_next_buffer>:
20000844:	b570      	push	{r4, r5, r6, lr}
20000846:	0004      	movs	r4, r0
20000848:	6843      	ldr	r3, [r0, #4]
2000084a:	681e      	ldr	r6, [r3, #0]
2000084c:	2100      	movs	r1, #0
2000084e:	f7ff ff3b 	bl	200006c8 <prepare_ep_buffer>
20000852:	2580      	movs	r5, #128	; 0x80
20000854:	016d      	lsls	r5, r5, #5
20000856:	4305      	orrs	r5, r0
20000858:	4b19      	ldr	r3, [pc, #100]	; (200008c0 <hw_endpoint_start_next_buffer+0x7c>)
2000085a:	6c1b      	ldr	r3, [r3, #64]	; 0x40
2000085c:	2202      	movs	r2, #2
2000085e:	0011      	movs	r1, r2
20000860:	4019      	ands	r1, r3
20000862:	421a      	tst	r2, r3
20000864:	d102      	bne.n	2000086c <hw_endpoint_start_next_buffer+0x28>
20000866:	78a3      	ldrb	r3, [r4, #2]
20000868:	09db      	lsrs	r3, r3, #7
2000086a:	d006      	beq.n	2000087a <hw_endpoint_start_next_buffer+0x36>
2000086c:	2900      	cmp	r1, #0
2000086e:	d006      	beq.n	2000087e <hw_endpoint_start_next_buffer+0x3a>
20000870:	78a3      	ldrb	r3, [r4, #2]
20000872:	065b      	lsls	r3, r3, #25
20000874:	d116      	bne.n	200008a4 <hw_endpoint_start_next_buffer+0x60>
20000876:	2300      	movs	r3, #0
20000878:	e002      	b.n	20000880 <hw_endpoint_start_next_buffer+0x3c>
2000087a:	2301      	movs	r3, #1
2000087c:	e000      	b.n	20000880 <hw_endpoint_start_next_buffer+0x3c>
2000087e:	2300      	movs	r3, #0
20000880:	8aa2      	ldrh	r2, [r4, #20]
20000882:	2a00      	cmp	r2, #0
20000884:	d001      	beq.n	2000088a <hw_endpoint_start_next_buffer+0x46>
20000886:	2b00      	cmp	r3, #0
20000888:	d00e      	beq.n	200008a8 <hw_endpoint_start_next_buffer+0x64>
2000088a:	4b0e      	ldr	r3, [pc, #56]	; (200008c4 <hw_endpoint_start_next_buffer+0x80>)
2000088c:	401e      	ands	r6, r3
2000088e:	2380      	movs	r3, #128	; 0x80
20000890:	059b      	lsls	r3, r3, #22
20000892:	4333      	orrs	r3, r6
20000894:	6862      	ldr	r2, [r4, #4]
20000896:	6013      	str	r3, [r2, #0]
20000898:	002a      	movs	r2, r5
2000089a:	2100      	movs	r1, #0
2000089c:	0020      	movs	r0, r4
2000089e:	f7ff ffa5 	bl	200007ec <_hw_endpoint_buffer_control_update32>
200008a2:	bd70      	pop	{r4, r5, r6, pc}
200008a4:	2301      	movs	r3, #1
200008a6:	e7eb      	b.n	20000880 <hw_endpoint_start_next_buffer+0x3c>
200008a8:	2101      	movs	r1, #1
200008aa:	0020      	movs	r0, r4
200008ac:	f7ff ff0c 	bl	200006c8 <prepare_ep_buffer>
200008b0:	4305      	orrs	r5, r0
200008b2:	4b05      	ldr	r3, [pc, #20]	; (200008c8 <hw_endpoint_start_next_buffer+0x84>)
200008b4:	401e      	ands	r6, r3
200008b6:	23a0      	movs	r3, #160	; 0xa0
200008b8:	05db      	lsls	r3, r3, #23
200008ba:	4333      	orrs	r3, r6
200008bc:	e7ea      	b.n	20000894 <hw_endpoint_start_next_buffer+0x50>
200008be:	46c0      	nop			; (mov r8, r8)
200008c0:	50110000 	.word	0x50110000
200008c4:	afffffff 	.word	0xafffffff
200008c8:	dfffffff 	.word	0xdfffffff

200008cc <hw_endpoint_xfer_continue>:
200008cc:	b570      	push	{r4, r5, r6, lr}
200008ce:	0004      	movs	r4, r0
200008d0:	7e85      	ldrb	r5, [r0, #26]
200008d2:	2d00      	cmp	r5, #0
200008d4:	d006      	beq.n	200008e4 <hw_endpoint_xfer_continue+0x18>
200008d6:	f7ff ff6f 	bl	200007b8 <_hw_endpoint_xfer_sync>
200008da:	8aa3      	ldrh	r3, [r4, #20]
200008dc:	2b00      	cmp	r3, #0
200008de:	d10b      	bne.n	200008f8 <hw_endpoint_xfer_continue+0x2c>
200008e0:	0028      	movs	r0, r5
200008e2:	bd70      	pop	{r4, r5, r6, pc}
200008e4:	7883      	ldrb	r3, [r0, #2]
200008e6:	217f      	movs	r1, #127	; 0x7f
200008e8:	4019      	ands	r1, r3
200008ea:	09db      	lsrs	r3, r3, #7
200008ec:	009b      	lsls	r3, r3, #2
200008ee:	4a09      	ldr	r2, [pc, #36]	; (20000914 <hw_endpoint_xfer_continue+0x48>)
200008f0:	589a      	ldr	r2, [r3, r2]
200008f2:	4809      	ldr	r0, [pc, #36]	; (20000918 <hw_endpoint_xfer_continue+0x4c>)
200008f4:	f000 f944 	bl	20000b80 <__panic_veneer>
200008f8:	0020      	movs	r0, r4
200008fa:	f7ff fecd 	bl	20000698 <e15_is_critical_frame_period>
200008fe:	1e05      	subs	r5, r0, #0
20000900:	d003      	beq.n	2000090a <hw_endpoint_xfer_continue+0x3e>
20000902:	2301      	movs	r3, #1
20000904:	7723      	strb	r3, [r4, #28]
20000906:	2500      	movs	r5, #0
20000908:	e7ea      	b.n	200008e0 <hw_endpoint_xfer_continue+0x14>
2000090a:	0020      	movs	r0, r4
2000090c:	f7ff ff9a 	bl	20000844 <hw_endpoint_start_next_buffer>
20000910:	e7e6      	b.n	200008e0 <hw_endpoint_xfer_continue+0x14>
20000912:	46c0      	nop			; (mov r8, r8)
20000914:	20000c68 	.word	0x20000c68
20000918:	1000822c 	.word	0x1000822c

2000091c <dcd_event_handler>:
2000091c:	b530      	push	{r4, r5, lr}
2000091e:	b085      	sub	sp, #20
20000920:	0005      	movs	r5, r0
20000922:	7843      	ldrb	r3, [r0, #1]
20000924:	2b04      	cmp	r3, #4
20000926:	d100      	bne.n	2000092a <dcd_event_handler+0xe>
20000928:	e059      	b.n	200009de <dcd_event_handler+0xc2>
2000092a:	d806      	bhi.n	2000093a <dcd_event_handler+0x1e>
2000092c:	2b02      	cmp	r3, #2
2000092e:	d02b      	beq.n	20000988 <dcd_event_handler+0x6c>
20000930:	2b03      	cmp	r3, #3
20000932:	d000      	beq.n	20000936 <dcd_event_handler+0x1a>
20000934:	e0cb      	b.n	20000ace <dcd_event_handler+0x1b2>
20000936:	2400      	movs	r4, #0
20000938:	e083      	b.n	20000a42 <dcd_event_handler+0x126>
2000093a:	2b05      	cmp	r3, #5
2000093c:	d000      	beq.n	20000940 <dcd_event_handler+0x24>
2000093e:	e0c6      	b.n	20000ace <dcd_event_handler+0x1b2>
20000940:	4b70      	ldr	r3, [pc, #448]	; (20000b04 <dcd_event_handler+0x1e8>)
20000942:	781b      	ldrb	r3, [r3, #0]
20000944:	07db      	lsls	r3, r3, #31
20000946:	d548      	bpl.n	200009da <dcd_event_handler+0xbe>
20000948:	4a6e      	ldr	r2, [pc, #440]	; (20000b04 <dcd_event_handler+0x1e8>)
2000094a:	7813      	ldrb	r3, [r2, #0]
2000094c:	2104      	movs	r1, #4
2000094e:	438b      	bics	r3, r1
20000950:	7013      	strb	r3, [r2, #0]
20000952:	4b6d      	ldr	r3, [pc, #436]	; (20000b08 <dcd_event_handler+0x1ec>)
20000954:	681c      	ldr	r4, [r3, #0]
20000956:	0021      	movs	r1, r4
20000958:	3114      	adds	r1, #20
2000095a:	6962      	ldr	r2, [r4, #20]
2000095c:	f3ef 8010 	mrs	r0, PRIMASK
20000960:	b672      	cpsid	i
20000962:	6813      	ldr	r3, [r2, #0]
20000964:	2b00      	cmp	r3, #0
20000966:	d0fc      	beq.n	20000962 <dcd_event_handler+0x46>
20000968:	f3bf 8f5f 	dmb	sy
2000096c:	6048      	str	r0, [r1, #4]
2000096e:	0029      	movs	r1, r5
20000970:	0020      	movs	r0, r4
20000972:	f000 f8e5 	bl	20000b40 <__tu_fifo_write_veneer>
20000976:	6962      	ldr	r2, [r4, #20]
20000978:	69a3      	ldr	r3, [r4, #24]
2000097a:	f3bf 8f5f 	dmb	sy
2000097e:	2100      	movs	r1, #0
20000980:	6011      	str	r1, [r2, #0]
20000982:	f383 8810 	msr	PRIMASK, r3
20000986:	e028      	b.n	200009da <dcd_event_handler+0xbe>
20000988:	4b5e      	ldr	r3, [pc, #376]	; (20000b04 <dcd_event_handler+0x1e8>)
2000098a:	781a      	ldrb	r2, [r3, #0]
2000098c:	2101      	movs	r1, #1
2000098e:	438a      	bics	r2, r1
20000990:	701a      	strb	r2, [r3, #0]
20000992:	781a      	ldrb	r2, [r3, #0]
20000994:	3101      	adds	r1, #1
20000996:	438a      	bics	r2, r1
20000998:	701a      	strb	r2, [r3, #0]
2000099a:	2200      	movs	r2, #0
2000099c:	705a      	strb	r2, [r3, #1]
2000099e:	781a      	ldrb	r2, [r3, #0]
200009a0:	3102      	adds	r1, #2
200009a2:	438a      	bics	r2, r1
200009a4:	701a      	strb	r2, [r3, #0]
200009a6:	4b58      	ldr	r3, [pc, #352]	; (20000b08 <dcd_event_handler+0x1ec>)
200009a8:	681c      	ldr	r4, [r3, #0]
200009aa:	0021      	movs	r1, r4
200009ac:	3114      	adds	r1, #20
200009ae:	6962      	ldr	r2, [r4, #20]
200009b0:	f3ef 8010 	mrs	r0, PRIMASK
200009b4:	b672      	cpsid	i
200009b6:	6813      	ldr	r3, [r2, #0]
200009b8:	2b00      	cmp	r3, #0
200009ba:	d0fc      	beq.n	200009b6 <dcd_event_handler+0x9a>
200009bc:	f3bf 8f5f 	dmb	sy
200009c0:	6048      	str	r0, [r1, #4]
200009c2:	0029      	movs	r1, r5
200009c4:	0020      	movs	r0, r4
200009c6:	f000 f8bb 	bl	20000b40 <__tu_fifo_write_veneer>
200009ca:	6962      	ldr	r2, [r4, #20]
200009cc:	69a3      	ldr	r3, [r4, #24]
200009ce:	f3bf 8f5f 	dmb	sy
200009d2:	2100      	movs	r1, #0
200009d4:	6011      	str	r1, [r2, #0]
200009d6:	f383 8810 	msr	PRIMASK, r3
200009da:	b005      	add	sp, #20
200009dc:	bd30      	pop	{r4, r5, pc}
200009de:	4b49      	ldr	r3, [pc, #292]	; (20000b04 <dcd_event_handler+0x1e8>)
200009e0:	781b      	ldrb	r3, [r3, #0]
200009e2:	07db      	lsls	r3, r3, #31
200009e4:	d5f9      	bpl.n	200009da <dcd_event_handler+0xbe>
200009e6:	4a47      	ldr	r2, [pc, #284]	; (20000b04 <dcd_event_handler+0x1e8>)
200009e8:	7813      	ldrb	r3, [r2, #0]
200009ea:	2104      	movs	r1, #4
200009ec:	430b      	orrs	r3, r1
200009ee:	7013      	strb	r3, [r2, #0]
200009f0:	4b45      	ldr	r3, [pc, #276]	; (20000b08 <dcd_event_handler+0x1ec>)
200009f2:	681c      	ldr	r4, [r3, #0]
200009f4:	0021      	movs	r1, r4
200009f6:	3114      	adds	r1, #20
200009f8:	6962      	ldr	r2, [r4, #20]
200009fa:	f3ef 8010 	mrs	r0, PRIMASK
200009fe:	b672      	cpsid	i
20000a00:	6813      	ldr	r3, [r2, #0]
20000a02:	2b00      	cmp	r3, #0
20000a04:	d0fc      	beq.n	20000a00 <dcd_event_handler+0xe4>
20000a06:	f3bf 8f5f 	dmb	sy
20000a0a:	6048      	str	r0, [r1, #4]
20000a0c:	0029      	movs	r1, r5
20000a0e:	0020      	movs	r0, r4
20000a10:	f000 f896 	bl	20000b40 <__tu_fifo_write_veneer>
20000a14:	6962      	ldr	r2, [r4, #20]
20000a16:	69a3      	ldr	r3, [r4, #24]
20000a18:	f3bf 8f5f 	dmb	sy
20000a1c:	2100      	movs	r1, #0
20000a1e:	6011      	str	r1, [r2, #0]
20000a20:	f383 8810 	msr	PRIMASK, r3
20000a24:	e7d9      	b.n	200009da <dcd_event_handler+0xbe>
20000a26:	0063      	lsls	r3, r4, #1
20000a28:	191b      	adds	r3, r3, r4
20000a2a:	00da      	lsls	r2, r3, #3
20000a2c:	4b37      	ldr	r3, [pc, #220]	; (20000b0c <dcd_event_handler+0x1f0>)
20000a2e:	681b      	ldr	r3, [r3, #0]
20000a30:	189b      	adds	r3, r3, r2
20000a32:	e018      	b.n	20000a66 <dcd_event_handler+0x14a>
20000a34:	0023      	movs	r3, r4
20000a36:	e00f      	b.n	20000a58 <dcd_event_handler+0x13c>
20000a38:	7828      	ldrb	r0, [r5, #0]
20000a3a:	6869      	ldr	r1, [r5, #4]
20000a3c:	4798      	blx	r3
20000a3e:	3401      	adds	r4, #1
20000a40:	b2e4      	uxtb	r4, r4
20000a42:	4b33      	ldr	r3, [pc, #204]	; (20000b10 <dcd_event_handler+0x1f4>)
20000a44:	781b      	ldrb	r3, [r3, #0]
20000a46:	42a3      	cmp	r3, r4
20000a48:	d313      	bcc.n	20000a72 <dcd_event_handler+0x156>
20000a4a:	4a32      	ldr	r2, [pc, #200]	; (20000b14 <dcd_event_handler+0x1f8>)
20000a4c:	2a00      	cmp	r2, #0
20000a4e:	d0f1      	beq.n	20000a34 <dcd_event_handler+0x118>
20000a50:	42a3      	cmp	r3, r4
20000a52:	d8e8      	bhi.n	20000a26 <dcd_event_handler+0x10a>
20000a54:	1ae3      	subs	r3, r4, r3
20000a56:	b2db      	uxtb	r3, r3
20000a58:	2b00      	cmp	r3, #0
20000a5a:	d1f0      	bne.n	20000a3e <dcd_event_handler+0x122>
20000a5c:	005a      	lsls	r2, r3, #1
20000a5e:	18d2      	adds	r2, r2, r3
20000a60:	00d2      	lsls	r2, r2, #3
20000a62:	4b2d      	ldr	r3, [pc, #180]	; (20000b18 <dcd_event_handler+0x1fc>)
20000a64:	189b      	adds	r3, r3, r2
20000a66:	2b00      	cmp	r3, #0
20000a68:	d0e9      	beq.n	20000a3e <dcd_event_handler+0x122>
20000a6a:	695b      	ldr	r3, [r3, #20]
20000a6c:	2b00      	cmp	r3, #0
20000a6e:	d1e3      	bne.n	20000a38 <dcd_event_handler+0x11c>
20000a70:	e7e5      	b.n	20000a3e <dcd_event_handler+0x122>
20000a72:	4b24      	ldr	r3, [pc, #144]	; (20000b04 <dcd_event_handler+0x1e8>)
20000a74:	781b      	ldrb	r3, [r3, #0]
20000a76:	075b      	lsls	r3, r3, #29
20000a78:	d5af      	bpl.n	200009da <dcd_event_handler+0xbe>
20000a7a:	4a22      	ldr	r2, [pc, #136]	; (20000b04 <dcd_event_handler+0x1e8>)
20000a7c:	7813      	ldrb	r3, [r2, #0]
20000a7e:	2104      	movs	r1, #4
20000a80:	438b      	bics	r3, r1
20000a82:	7013      	strb	r3, [r2, #0]
20000a84:	220c      	movs	r2, #12
20000a86:	2100      	movs	r1, #0
20000a88:	a801      	add	r0, sp, #4
20000a8a:	f000 f881 	bl	20000b90 <____wrap_memset_veneer>
20000a8e:	782b      	ldrb	r3, [r5, #0]
20000a90:	466a      	mov	r2, sp
20000a92:	7113      	strb	r3, [r2, #4]
20000a94:	2305      	movs	r3, #5
20000a96:	7153      	strb	r3, [r2, #5]
20000a98:	4b1b      	ldr	r3, [pc, #108]	; (20000b08 <dcd_event_handler+0x1ec>)
20000a9a:	681c      	ldr	r4, [r3, #0]
20000a9c:	0021      	movs	r1, r4
20000a9e:	3114      	adds	r1, #20
20000aa0:	6962      	ldr	r2, [r4, #20]
20000aa2:	f3ef 8010 	mrs	r0, PRIMASK
20000aa6:	b672      	cpsid	i
20000aa8:	6813      	ldr	r3, [r2, #0]
20000aaa:	2b00      	cmp	r3, #0
20000aac:	d0fc      	beq.n	20000aa8 <dcd_event_handler+0x18c>
20000aae:	f3bf 8f5f 	dmb	sy
20000ab2:	6048      	str	r0, [r1, #4]
20000ab4:	a901      	add	r1, sp, #4
20000ab6:	0020      	movs	r0, r4
20000ab8:	f000 f842 	bl	20000b40 <__tu_fifo_write_veneer>
20000abc:	6962      	ldr	r2, [r4, #20]
20000abe:	69a3      	ldr	r3, [r4, #24]
20000ac0:	f3bf 8f5f 	dmb	sy
20000ac4:	2100      	movs	r1, #0
20000ac6:	6011      	str	r1, [r2, #0]
20000ac8:	f383 8810 	msr	PRIMASK, r3
20000acc:	e785      	b.n	200009da <dcd_event_handler+0xbe>
20000ace:	4b0e      	ldr	r3, [pc, #56]	; (20000b08 <dcd_event_handler+0x1ec>)
20000ad0:	681c      	ldr	r4, [r3, #0]
20000ad2:	0021      	movs	r1, r4
20000ad4:	3114      	adds	r1, #20
20000ad6:	6962      	ldr	r2, [r4, #20]
20000ad8:	f3ef 8010 	mrs	r0, PRIMASK
20000adc:	b672      	cpsid	i
20000ade:	6813      	ldr	r3, [r2, #0]
20000ae0:	2b00      	cmp	r3, #0
20000ae2:	d0fc      	beq.n	20000ade <dcd_event_handler+0x1c2>
20000ae4:	f3bf 8f5f 	dmb	sy
20000ae8:	6048      	str	r0, [r1, #4]
20000aea:	0029      	movs	r1, r5
20000aec:	0020      	movs	r0, r4
20000aee:	f000 f827 	bl	20000b40 <__tu_fifo_write_veneer>
20000af2:	6962      	ldr	r2, [r4, #20]
20000af4:	69a3      	ldr	r3, [r4, #24]
20000af6:	f3bf 8f5f 	dmb	sy
20000afa:	2100      	movs	r1, #0
20000afc:	6011      	str	r1, [r2, #0]
20000afe:	f383 8810 	msr	PRIMASK, r3
20000b02:	e76a      	b.n	200009da <dcd_event_handler+0xbe>
20000b04:	200010fc 	.word	0x200010fc
20000b08:	20001154 	.word	0x20001154
20000b0c:	20000dd4 	.word	0x20000dd4
20000b10:	20001a4d 	.word	0x20001a4d
20000b14:	10004515 	.word	0x10004515
20000b18:	100082fc 	.word	0x100082fc

20000b1c <__aeabi_idiv0>:
20000b1c:	4770      	bx	lr
20000b1e:	46c0      	nop			; (mov r8, r8)

20000b20 <__time_us_64_veneer>:
20000b20:	b401      	push	{r0}
20000b22:	4802      	ldr	r0, [pc, #8]	; (20000b2c <__time_us_64_veneer+0xc>)
20000b24:	4684      	mov	ip, r0
20000b26:	bc01      	pop	{r0}
20000b28:	4760      	bx	ip
20000b2a:	bf00      	nop
20000b2c:	10001b41 	.word	0x10001b41

20000b30 <____wrap_memcpy_veneer>:
20000b30:	b401      	push	{r0}
20000b32:	4802      	ldr	r0, [pc, #8]	; (20000b3c <____wrap_memcpy_veneer+0xc>)
20000b34:	4684      	mov	ip, r0
20000b36:	bc01      	pop	{r0}
20000b38:	4760      	bx	ip
20000b3a:	bf00      	nop
20000b3c:	10004189 	.word	0x10004189

20000b40 <__tu_fifo_write_veneer>:
20000b40:	b401      	push	{r0}
20000b42:	4802      	ldr	r0, [pc, #8]	; (20000b4c <__tu_fifo_write_veneer+0xc>)
20000b44:	4684      	mov	ip, r0
20000b46:	bc01      	pop	{r0}
20000b48:	4760      	bx	ip
20000b4a:	bf00      	nop
20000b4c:	10006961 	.word	0x10006961

20000b50 <__best_effort_wfe_or_timeout_veneer>:
20000b50:	b401      	push	{r0}
20000b52:	4802      	ldr	r0, [pc, #8]	; (20000b5c <__best_effort_wfe_or_timeout_veneer+0xc>)
20000b54:	4684      	mov	ip, r0
20000b56:	bc01      	pop	{r0}
20000b58:	4760      	bx	ip
20000b5a:	bf00      	nop
20000b5c:	100019ed 	.word	0x100019ed

20000b60 <____assert_func_veneer>:
20000b60:	b401      	push	{r0}
20000b62:	4802      	ldr	r0, [pc, #8]	; (20000b6c <____assert_func_veneer+0xc>)
20000b64:	4684      	mov	ip, r0
20000b66:	bc01      	pop	{r0}
20000b68:	4760      	bx	ip
20000b6a:	bf00      	nop
20000b6c:	10002591 	.word	0x10002591

20000b70 <____wrap___aeabi_lmul_veneer>:
20000b70:	b401      	push	{r0}
20000b72:	4802      	ldr	r0, [pc, #8]	; (20000b7c <____wrap___aeabi_lmul_veneer+0xc>)
20000b74:	4684      	mov	ip, r0
20000b76:	bc01      	pop	{r0}
20000b78:	4760      	bx	ip
20000b7a:	bf00      	nop
20000b7c:	10004029 	.word	0x10004029

20000b80 <__panic_veneer>:
20000b80:	b401      	push	{r0}
20000b82:	4802      	ldr	r0, [pc, #8]	; (20000b8c <__panic_veneer+0xc>)
20000b84:	4684      	mov	ip, r0
20000b86:	bc01      	pop	{r0}
20000b88:	4760      	bx	ip
20000b8a:	bf00      	nop
20000b8c:	100026c5 	.word	0x100026c5

20000b90 <____wrap_memset_veneer>:
20000b90:	b401      	push	{r0}
20000b92:	4802      	ldr	r0, [pc, #8]	; (20000b9c <____wrap_memset_veneer+0xc>)
20000b94:	4684      	mov	ip, r0
20000b96:	bc01      	pop	{r0}
20000b98:	4760      	bx	ip
20000b9a:	bf00      	nop
20000b9c:	1000417d 	.word	0x1000417d

20000ba0 <__hw_endpoint_get_by_addr_veneer>:
20000ba0:	b401      	push	{r0}
20000ba2:	4802      	ldr	r0, [pc, #8]	; (20000bac <__hw_endpoint_get_by_addr_veneer+0xc>)
20000ba4:	4684      	mov	ip, r0
20000ba6:	bc01      	pop	{r0}
20000ba8:	4760      	bx	ip
20000baa:	bf00      	nop
20000bac:	10004af9 	.word	0x10004af9

20000bb0 <striped_spin_lock_num>:
20000bb0:	00000010                                ....

20000bb4 <irq_handler_chain_slots>:
20000bb4:	00000000 	.word	0x00000000
20000bb8:	00010000 	.word	0x00010000
	...
20000bc4:	00020000 	.word	0x00020000
	...
20000bd0:	00030000 	.word	0x00030000
	...
20000bdc:	00ff0000 	.word	0x00ff0000
20000be0:	00000000 	.word	0x00000000

20000be4 <irq_handler_chain_first_slot>:
20000be4:	b501      	push	{r0, lr}
20000be6:	6848      	ldr	r0, [r1, #4]
20000be8:	3101      	adds	r1, #1
20000bea:	468e      	mov	lr, r1
20000bec:	4700      	bx	r0

20000bee <irq_handler_chain_remove_tail>:
20000bee:	4670      	mov	r0, lr
20000bf0:	3809      	subs	r0, #9
20000bf2:	4901      	ldr	r1, [pc, #4]	; (20000bf8 <irq_handler_chain_remove_tail+0xa>)
20000bf4:	4788      	blx	r1
20000bf6:	bd01      	pop	{r0, pc}
20000bf8:	10000ef9 	.word	0x10000ef9

20000bfc <default_alarm_pool>:
20000bfc:	20000c14 00000000 20000cb0 20001368     ... ....... h.. 
	...

20000c14 <default_alarm_pool_heap>:
20000c14:	20001378 00000000 00000000 00000010     x.. ............
	...

20000c30 <aeabi_bits_funcs>:
20000c30:	00003350 	.word	0x00003350
20000c34:	0000334c 	.word	0x0000334c
20000c38:	00003354 	.word	0x00003354
20000c3c:	00003352 	.word	0x00003352

20000c40 <aeabi_bits_funcs_end>:
20000c40:	0000534d 	.word	0x0000534d
20000c44:	0000434d 	.word	0x0000434d
20000c48:	00003453 	.word	0x00003453
20000c4c:	00003443 	.word	0x00003443

20000c50 <stdio_usb>:
20000c50:	100048b1 00000000 100047ed 10004549     .H.......G..IE..
20000c60:	00000000 00000100                       ........

20000c68 <ep_dir_string>:
20000c68:	10008258 1000825c                       X...\...

20000c70 <_usbd_qdef>:
20000c70:	20001158 000c0010 00000000 00000000     X.. ............
	...

20000c8c <_usbd_rhport>:
20000c8c:	000000ff                                ....

20000c90 <print_mutex>:
	...

20000c98 <__mutex_array_end>:
20000c98:	1000416d 	.word	0x1000416d
20000c9c:	10003835 	.word	0x10003835
20000ca0:	10003f29 	.word	0x10003f29
20000ca4:	100040e5 	.word	0x100040e5

20000ca8 <__frame_dummy_init_array_entry>:
20000ca8:	100002e5 10004a41                       ....AJ..
